
program:     file format elf64-x86-64


Disassembly of section .init:

0000000000001000 <_init>:
    1000:	48 83 ec 08          	sub    rsp,0x8
    1004:	48 8b 05 bd 9f 00 00 	mov    rax,QWORD PTR [rip+0x9fbd]        # afc8 <__gmon_start__@Base>
    100b:	48 85 c0             	test   rax,rax
    100e:	74 02                	je     1012 <_init+0x12>
    1010:	ff d0                	call   rax
    1012:	48 83 c4 08          	add    rsp,0x8
    1016:	c3                   	ret

Disassembly of section .plt:

0000000000001020 <.plt>:
    1020:	ff 35 ca 9f 00 00    	push   QWORD PTR [rip+0x9fca]        # aff0 <_GLOBAL_OFFSET_TABLE_+0x8>
    1026:	ff 25 cc 9f 00 00    	jmp    QWORD PTR [rip+0x9fcc]        # aff8 <_GLOBAL_OFFSET_TABLE_+0x10>
    102c:	0f 1f 40 00          	nop    DWORD PTR [rax+0x0]

Disassembly of section .plt.got:

0000000000001030 <__cxa_finalize@plt>:
    1030:	ff 25 aa 9f 00 00    	jmp    QWORD PTR [rip+0x9faa]        # afe0 <__cxa_finalize@GLIBC_2.2.5>
    1036:	66 90                	xchg   ax,ax

Disassembly of section .text:

0000000000001040 <_start>:
    1040:	31 ed                	xor    ebp,ebp
    1042:	49 89 d1             	mov    r9,rdx
    1045:	5e                   	pop    rsi
    1046:	48 89 e2             	mov    rdx,rsp
    1049:	48 83 e4 f0          	and    rsp,0xfffffffffffffff0
    104d:	50                   	push   rax
    104e:	54                   	push   rsp
    104f:	45 31 c0             	xor    r8d,r8d
    1052:	31 c9                	xor    ecx,ecx
    1054:	48 8d 3d d5 00 00 00 	lea    rdi,[rip+0xd5]        # 1130 <main>
    105b:	ff 15 4f 9f 00 00    	call   QWORD PTR [rip+0x9f4f]        # afb0 <__libc_start_main@GLIBC_2.34>
    1061:	f4                   	hlt
    1062:	66 2e 0f 1f 84 00 00 	cs nop WORD PTR [rax+rax*1+0x0]
    1069:	00 00 00 
    106c:	0f 1f 40 00          	nop    DWORD PTR [rax+0x0]

0000000000001070 <deregister_tm_clones>:
    1070:	48 8d 3d 59 a0 00 00 	lea    rdi,[rip+0xa059]        # b0d0 <__TMC_END__>
    1077:	48 8d 05 52 a0 00 00 	lea    rax,[rip+0xa052]        # b0d0 <__TMC_END__>
    107e:	48 39 f8             	cmp    rax,rdi
    1081:	74 15                	je     1098 <deregister_tm_clones+0x28>
    1083:	48 8b 05 2e 9f 00 00 	mov    rax,QWORD PTR [rip+0x9f2e]        # afb8 <_ITM_deregisterTMCloneTable@Base>
    108a:	48 85 c0             	test   rax,rax
    108d:	74 09                	je     1098 <deregister_tm_clones+0x28>
    108f:	ff e0                	jmp    rax
    1091:	0f 1f 80 00 00 00 00 	nop    DWORD PTR [rax+0x0]
    1098:	c3                   	ret
    1099:	0f 1f 80 00 00 00 00 	nop    DWORD PTR [rax+0x0]

00000000000010a0 <register_tm_clones>:
    10a0:	48 8d 3d 29 a0 00 00 	lea    rdi,[rip+0xa029]        # b0d0 <__TMC_END__>
    10a7:	48 8d 35 22 a0 00 00 	lea    rsi,[rip+0xa022]        # b0d0 <__TMC_END__>
    10ae:	48 29 fe             	sub    rsi,rdi
    10b1:	48 89 f0             	mov    rax,rsi
    10b4:	48 c1 ee 3f          	shr    rsi,0x3f
    10b8:	48 c1 f8 03          	sar    rax,0x3
    10bc:	48 01 c6             	add    rsi,rax
    10bf:	48 d1 fe             	sar    rsi,1
    10c2:	74 14                	je     10d8 <register_tm_clones+0x38>
    10c4:	48 8b 05 0d 9f 00 00 	mov    rax,QWORD PTR [rip+0x9f0d]        # afd8 <_ITM_registerTMCloneTable@Base>
    10cb:	48 85 c0             	test   rax,rax
    10ce:	74 08                	je     10d8 <register_tm_clones+0x38>
    10d0:	ff e0                	jmp    rax
    10d2:	66 0f 1f 44 00 00    	nop    WORD PTR [rax+rax*1+0x0]
    10d8:	c3                   	ret
    10d9:	0f 1f 80 00 00 00 00 	nop    DWORD PTR [rax+0x0]

00000000000010e0 <__do_global_dtors_aux>:
    10e0:	f3 0f 1e fa          	endbr64
    10e4:	80 3d e1 9f 00 00 00 	cmp    BYTE PTR [rip+0x9fe1],0x0        # b0cc <completed.0>
    10eb:	75 2b                	jne    1118 <__do_global_dtors_aux+0x38>
    10ed:	55                   	push   rbp
    10ee:	48 83 3d ea 9e 00 00 	cmp    QWORD PTR [rip+0x9eea],0x0        # afe0 <__cxa_finalize@GLIBC_2.2.5>
    10f5:	00 
    10f6:	48 89 e5             	mov    rbp,rsp
    10f9:	74 0c                	je     1107 <__do_global_dtors_aux+0x27>
    10fb:	48 8b 3d 06 9f 00 00 	mov    rdi,QWORD PTR [rip+0x9f06]        # b008 <__dso_handle>
    1102:	e8 29 ff ff ff       	call   1030 <__cxa_finalize@plt>
    1107:	e8 64 ff ff ff       	call   1070 <deregister_tm_clones>
    110c:	c6 05 b9 9f 00 00 01 	mov    BYTE PTR [rip+0x9fb9],0x1        # b0cc <completed.0>
    1113:	5d                   	pop    rbp
    1114:	c3                   	ret
    1115:	0f 1f 00             	nop    DWORD PTR [rax]
    1118:	c3                   	ret
    1119:	0f 1f 80 00 00 00 00 	nop    DWORD PTR [rax+0x0]

0000000000001120 <frame_dummy>:
    1120:	f3 0f 1e fa          	endbr64
    1124:	e9 77 ff ff ff       	jmp    10a0 <register_tm_clones>
    1129:	0f 1f 80 00 00 00 00 	nop    DWORD PTR [rax+0x0]

0000000000001130 <main>:
    1130:	55                   	push   rbp
    1131:	48 89 e5             	mov    rbp,rsp
    1134:	48 83 ec 10          	sub    rsp,0x10
    1138:	48 8d 3d da 9e 00 00 	lea    rdi,[rip+0x9eda]        # b019 <intro>
    113f:	31 c0                	xor    eax,eax
    1141:	ff 15 79 9e 00 00    	call   QWORD PTR [rip+0x9e79]        # afc0 <printf@GLIBC_2.2.5>
    1147:	48 31 db             	xor    rbx,rbx

000000000000114a <node0>:
    114a:	48 8d 05 7f 9f 00 00 	lea    rax,[rip+0x9f7f]        # b0d0 <__TMC_END__>
    1151:	c6 04 18 66          	mov    BYTE PTR [rax+rbx*1],0x66
    1155:	48 ff c3             	inc    rbx
    1158:	48 8d 3d b1 9e 00 00 	lea    rdi,[rip+0x9eb1]        # b010 <scanf_format>
    115f:	48 89 e6             	mov    rsi,rsp
    1162:	31 c0                	xor    eax,eax
    1164:	ff 15 66 9e 00 00    	call   QWORD PTR [rip+0x9e66]        # afd0 <scanf@GLIBC_2.2.5>
    116a:	48 8b 04 24          	mov    rax,QWORD PTR [rsp]
    116e:	48 3d 85 00 00 00    	cmp    rax,0x85
    1174:	0f 84 2d 22 00 00    	je     33a7 <node133>
    117a:	48 83 f8 3c          	cmp    rax,0x3c
    117e:	0f 84 08 10 00 00    	je     218c <node60>
    1184:	48 3d dc 00 00 00    	cmp    rax,0xdc
    118a:	0f 84 a2 3c 00 00    	je     4e32 <node220>
    1190:	e9 b8 7c 00 00       	jmp    8e4d <fail_code>

0000000000001195 <node1>:
    1195:	48 8d 05 34 9f 00 00 	lea    rax,[rip+0x9f34]        # b0d0 <__TMC_END__>
    119c:	c6 04 18 72          	mov    BYTE PTR [rax+rbx*1],0x72
    11a0:	48 ff c3             	inc    rbx
    11a3:	48 8d 3d 66 9e 00 00 	lea    rdi,[rip+0x9e66]        # b010 <scanf_format>
    11aa:	48 89 e6             	mov    rsi,rsp
    11ad:	31 c0                	xor    eax,eax
    11af:	ff 15 1b 9e 00 00    	call   QWORD PTR [rip+0x9e1b]        # afd0 <scanf@GLIBC_2.2.5>
    11b5:	48 8b 04 24          	mov    rax,QWORD PTR [rsp]
    11b9:	48 3d e3 00 00 00    	cmp    rax,0xe3
    11bf:	0f 84 44 3e 00 00    	je     5009 <node227>
    11c5:	48 3d 2e 01 00 00    	cmp    rax,0x12e
    11cb:	0f 84 4d 54 00 00    	je     661e <node302>
    11d1:	e9 77 7c 00 00       	jmp    8e4d <fail_code>

00000000000011d6 <node2>:
    11d6:	48 8d 05 f3 9e 00 00 	lea    rax,[rip+0x9ef3]        # b0d0 <__TMC_END__>
    11dd:	c6 04 18 0d          	mov    BYTE PTR [rax+rbx*1],0xd
    11e1:	48 ff c3             	inc    rbx
    11e4:	48 8d 3d 25 9e 00 00 	lea    rdi,[rip+0x9e25]        # b010 <scanf_format>
    11eb:	48 89 e6             	mov    rsi,rsp
    11ee:	31 c0                	xor    eax,eax
    11f0:	ff 15 da 9d 00 00    	call   QWORD PTR [rip+0x9dda]        # afd0 <scanf@GLIBC_2.2.5>
    11f6:	48 8b 04 24          	mov    rax,QWORD PTR [rsp]
    11fa:	48 83 f8 67          	cmp    rax,0x67
    11fe:	0f 84 95 19 00 00    	je     2b99 <node103>
    1204:	48 3d ae 01 00 00    	cmp    rax,0x1ae
    120a:	0f 84 0a 76 00 00    	je     881a <node430>
    1210:	48 3d 06 01 00 00    	cmp    rax,0x106
    1216:	0f 84 6e 48 00 00    	je     5a8a <node262>
    121c:	e9 2c 7c 00 00       	jmp    8e4d <fail_code>

0000000000001221 <node3>:
    1221:	48 8d 05 a8 9e 00 00 	lea    rax,[rip+0x9ea8]        # b0d0 <__TMC_END__>
    1228:	c6 04 18 5f          	mov    BYTE PTR [rax+rbx*1],0x5f
    122c:	48 ff c3             	inc    rbx
    122f:	48 8d 3d da 9d 00 00 	lea    rdi,[rip+0x9dda]        # b010 <scanf_format>
    1236:	48 89 e6             	mov    rsi,rsp
    1239:	31 c0                	xor    eax,eax
    123b:	ff 15 8f 9d 00 00    	call   QWORD PTR [rip+0x9d8f]        # afd0 <scanf@GLIBC_2.2.5>
    1241:	48 8b 04 24          	mov    rax,QWORD PTR [rsp]
    1245:	48 3d 30 01 00 00    	cmp    rax,0x130
    124b:	0f 84 21 54 00 00    	je     6672 <node304>
    1251:	48 3d fa 00 00 00    	cmp    rax,0xfa
    1257:	0f 84 75 44 00 00    	je     56d2 <node250>
    125d:	48 3d 9a 01 00 00    	cmp    rax,0x19a
    1263:	0f 84 fd 70 00 00    	je     8366 <node410>
    1269:	48 3d fc 00 00 00    	cmp    rax,0xfc
    126f:	0f 84 89 45 00 00    	je     57fe <node252>
    1275:	48 3d 3d 01 00 00    	cmp    rax,0x13d
    127b:	0f 84 0e 58 00 00    	je     6a8f <node317>
    1281:	e9 c7 7b 00 00       	jmp    8e4d <fail_code>

0000000000001286 <node4>:
    1286:	48 8d 05 43 9e 00 00 	lea    rax,[rip+0x9e43]        # b0d0 <__TMC_END__>
    128d:	c6 04 18 41          	mov    BYTE PTR [rax+rbx*1],0x41
    1291:	48 ff c3             	inc    rbx
    1294:	48 8d 3d 75 9d 00 00 	lea    rdi,[rip+0x9d75]        # b010 <scanf_format>
    129b:	48 89 e6             	mov    rsi,rsp
    129e:	31 c0                	xor    eax,eax
    12a0:	ff 15 2a 9d 00 00    	call   QWORD PTR [rip+0x9d2a]        # afd0 <scanf@GLIBC_2.2.5>
    12a6:	48 8b 04 24          	mov    rax,QWORD PTR [rsp]
    12aa:	48 83 f8 32          	cmp    rax,0x32
    12ae:	0f 84 1a 0c 00 00    	je     1ece <node50>
    12b4:	48 83 f8 22          	cmp    rax,0x22
    12b8:	0f 84 22 08 00 00    	je     1ae0 <node34>
    12be:	48 3d 23 01 00 00    	cmp    rax,0x123
    12c4:	0f 84 ef 50 00 00    	je     63b9 <node291>
    12ca:	e9 7e 7b 00 00       	jmp    8e4d <fail_code>

00000000000012cf <node5>:
    12cf:	48 8d 05 fa 9d 00 00 	lea    rax,[rip+0x9dfa]        # b0d0 <__TMC_END__>
    12d6:	c6 04 18 6f          	mov    BYTE PTR [rax+rbx*1],0x6f
    12da:	48 ff c3             	inc    rbx
    12dd:	48 8d 3d 2c 9d 00 00 	lea    rdi,[rip+0x9d2c]        # b010 <scanf_format>
    12e4:	48 89 e6             	mov    rsi,rsp
    12e7:	31 c0                	xor    eax,eax
    12e9:	ff 15 e1 9c 00 00    	call   QWORD PTR [rip+0x9ce1]        # afd0 <scanf@GLIBC_2.2.5>
    12ef:	48 8b 04 24          	mov    rax,QWORD PTR [rsp]
    12f3:	48 3d 01 01 00 00    	cmp    rax,0x101
    12f9:	0f 84 34 46 00 00    	je     5933 <node257>
    12ff:	e9 49 7b 00 00       	jmp    8e4d <fail_code>

0000000000001304 <node6>:
    1304:	48 8d 05 c5 9d 00 00 	lea    rax,[rip+0x9dc5]        # b0d0 <__TMC_END__>
    130b:	c6 04 18 4e          	mov    BYTE PTR [rax+rbx*1],0x4e
    130f:	48 ff c3             	inc    rbx
    1312:	48 8d 3d f7 9c 00 00 	lea    rdi,[rip+0x9cf7]        # b010 <scanf_format>
    1319:	48 89 e6             	mov    rsi,rsp
    131c:	31 c0                	xor    eax,eax
    131e:	ff 15 ac 9c 00 00    	call   QWORD PTR [rip+0x9cac]        # afd0 <scanf@GLIBC_2.2.5>
    1324:	48 8b 04 24          	mov    rax,QWORD PTR [rsp]
    1328:	48 3d de 00 00 00    	cmp    rax,0xde
    132e:	0f 84 8a 3b 00 00    	je     4ebe <node222>
    1334:	48 83 f8 32          	cmp    rax,0x32
    1338:	0f 84 90 0b 00 00    	je     1ece <node50>
    133e:	48 3d c2 00 00 00    	cmp    rax,0xc2
    1344:	0f 84 36 32 00 00    	je     4580 <node194>
    134a:	e9 fe 7a 00 00       	jmp    8e4d <fail_code>

000000000000134f <node7>:
    134f:	48 8d 05 7a 9d 00 00 	lea    rax,[rip+0x9d7a]        # b0d0 <__TMC_END__>
    1356:	c6 04 18 59          	mov    BYTE PTR [rax+rbx*1],0x59
    135a:	48 ff c3             	inc    rbx
    135d:	48 8d 3d ac 9c 00 00 	lea    rdi,[rip+0x9cac]        # b010 <scanf_format>
    1364:	48 89 e6             	mov    rsi,rsp
    1367:	31 c0                	xor    eax,eax
    1369:	ff 15 61 9c 00 00    	call   QWORD PTR [rip+0x9c61]        # afd0 <scanf@GLIBC_2.2.5>
    136f:	48 8b 04 24          	mov    rax,QWORD PTR [rsp]
    1373:	48 3d 3b 01 00 00    	cmp    rax,0x13b
    1379:	0f 84 5a 56 00 00    	je     69d9 <node315>
    137f:	48 3d d6 00 00 00    	cmp    rax,0xd6
    1385:	0f 84 cd 38 00 00    	je     4c58 <node214>
    138b:	48 3d 6c 01 00 00    	cmp    rax,0x16c
    1391:	0f 84 2b 64 00 00    	je     77c2 <node364>
    1397:	48 3d 13 01 00 00    	cmp    rax,0x113
    139d:	0f 84 2e 4b 00 00    	je     5ed1 <node275>
    13a3:	e9 a5 7a 00 00       	jmp    8e4d <fail_code>

00000000000013a8 <node8>:
    13a8:	48 8d 05 21 9d 00 00 	lea    rax,[rip+0x9d21]        # b0d0 <__TMC_END__>
    13af:	c6 04 18 5b          	mov    BYTE PTR [rax+rbx*1],0x5b
    13b3:	48 ff c3             	inc    rbx
    13b6:	48 8d 3d 53 9c 00 00 	lea    rdi,[rip+0x9c53]        # b010 <scanf_format>
    13bd:	48 89 e6             	mov    rsi,rsp
    13c0:	31 c0                	xor    eax,eax
    13c2:	ff 15 08 9c 00 00    	call   QWORD PTR [rip+0x9c08]        # afd0 <scanf@GLIBC_2.2.5>
    13c8:	48 8b 04 24          	mov    rax,QWORD PTR [rsp]
    13cc:	48 3d f7 00 00 00    	cmp    rax,0xf7
    13d2:	0f 84 db 41 00 00    	je     55b3 <node247>
    13d8:	48 3d 1d 01 00 00    	cmp    rax,0x11d
    13de:	0f 84 e9 4d 00 00    	je     61cd <node285>
    13e4:	e9 64 7a 00 00       	jmp    8e4d <fail_code>

00000000000013e9 <node9>:
    13e9:	48 8d 05 e0 9c 00 00 	lea    rax,[rip+0x9ce0]        # b0d0 <__TMC_END__>
    13f0:	c6 04 18 7c          	mov    BYTE PTR [rax+rbx*1],0x7c
    13f4:	48 ff c3             	inc    rbx
    13f7:	48 8d 3d 12 9c 00 00 	lea    rdi,[rip+0x9c12]        # b010 <scanf_format>
    13fe:	48 89 e6             	mov    rsi,rsp
    1401:	31 c0                	xor    eax,eax
    1403:	ff 15 c7 9b 00 00    	call   QWORD PTR [rip+0x9bc7]        # afd0 <scanf@GLIBC_2.2.5>
    1409:	48 8b 04 24          	mov    rax,QWORD PTR [rsp]
    140d:	48 3d 84 01 00 00    	cmp    rax,0x184
    1413:	0f 84 3d 69 00 00    	je     7d56 <node388>
    1419:	e9 2f 7a 00 00       	jmp    8e4d <fail_code>

000000000000141e <node10>:
    141e:	48 8d 05 ab 9c 00 00 	lea    rax,[rip+0x9cab]        # b0d0 <__TMC_END__>
    1425:	c6 04 18 24          	mov    BYTE PTR [rax+rbx*1],0x24
    1429:	48 ff c3             	inc    rbx
    142c:	48 8d 3d dd 9b 00 00 	lea    rdi,[rip+0x9bdd]        # b010 <scanf_format>
    1433:	48 89 e6             	mov    rsi,rsp
    1436:	31 c0                	xor    eax,eax
    1438:	ff 15 92 9b 00 00    	call   QWORD PTR [rip+0x9b92]        # afd0 <scanf@GLIBC_2.2.5>
    143e:	48 8b 04 24          	mov    rax,QWORD PTR [rsp]
    1442:	48 3d ac 00 00 00    	cmp    rax,0xac
    1448:	0f 84 76 2b 00 00    	je     3fc4 <node172>
    144e:	48 83 f8 30          	cmp    rax,0x30
    1452:	0f 84 d8 09 00 00    	je     1e30 <node48>
    1458:	48 3d 0e 01 00 00    	cmp    rax,0x10e
    145e:	0f 84 60 48 00 00    	je     5cc4 <node270>
    1464:	48 3d d2 00 00 00    	cmp    rax,0xd2
    146a:	0f 84 82 36 00 00    	je     4af2 <node210>
    1470:	48 83 f8 09          	cmp    rax,0x9
    1474:	0f 84 6f ff ff ff    	je     13e9 <node9>
    147a:	48 83 f8 7f          	cmp    rax,0x7f
    147e:	0f 84 cb 1d 00 00    	je     324f <node127>
    1484:	e9 c4 79 00 00       	jmp    8e4d <fail_code>

0000000000001489 <node11>:
    1489:	48 8d 05 40 9c 00 00 	lea    rax,[rip+0x9c40]        # b0d0 <__TMC_END__>
    1490:	c6 04 18 26          	mov    BYTE PTR [rax+rbx*1],0x26
    1494:	48 ff c3             	inc    rbx
    1497:	e9 b1 79 00 00       	jmp    8e4d <fail_code>

000000000000149c <node12>:
    149c:	48 8d 05 2d 9c 00 00 	lea    rax,[rip+0x9c2d]        # b0d0 <__TMC_END__>
    14a3:	c6 04 18 55          	mov    BYTE PTR [rax+rbx*1],0x55
    14a7:	48 ff c3             	inc    rbx
    14aa:	48 8d 3d 5f 9b 00 00 	lea    rdi,[rip+0x9b5f]        # b010 <scanf_format>
    14b1:	48 89 e6             	mov    rsi,rsp
    14b4:	31 c0                	xor    eax,eax
    14b6:	ff 15 14 9b 00 00    	call   QWORD PTR [rip+0x9b14]        # afd0 <scanf@GLIBC_2.2.5>
    14bc:	48 8b 04 24          	mov    rax,QWORD PTR [rsp]
    14c0:	48 3d ab 01 00 00    	cmp    rax,0x1ab
    14c6:	0f 84 e7 72 00 00    	je     87b3 <node427>
    14cc:	48 3d 4d 01 00 00    	cmp    rax,0x14d
    14d2:	0f 84 2d 5a 00 00    	je     6f05 <node333>
    14d8:	48 83 f8 3b          	cmp    rax,0x3b
    14dc:	0f 84 55 0c 00 00    	je     2137 <node59>
    14e2:	48 3d 6e 01 00 00    	cmp    rax,0x16e
    14e8:	0f 84 6e 63 00 00    	je     785c <node366>
    14ee:	e9 5a 79 00 00       	jmp    8e4d <fail_code>

00000000000014f3 <node13>:
    14f3:	48 8d 05 d6 9b 00 00 	lea    rax,[rip+0x9bd6]        # b0d0 <__TMC_END__>
    14fa:	c6 04 18 70          	mov    BYTE PTR [rax+rbx*1],0x70
    14fe:	48 ff c3             	inc    rbx
    1501:	48 8d 3d 08 9b 00 00 	lea    rdi,[rip+0x9b08]        # b010 <scanf_format>
    1508:	48 89 e6             	mov    rsi,rsp
    150b:	31 c0                	xor    eax,eax
    150d:	ff 15 bd 9a 00 00    	call   QWORD PTR [rip+0x9abd]        # afd0 <scanf@GLIBC_2.2.5>
    1513:	48 8b 04 24          	mov    rax,QWORD PTR [rsp]
    1517:	48 3d da 00 00 00    	cmp    rax,0xda
    151d:	0f 84 59 38 00 00    	je     4d7c <node218>
    1523:	48 3d 26 01 00 00    	cmp    rax,0x126
    1529:	0f 84 1b 4f 00 00    	je     644a <node294>
    152f:	48 83 f8 08          	cmp    rax,0x8
    1533:	0f 84 6f fe ff ff    	je     13a8 <node8>
    1539:	48 3d a4 00 00 00    	cmp    rax,0xa4
    153f:	0f 84 a7 28 00 00    	je     3dec <node164>
    1545:	48 3d 86 00 00 00    	cmp    rax,0x86
    154b:	0f 84 e9 1e 00 00    	je     343a <node134>
    1551:	48 3d f0 00 00 00    	cmp    rax,0xf0
    1557:	0f 84 17 3e 00 00    	je     5374 <node240>
    155d:	48 83 f8 7e          	cmp    rax,0x7e
    1561:	0f 84 8f 1c 00 00    	je     31f6 <node126>
    1567:	48 3d 21 01 00 00    	cmp    rax,0x121
    156d:	0f 84 9e 4d 00 00    	je     6311 <node289>
    1573:	48 3d f3 00 00 00    	cmp    rax,0xf3
    1579:	0f 84 12 3f 00 00    	je     5491 <node243>
    157f:	48 3d 65 01 00 00    	cmp    rax,0x165
    1585:	0f 84 b6 5f 00 00    	je     7541 <node357>
    158b:	e9 bd 78 00 00       	jmp    8e4d <fail_code>

0000000000001590 <node14>:
    1590:	48 8d 05 39 9b 00 00 	lea    rax,[rip+0x9b39]        # b0d0 <__TMC_END__>
    1597:	c6 04 18 40          	mov    BYTE PTR [rax+rbx*1],0x40
    159b:	48 ff c3             	inc    rbx
    159e:	e9 aa 78 00 00       	jmp    8e4d <fail_code>

00000000000015a3 <node15>:
    15a3:	48 8d 05 26 9b 00 00 	lea    rax,[rip+0x9b26]        # b0d0 <__TMC_END__>
    15aa:	c6 04 18 77          	mov    BYTE PTR [rax+rbx*1],0x77
    15ae:	48 ff c3             	inc    rbx
    15b1:	48 8d 3d 58 9a 00 00 	lea    rdi,[rip+0x9a58]        # b010 <scanf_format>
    15b8:	48 89 e6             	mov    rsi,rsp
    15bb:	31 c0                	xor    eax,eax
    15bd:	ff 15 0d 9a 00 00    	call   QWORD PTR [rip+0x9a0d]        # afd0 <scanf@GLIBC_2.2.5>
    15c3:	48 8b 04 24          	mov    rax,QWORD PTR [rsp]
    15c7:	48 83 f8 5b          	cmp    rax,0x5b
    15cb:	0f 84 f8 12 00 00    	je     28c9 <node91>
    15d1:	48 3d 87 00 00 00    	cmp    rax,0x87
    15d7:	0f 84 9c 1e 00 00    	je     3479 <node135>
    15dd:	48 3d fd 00 00 00    	cmp    rax,0xfd
    15e3:	0f 84 76 42 00 00    	je     585f <node253>
    15e9:	e9 5f 78 00 00       	jmp    8e4d <fail_code>

00000000000015ee <node16>:
    15ee:	48 8d 05 db 9a 00 00 	lea    rax,[rip+0x9adb]        # b0d0 <__TMC_END__>
    15f5:	c6 04 18 30          	mov    BYTE PTR [rax+rbx*1],0x30
    15f9:	48 ff c3             	inc    rbx
    15fc:	48 8d 3d 0d 9a 00 00 	lea    rdi,[rip+0x9a0d]        # b010 <scanf_format>
    1603:	48 89 e6             	mov    rsi,rsp
    1606:	31 c0                	xor    eax,eax
    1608:	ff 15 c2 99 00 00    	call   QWORD PTR [rip+0x99c2]        # afd0 <scanf@GLIBC_2.2.5>
    160e:	48 8b 04 24          	mov    rax,QWORD PTR [rsp]
    1612:	48 3d a8 01 00 00    	cmp    rax,0x1a8
    1618:	0f 84 d6 70 00 00    	je     86f4 <node424>
    161e:	48 3d ac 00 00 00    	cmp    rax,0xac
    1624:	0f 84 9a 29 00 00    	je     3fc4 <node172>
    162a:	48 83 f8 27          	cmp    rax,0x27
    162e:	0f 84 67 06 00 00    	je     1c9b <node39>
    1634:	48 3d d6 00 00 00    	cmp    rax,0xd6
    163a:	0f 84 18 36 00 00    	je     4c58 <node214>
    1640:	48 3d af 01 00 00    	cmp    rax,0x1af
    1646:	0f 84 e1 71 00 00    	je     882d <node431>
    164c:	48 83 f8 7b          	cmp    rax,0x7b
    1650:	0f 84 a7 1a 00 00    	je     30fd <node123>
    1656:	48 83 f8 49          	cmp    rax,0x49
    165a:	0f 84 39 0e 00 00    	je     2499 <node73>
    1660:	48 3d e3 00 00 00    	cmp    rax,0xe3
    1666:	0f 84 9d 39 00 00    	je     5009 <node227>
    166c:	e9 dc 77 00 00       	jmp    8e4d <fail_code>

0000000000001671 <node17>:
    1671:	48 8d 05 58 9a 00 00 	lea    rax,[rip+0x9a58]        # b0d0 <__TMC_END__>
    1678:	c6 04 18 37          	mov    BYTE PTR [rax+rbx*1],0x37
    167c:	48 ff c3             	inc    rbx
    167f:	e9 c9 77 00 00       	jmp    8e4d <fail_code>

0000000000001684 <node18>:
    1684:	48 8d 05 45 9a 00 00 	lea    rax,[rip+0x9a45]        # b0d0 <__TMC_END__>
    168b:	c6 04 18 54          	mov    BYTE PTR [rax+rbx*1],0x54
    168f:	48 ff c3             	inc    rbx
    1692:	48 8d 3d 77 99 00 00 	lea    rdi,[rip+0x9977]        # b010 <scanf_format>
    1699:	48 89 e6             	mov    rsi,rsp
    169c:	31 c0                	xor    eax,eax
    169e:	ff 15 2c 99 00 00    	call   QWORD PTR [rip+0x992c]        # afd0 <scanf@GLIBC_2.2.5>
    16a4:	48 8b 04 24          	mov    rax,QWORD PTR [rsp]
    16a8:	48 83 f8 21          	cmp    rax,0x21
    16ac:	0f 84 fb 03 00 00    	je     1aad <node33>
    16b2:	48 83 f8 19          	cmp    rax,0x19
    16b6:	0f 84 c3 01 00 00    	je     187f <node25>
    16bc:	48 3d 2c 01 00 00    	cmp    rax,0x12c
    16c2:	0f 84 02 4f 00 00    	je     65ca <node300>
    16c8:	e9 80 77 00 00       	jmp    8e4d <fail_code>

00000000000016cd <node19>:
    16cd:	48 8d 05 fc 99 00 00 	lea    rax,[rip+0x99fc]        # b0d0 <__TMC_END__>
    16d4:	c6 04 18 66          	mov    BYTE PTR [rax+rbx*1],0x66
    16d8:	48 ff c3             	inc    rbx
    16db:	48 8d 3d 2e 99 00 00 	lea    rdi,[rip+0x992e]        # b010 <scanf_format>
    16e2:	48 89 e6             	mov    rsi,rsp
    16e5:	31 c0                	xor    eax,eax
    16e7:	ff 15 e3 98 00 00    	call   QWORD PTR [rip+0x98e3]        # afd0 <scanf@GLIBC_2.2.5>
    16ed:	48 8b 04 24          	mov    rax,QWORD PTR [rsp]
    16f1:	48 83 f8 4d          	cmp    rax,0x4d
    16f5:	0f 84 c8 0e 00 00    	je     25c3 <node77>
    16fb:	e9 4d 77 00 00       	jmp    8e4d <fail_code>

0000000000001700 <node20>:
    1700:	48 8d 05 c9 99 00 00 	lea    rax,[rip+0x99c9]        # b0d0 <__TMC_END__>
    1707:	c6 04 18 5f          	mov    BYTE PTR [rax+rbx*1],0x5f
    170b:	48 ff c3             	inc    rbx
    170e:	48 8d 3d fb 98 00 00 	lea    rdi,[rip+0x98fb]        # b010 <scanf_format>
    1715:	48 89 e6             	mov    rsi,rsp
    1718:	31 c0                	xor    eax,eax
    171a:	ff 15 b0 98 00 00    	call   QWORD PTR [rip+0x98b0]        # afd0 <scanf@GLIBC_2.2.5>
    1720:	48 8b 04 24          	mov    rax,QWORD PTR [rsp]
    1724:	48 3d d5 00 00 00    	cmp    rax,0xd5
    172a:	0f 84 b9 34 00 00    	je     4be9 <node213>
    1730:	48 83 f8 5c          	cmp    rax,0x5c
    1734:	0f 84 e2 11 00 00    	je     291c <node92>
    173a:	48 83 f8 1c          	cmp    rax,0x1c
    173e:	0f 84 b6 01 00 00    	je     18fa <node28>
    1744:	48 83 f8 39          	cmp    rax,0x39
    1748:	0f 84 21 09 00 00    	je     206f <node57>
    174e:	e9 fa 76 00 00       	jmp    8e4d <fail_code>

0000000000001753 <node21>:
    1753:	48 8d 05 76 99 00 00 	lea    rax,[rip+0x9976]        # b0d0 <__TMC_END__>
    175a:	c6 04 18 7a          	mov    BYTE PTR [rax+rbx*1],0x7a
    175e:	48 ff c3             	inc    rbx
    1761:	48 8d 3d a8 98 00 00 	lea    rdi,[rip+0x98a8]        # b010 <scanf_format>
    1768:	48 89 e6             	mov    rsi,rsp
    176b:	31 c0                	xor    eax,eax
    176d:	ff 15 5d 98 00 00    	call   QWORD PTR [rip+0x985d]        # afd0 <scanf@GLIBC_2.2.5>
    1773:	48 8b 04 24          	mov    rax,QWORD PTR [rsp]
    1777:	48 83 f8 06          	cmp    rax,0x6
    177b:	0f 84 83 fb ff ff    	je     1304 <node6>
    1781:	48 3d 2a 01 00 00    	cmp    rax,0x12a
    1787:	0f 84 f7 4d 00 00    	je     6584 <node298>
    178d:	48 83 f8 43          	cmp    rax,0x43
    1791:	0f 84 98 0b 00 00    	je     232f <node67>
    1797:	e9 b1 76 00 00       	jmp    8e4d <fail_code>

000000000000179c <node22>:
    179c:	48 8d 05 2d 99 00 00 	lea    rax,[rip+0x992d]        # b0d0 <__TMC_END__>
    17a3:	c6 04 18 31          	mov    BYTE PTR [rax+rbx*1],0x31
    17a7:	48 ff c3             	inc    rbx
    17aa:	48 8d 3d 5f 98 00 00 	lea    rdi,[rip+0x985f]        # b010 <scanf_format>
    17b1:	48 89 e6             	mov    rsi,rsp
    17b4:	31 c0                	xor    eax,eax
    17b6:	ff 15 14 98 00 00    	call   QWORD PTR [rip+0x9814]        # afd0 <scanf@GLIBC_2.2.5>
    17bc:	48 8b 04 24          	mov    rax,QWORD PTR [rsp]
    17c0:	48 3d 1f 01 00 00    	cmp    rax,0x11f
    17c6:	0f 84 bd 4a 00 00    	je     6289 <node287>
    17cc:	e9 7c 76 00 00       	jmp    8e4d <fail_code>

00000000000017d1 <node23>:
    17d1:	48 8d 05 f8 98 00 00 	lea    rax,[rip+0x98f8]        # b0d0 <__TMC_END__>
    17d8:	c6 04 18 63          	mov    BYTE PTR [rax+rbx*1],0x63
    17dc:	48 ff c3             	inc    rbx
    17df:	48 8d 3d 2a 98 00 00 	lea    rdi,[rip+0x982a]        # b010 <scanf_format>
    17e6:	48 89 e6             	mov    rsi,rsp
    17e9:	31 c0                	xor    eax,eax
    17eb:	ff 15 df 97 00 00    	call   QWORD PTR [rip+0x97df]        # afd0 <scanf@GLIBC_2.2.5>
    17f1:	48 8b 04 24          	mov    rax,QWORD PTR [rsp]
    17f5:	48 3d a5 00 00 00    	cmp    rax,0xa5
    17fb:	0f 84 fe 25 00 00    	je     3dff <node165>
    1801:	48 3d 31 01 00 00    	cmp    rax,0x131
    1807:	0f 84 ea 4e 00 00    	je     66f7 <node305>
    180d:	e9 3b 76 00 00       	jmp    8e4d <fail_code>

0000000000001812 <node24>:
    1812:	48 8d 05 b7 98 00 00 	lea    rax,[rip+0x98b7]        # b0d0 <__TMC_END__>
    1819:	c6 04 18 09          	mov    BYTE PTR [rax+rbx*1],0x9
    181d:	48 ff c3             	inc    rbx
    1820:	48 8d 3d e9 97 00 00 	lea    rdi,[rip+0x97e9]        # b010 <scanf_format>
    1827:	48 89 e6             	mov    rsi,rsp
    182a:	31 c0                	xor    eax,eax
    182c:	ff 15 9e 97 00 00    	call   QWORD PTR [rip+0x979e]        # afd0 <scanf@GLIBC_2.2.5>
    1832:	48 8b 04 24          	mov    rax,QWORD PTR [rsp]
    1836:	48 83 f8 52          	cmp    rax,0x52
    183a:	0f 84 64 0e 00 00    	je     26a4 <node82>
    1840:	48 3d 52 01 00 00    	cmp    rax,0x152
    1846:	0f 84 b6 57 00 00    	je     7002 <node338>
    184c:	48 83 f8 08          	cmp    rax,0x8
    1850:	0f 84 52 fb ff ff    	je     13a8 <node8>
    1856:	48 3d 8f 00 00 00    	cmp    rax,0x8f
    185c:	0f 84 95 1e 00 00    	je     36f7 <node143>
    1862:	48 3d 95 00 00 00    	cmp    rax,0x95
    1868:	0f 84 9b 20 00 00    	je     3909 <node149>
    186e:	48 3d b9 00 00 00    	cmp    rax,0xb9
    1874:	0f 84 b3 2a 00 00    	je     432d <node185>
    187a:	e9 ce 75 00 00       	jmp    8e4d <fail_code>

000000000000187f <node25>:
    187f:	48 8d 05 4a 98 00 00 	lea    rax,[rip+0x984a]        # b0d0 <__TMC_END__>
    1886:	c6 04 18 52          	mov    BYTE PTR [rax+rbx*1],0x52
    188a:	48 ff c3             	inc    rbx
    188d:	48 8d 3d 7c 97 00 00 	lea    rdi,[rip+0x977c]        # b010 <scanf_format>
    1894:	48 89 e6             	mov    rsi,rsp
    1897:	31 c0                	xor    eax,eax
    1899:	ff 15 31 97 00 00    	call   QWORD PTR [rip+0x9731]        # afd0 <scanf@GLIBC_2.2.5>
    189f:	48 8b 04 24          	mov    rax,QWORD PTR [rsp]
    18a3:	48 83 f8 29          	cmp    rax,0x29
    18a7:	0f 84 4a 04 00 00    	je     1cf7 <node41>
    18ad:	e9 9b 75 00 00       	jmp    8e4d <fail_code>

00000000000018b2 <node26>:
    18b2:	48 8d 05 17 98 00 00 	lea    rax,[rip+0x9817]        # b0d0 <__TMC_END__>
    18b9:	c6 04 18 25          	mov    BYTE PTR [rax+rbx*1],0x25
    18bd:	48 ff c3             	inc    rbx
    18c0:	e9 88 75 00 00       	jmp    8e4d <fail_code>

00000000000018c5 <node27>:
    18c5:	48 8d 05 04 98 00 00 	lea    rax,[rip+0x9804]        # b0d0 <__TMC_END__>
    18cc:	c6 04 18 61          	mov    BYTE PTR [rax+rbx*1],0x61
    18d0:	48 ff c3             	inc    rbx
    18d3:	48 8d 3d 36 97 00 00 	lea    rdi,[rip+0x9736]        # b010 <scanf_format>
    18da:	48 89 e6             	mov    rsi,rsp
    18dd:	31 c0                	xor    eax,eax
    18df:	ff 15 eb 96 00 00    	call   QWORD PTR [rip+0x96eb]        # afd0 <scanf@GLIBC_2.2.5>
    18e5:	48 8b 04 24          	mov    rax,QWORD PTR [rsp]
    18e9:	48 3d ab 00 00 00    	cmp    rax,0xab
    18ef:	0f 84 bc 26 00 00    	je     3fb1 <node171>
    18f5:	e9 53 75 00 00       	jmp    8e4d <fail_code>

00000000000018fa <node28>:
    18fa:	48 8d 05 cf 97 00 00 	lea    rax,[rip+0x97cf]        # b0d0 <__TMC_END__>
    1901:	c6 04 18 41          	mov    BYTE PTR [rax+rbx*1],0x41
    1905:	48 ff c3             	inc    rbx
    1908:	48 8d 3d 01 97 00 00 	lea    rdi,[rip+0x9701]        # b010 <scanf_format>
    190f:	48 89 e6             	mov    rsi,rsp
    1912:	31 c0                	xor    eax,eax
    1914:	ff 15 b6 96 00 00    	call   QWORD PTR [rip+0x96b6]        # afd0 <scanf@GLIBC_2.2.5>
    191a:	48 8b 04 24          	mov    rax,QWORD PTR [rsp]
    191e:	48 3d 74 01 00 00    	cmp    rax,0x174
    1924:	0f 84 98 60 00 00    	je     79c2 <node372>
    192a:	48 3d 8c 01 00 00    	cmp    rax,0x18c
    1930:	0f 84 c0 66 00 00    	je     7ff6 <node396>
    1936:	48 3d f8 00 00 00    	cmp    rax,0xf8
    193c:	0f 84 ae 3c 00 00    	je     55f0 <node248>
    1942:	48 3d 9d 01 00 00    	cmp    rax,0x19d
    1948:	0f 84 37 6b 00 00    	je     8485 <node413>
    194e:	48 3d 63 01 00 00    	cmp    rax,0x163
    1954:	0f 84 39 5b 00 00    	je     7493 <node355>
    195a:	48 3d 49 01 00 00    	cmp    rax,0x149
    1960:	0f 84 7f 54 00 00    	je     6de5 <node329>
    1966:	e9 e2 74 00 00       	jmp    8e4d <fail_code>

000000000000196b <node29>:
    196b:	48 8d 05 5e 97 00 00 	lea    rax,[rip+0x975e]        # b0d0 <__TMC_END__>
    1972:	c6 04 18 5b          	mov    BYTE PTR [rax+rbx*1],0x5b
    1976:	48 ff c3             	inc    rbx
    1979:	48 8d 3d 90 96 00 00 	lea    rdi,[rip+0x9690]        # b010 <scanf_format>
    1980:	48 89 e6             	mov    rsi,rsp
    1983:	31 c0                	xor    eax,eax
    1985:	ff 15 45 96 00 00    	call   QWORD PTR [rip+0x9645]        # afd0 <scanf@GLIBC_2.2.5>
    198b:	48 8b 04 24          	mov    rax,QWORD PTR [rsp]
    198f:	48 83 f8 4b          	cmp    rax,0x4b
    1993:	0f 84 a0 0b 00 00    	je     2539 <node75>
    1999:	e9 af 74 00 00       	jmp    8e4d <fail_code>

000000000000199e <node30>:
    199e:	48 8d 05 2b 97 00 00 	lea    rax,[rip+0x972b]        # b0d0 <__TMC_END__>
    19a5:	c6 04 18 25          	mov    BYTE PTR [rax+rbx*1],0x25
    19a9:	48 ff c3             	inc    rbx
    19ac:	e9 9c 74 00 00       	jmp    8e4d <fail_code>

00000000000019b1 <node31>:
    19b1:	48 8d 05 18 97 00 00 	lea    rax,[rip+0x9718]        # b0d0 <__TMC_END__>
    19b8:	c6 04 18 2d          	mov    BYTE PTR [rax+rbx*1],0x2d
    19bc:	48 ff c3             	inc    rbx
    19bf:	48 8d 3d 4a 96 00 00 	lea    rdi,[rip+0x964a]        # b010 <scanf_format>
    19c6:	48 89 e6             	mov    rsi,rsp
    19c9:	31 c0                	xor    eax,eax
    19cb:	ff 15 ff 95 00 00    	call   QWORD PTR [rip+0x95ff]        # afd0 <scanf@GLIBC_2.2.5>
    19d1:	48 8b 04 24          	mov    rax,QWORD PTR [rsp]
    19d5:	48 83 f8 17          	cmp    rax,0x17
    19d9:	0f 84 f2 fd ff ff    	je     17d1 <node23>
    19df:	48 3d 9e 00 00 00    	cmp    rax,0x9e
    19e5:	0f 84 93 22 00 00    	je     3c7e <node158>
    19eb:	48 83 f8 58          	cmp    rax,0x58
    19ef:	0f 84 79 0e 00 00    	je     286e <node88>
    19f5:	48 3d 1e 01 00 00    	cmp    rax,0x11e
    19fb:	0f 84 0b 48 00 00    	je     620c <node286>
    1a01:	e9 47 74 00 00       	jmp    8e4d <fail_code>

0000000000001a06 <node32>:
    1a06:	48 8d 05 c3 96 00 00 	lea    rax,[rip+0x96c3]        # b0d0 <__TMC_END__>
    1a0d:	c6 04 18 7a          	mov    BYTE PTR [rax+rbx*1],0x7a
    1a11:	48 ff c3             	inc    rbx
    1a14:	48 8d 3d f5 95 00 00 	lea    rdi,[rip+0x95f5]        # b010 <scanf_format>
    1a1b:	48 89 e6             	mov    rsi,rsp
    1a1e:	31 c0                	xor    eax,eax
    1a20:	ff 15 aa 95 00 00    	call   QWORD PTR [rip+0x95aa]        # afd0 <scanf@GLIBC_2.2.5>
    1a26:	48 8b 04 24          	mov    rax,QWORD PTR [rsp]
    1a2a:	48 83 f8 1b          	cmp    rax,0x1b
    1a2e:	0f 84 91 fe ff ff    	je     18c5 <node27>
    1a34:	48 3d 64 01 00 00    	cmp    rax,0x164
    1a3a:	0f 84 ac 5a 00 00    	je     74ec <node356>
    1a40:	48 3d b4 00 00 00    	cmp    rax,0xb4
    1a46:	0f 84 c6 27 00 00    	je     4212 <node180>
    1a4c:	48 3d 8e 00 00 00    	cmp    rax,0x8e
    1a52:	0f 84 54 1c 00 00    	je     36ac <node142>
    1a58:	48 3d c0 00 00 00    	cmp    rax,0xc0
    1a5e:	0f 84 b4 2a 00 00    	je     4518 <node192>
    1a64:	48 3d b0 00 00 00    	cmp    rax,0xb0
    1a6a:	0f 84 8e 26 00 00    	je     40fe <node176>
    1a70:	48 83 f8 2e          	cmp    rax,0x2e
    1a74:	0f 84 3a 03 00 00    	je     1db4 <node46>
    1a7a:	48 3d b7 00 00 00    	cmp    rax,0xb7
    1a80:	0f 84 33 28 00 00    	je     42b9 <node183>
    1a86:	48 3d 19 01 00 00    	cmp    rax,0x119
    1a8c:	0f 84 09 46 00 00    	je     609b <node281>
    1a92:	48 3d 21 01 00 00    	cmp    rax,0x121
    1a98:	0f 84 73 48 00 00    	je     6311 <node289>
    1a9e:	48 83 f8 69          	cmp    rax,0x69
    1aa2:	0f 84 8d 11 00 00    	je     2c35 <node105>
    1aa8:	e9 a0 73 00 00       	jmp    8e4d <fail_code>

0000000000001aad <node33>:
    1aad:	48 8d 05 1c 96 00 00 	lea    rax,[rip+0x961c]        # b0d0 <__TMC_END__>
    1ab4:	c6 04 18 56          	mov    BYTE PTR [rax+rbx*1],0x56
    1ab8:	48 ff c3             	inc    rbx
    1abb:	48 8d 3d 4e 95 00 00 	lea    rdi,[rip+0x954e]        # b010 <scanf_format>
    1ac2:	48 89 e6             	mov    rsi,rsp
    1ac5:	31 c0                	xor    eax,eax
    1ac7:	ff 15 03 95 00 00    	call   QWORD PTR [rip+0x9503]        # afd0 <scanf@GLIBC_2.2.5>
    1acd:	48 8b 04 24          	mov    rax,QWORD PTR [rsp]
    1ad1:	48 83 f8 66          	cmp    rax,0x66
    1ad5:	0f 84 89 10 00 00    	je     2b64 <node102>
    1adb:	e9 6d 73 00 00       	jmp    8e4d <fail_code>

0000000000001ae0 <node34>:
    1ae0:	48 8d 05 e9 95 00 00 	lea    rax,[rip+0x95e9]        # b0d0 <__TMC_END__>
    1ae7:	c6 04 18 28          	mov    BYTE PTR [rax+rbx*1],0x28
    1aeb:	48 ff c3             	inc    rbx
    1aee:	48 8d 3d 1b 95 00 00 	lea    rdi,[rip+0x951b]        # b010 <scanf_format>
    1af5:	48 89 e6             	mov    rsi,rsp
    1af8:	31 c0                	xor    eax,eax
    1afa:	ff 15 d0 94 00 00    	call   QWORD PTR [rip+0x94d0]        # afd0 <scanf@GLIBC_2.2.5>
    1b00:	48 8b 04 24          	mov    rax,QWORD PTR [rsp]
    1b04:	48 3d 0e 01 00 00    	cmp    rax,0x10e
    1b0a:	0f 84 b4 41 00 00    	je     5cc4 <node270>
    1b10:	48 83 f8 6c          	cmp    rax,0x6c
    1b14:	0f 84 98 11 00 00    	je     2cb2 <node108>
    1b1a:	48 83 f8 50          	cmp    rax,0x50
    1b1e:	0f 84 38 0b 00 00    	je     265c <node80>
    1b24:	e9 24 73 00 00       	jmp    8e4d <fail_code>

0000000000001b29 <node35>:
    1b29:	48 8d 05 a0 95 00 00 	lea    rax,[rip+0x95a0]        # b0d0 <__TMC_END__>
    1b30:	c6 04 18 3a          	mov    BYTE PTR [rax+rbx*1],0x3a
    1b34:	48 ff c3             	inc    rbx
    1b37:	48 8d 3d d2 94 00 00 	lea    rdi,[rip+0x94d2]        # b010 <scanf_format>
    1b3e:	48 89 e6             	mov    rsi,rsp
    1b41:	31 c0                	xor    eax,eax
    1b43:	ff 15 87 94 00 00    	call   QWORD PTR [rip+0x9487]        # afd0 <scanf@GLIBC_2.2.5>
    1b49:	48 8b 04 24          	mov    rax,QWORD PTR [rsp]
    1b4d:	48 83 f8 72          	cmp    rax,0x72
    1b51:	0f 84 d3 12 00 00    	je     2e2a <node114>
    1b57:	48 3d 26 01 00 00    	cmp    rax,0x126
    1b5d:	0f 84 e7 48 00 00    	je     644a <node294>
    1b63:	48 3d a2 00 00 00    	cmp    rax,0xa2
    1b69:	0f 84 f9 21 00 00    	je     3d68 <node162>
    1b6f:	48 3d 9c 00 00 00    	cmp    rax,0x9c
    1b75:	0f 84 49 20 00 00    	je     3bc4 <node156>
    1b7b:	48 3d d2 00 00 00    	cmp    rax,0xd2
    1b81:	0f 84 6b 2f 00 00    	je     4af2 <node210>
    1b87:	48 3d b2 00 00 00    	cmp    rax,0xb2
    1b8d:	0f 84 f3 25 00 00    	je     4186 <node178>
    1b93:	48 83 f8 49          	cmp    rax,0x49
    1b97:	0f 84 fc 08 00 00    	je     2499 <node73>
    1b9d:	48 3d 87 00 00 00    	cmp    rax,0x87
    1ba3:	0f 84 d0 18 00 00    	je     3479 <node135>
    1ba9:	48 83 f8 3d          	cmp    rax,0x3d
    1bad:	0f 84 2e 06 00 00    	je     21e1 <node61>
    1bb3:	48 3d 53 01 00 00    	cmp    rax,0x153
    1bb9:	0f 84 b0 54 00 00    	je     706f <node339>
    1bbf:	e9 89 72 00 00       	jmp    8e4d <fail_code>

0000000000001bc4 <node36>:
    1bc4:	48 8d 05 05 95 00 00 	lea    rax,[rip+0x9505]        # b0d0 <__TMC_END__>
    1bcb:	c6 04 18 64          	mov    BYTE PTR [rax+rbx*1],0x64
    1bcf:	48 ff c3             	inc    rbx
    1bd2:	48 8d 3d 37 94 00 00 	lea    rdi,[rip+0x9437]        # b010 <scanf_format>
    1bd9:	48 89 e6             	mov    rsi,rsp
    1bdc:	31 c0                	xor    eax,eax
    1bde:	ff 15 ec 93 00 00    	call   QWORD PTR [rip+0x93ec]        # afd0 <scanf@GLIBC_2.2.5>
    1be4:	48 8b 04 24          	mov    rax,QWORD PTR [rsp]
    1be8:	48 83 f8 13          	cmp    rax,0x13
    1bec:	0f 84 db fa ff ff    	je     16cd <node19>
    1bf2:	48 3d de 00 00 00    	cmp    rax,0xde
    1bf8:	0f 84 c0 32 00 00    	je     4ebe <node222>
    1bfe:	e9 4a 72 00 00       	jmp    8e4d <fail_code>

0000000000001c03 <node37>:
    1c03:	48 8d 05 c6 94 00 00 	lea    rax,[rip+0x94c6]        # b0d0 <__TMC_END__>
    1c0a:	c6 04 18 57          	mov    BYTE PTR [rax+rbx*1],0x57
    1c0e:	48 ff c3             	inc    rbx
    1c11:	48 8d 3d f8 93 00 00 	lea    rdi,[rip+0x93f8]        # b010 <scanf_format>
    1c18:	48 89 e6             	mov    rsi,rsp
    1c1b:	31 c0                	xor    eax,eax
    1c1d:	ff 15 ad 93 00 00    	call   QWORD PTR [rip+0x93ad]        # afd0 <scanf@GLIBC_2.2.5>
    1c23:	48 8b 04 24          	mov    rax,QWORD PTR [rsp]
    1c27:	48 3d a3 01 00 00    	cmp    rax,0x1a3
    1c2d:	0f 84 e8 69 00 00    	je     861b <node419>
    1c33:	48 3d 47 01 00 00    	cmp    rax,0x147
    1c39:	0f 84 5e 51 00 00    	je     6d9d <node327>
    1c3f:	48 83 f8 5e          	cmp    rax,0x5e
    1c43:	0f 84 97 0d 00 00    	je     29e0 <node94>
    1c49:	e9 ff 71 00 00       	jmp    8e4d <fail_code>

0000000000001c4e <node38>:
    1c4e:	48 8d 05 7b 94 00 00 	lea    rax,[rip+0x947b]        # b0d0 <__TMC_END__>
    1c55:	c6 04 18 7c          	mov    BYTE PTR [rax+rbx*1],0x7c
    1c59:	48 ff c3             	inc    rbx
    1c5c:	48 8d 3d ad 93 00 00 	lea    rdi,[rip+0x93ad]        # b010 <scanf_format>
    1c63:	48 89 e6             	mov    rsi,rsp
    1c66:	31 c0                	xor    eax,eax
    1c68:	ff 15 62 93 00 00    	call   QWORD PTR [rip+0x9362]        # afd0 <scanf@GLIBC_2.2.5>
    1c6e:	48 8b 04 24          	mov    rax,QWORD PTR [rsp]
    1c72:	48 3d 74 01 00 00    	cmp    rax,0x174
    1c78:	0f 84 44 5d 00 00    	je     79c2 <node372>
    1c7e:	48 3d 14 01 00 00    	cmp    rax,0x114
    1c84:	0f 84 5a 42 00 00    	je     5ee4 <node276>
    1c8a:	48 3d 81 01 00 00    	cmp    rax,0x181
    1c90:	0f 84 51 60 00 00    	je     7ce7 <node385>
    1c96:	e9 b2 71 00 00       	jmp    8e4d <fail_code>

0000000000001c9b <node39>:
    1c9b:	48 8d 05 2e 94 00 00 	lea    rax,[rip+0x942e]        # b0d0 <__TMC_END__>
    1ca2:	c6 04 18 60          	mov    BYTE PTR [rax+rbx*1],0x60
    1ca6:	48 ff c3             	inc    rbx
    1ca9:	48 8d 3d 60 93 00 00 	lea    rdi,[rip+0x9360]        # b010 <scanf_format>
    1cb0:	48 89 e6             	mov    rsi,rsp
    1cb3:	31 c0                	xor    eax,eax
    1cb5:	ff 15 15 93 00 00    	call   QWORD PTR [rip+0x9315]        # afd0 <scanf@GLIBC_2.2.5>
    1cbb:	48 8b 04 24          	mov    rax,QWORD PTR [rsp]
    1cbf:	48 3d d7 00 00 00    	cmp    rax,0xd7
    1cc5:	0f 84 da 2f 00 00    	je     4ca5 <node215>
    1ccb:	48 83 f8 2d          	cmp    rax,0x2d
    1ccf:	0f 84 cc 00 00 00    	je     1da1 <node45>
    1cd5:	48 83 f8 7d          	cmp    rax,0x7d
    1cd9:	0f 84 cc 14 00 00    	je     31ab <node125>
    1cdf:	e9 69 71 00 00       	jmp    8e4d <fail_code>

0000000000001ce4 <node40>:
    1ce4:	48 8d 05 e5 93 00 00 	lea    rax,[rip+0x93e5]        # b0d0 <__TMC_END__>
    1ceb:	c6 04 18 54          	mov    BYTE PTR [rax+rbx*1],0x54
    1cef:	48 ff c3             	inc    rbx
    1cf2:	e9 56 71 00 00       	jmp    8e4d <fail_code>

0000000000001cf7 <node41>:
    1cf7:	48 8d 05 d2 93 00 00 	lea    rax,[rip+0x93d2]        # b0d0 <__TMC_END__>
    1cfe:	c6 04 18 3e          	mov    BYTE PTR [rax+rbx*1],0x3e
    1d02:	48 ff c3             	inc    rbx
    1d05:	48 8d 3d 04 93 00 00 	lea    rdi,[rip+0x9304]        # b010 <scanf_format>
    1d0c:	48 89 e6             	mov    rsi,rsp
    1d0f:	31 c0                	xor    eax,eax
    1d11:	ff 15 b9 92 00 00    	call   QWORD PTR [rip+0x92b9]        # afd0 <scanf@GLIBC_2.2.5>
    1d17:	48 8b 04 24          	mov    rax,QWORD PTR [rsp]
    1d1b:	48 3d 5f 01 00 00    	cmp    rax,0x15f
    1d21:	0f 84 56 56 00 00    	je     737d <node351>
    1d27:	48 3d 54 01 00 00    	cmp    rax,0x154
    1d2d:	0f 84 9f 53 00 00    	je     70d2 <node340>
    1d33:	e9 15 71 00 00       	jmp    8e4d <fail_code>

0000000000001d38 <node42>:
    1d38:	48 8d 05 91 93 00 00 	lea    rax,[rip+0x9391]        # b0d0 <__TMC_END__>
    1d3f:	c6 04 18 7a          	mov    BYTE PTR [rax+rbx*1],0x7a
    1d43:	48 ff c3             	inc    rbx
    1d46:	e9 02 71 00 00       	jmp    8e4d <fail_code>

0000000000001d4b <node43>:
    1d4b:	48 8d 05 7e 93 00 00 	lea    rax,[rip+0x937e]        # b0d0 <__TMC_END__>
    1d52:	c6 04 18 36          	mov    BYTE PTR [rax+rbx*1],0x36
    1d56:	48 ff c3             	inc    rbx
    1d59:	e9 ef 70 00 00       	jmp    8e4d <fail_code>

0000000000001d5e <node44>:
    1d5e:	48 8d 05 6b 93 00 00 	lea    rax,[rip+0x936b]        # b0d0 <__TMC_END__>
    1d65:	c6 04 18 41          	mov    BYTE PTR [rax+rbx*1],0x41
    1d69:	48 ff c3             	inc    rbx
    1d6c:	48 8d 3d 9d 92 00 00 	lea    rdi,[rip+0x929d]        # b010 <scanf_format>
    1d73:	48 89 e6             	mov    rsi,rsp
    1d76:	31 c0                	xor    eax,eax
    1d78:	ff 15 52 92 00 00    	call   QWORD PTR [rip+0x9252]        # afd0 <scanf@GLIBC_2.2.5>
    1d7e:	48 8b 04 24          	mov    rax,QWORD PTR [rsp]
    1d82:	48 83 f8 4e          	cmp    rax,0x4e
    1d86:	0f 84 4a 08 00 00    	je     25d6 <node78>
    1d8c:	48 83 f8 2d          	cmp    rax,0x2d
    1d90:	74 0f                	je     1da1 <node45>
    1d92:	48 83 f8 70          	cmp    rax,0x70
    1d96:	0f 84 3c 10 00 00    	je     2dd8 <node112>
    1d9c:	e9 ac 70 00 00       	jmp    8e4d <fail_code>

0000000000001da1 <node45>:
    1da1:	48 8d 05 28 93 00 00 	lea    rax,[rip+0x9328]        # b0d0 <__TMC_END__>
    1da8:	c6 04 18 2e          	mov    BYTE PTR [rax+rbx*1],0x2e
    1dac:	48 ff c3             	inc    rbx
    1daf:	e9 99 70 00 00       	jmp    8e4d <fail_code>

0000000000001db4 <node46>:
    1db4:	48 8d 05 15 93 00 00 	lea    rax,[rip+0x9315]        # b0d0 <__TMC_END__>
    1dbb:	c6 04 18 7d          	mov    BYTE PTR [rax+rbx*1],0x7d
    1dbf:	48 ff c3             	inc    rbx
    1dc2:	48 8d 3d 47 92 00 00 	lea    rdi,[rip+0x9247]        # b010 <scanf_format>
    1dc9:	48 89 e6             	mov    rsi,rsp
    1dcc:	31 c0                	xor    eax,eax
    1dce:	ff 15 fc 91 00 00    	call   QWORD PTR [rip+0x91fc]        # afd0 <scanf@GLIBC_2.2.5>
    1dd4:	48 8b 04 24          	mov    rax,QWORD PTR [rsp]
    1dd8:	48 83 f8 28          	cmp    rax,0x28
    1ddc:	0f 84 02 ff ff ff    	je     1ce4 <node40>
    1de2:	48 83 f8 33          	cmp    rax,0x33
    1de6:	0f 84 17 01 00 00    	je     1f03 <node51>
    1dec:	48 83 f8 09          	cmp    rax,0x9
    1df0:	0f 84 f3 f5 ff ff    	je     13e9 <node9>
    1df6:	e9 52 70 00 00       	jmp    8e4d <fail_code>

0000000000001dfb <node47>:
    1dfb:	48 8d 05 ce 92 00 00 	lea    rax,[rip+0x92ce]        # b0d0 <__TMC_END__>
    1e02:	c6 04 18 70          	mov    BYTE PTR [rax+rbx*1],0x70
    1e06:	48 ff c3             	inc    rbx
    1e09:	48 8d 3d 00 92 00 00 	lea    rdi,[rip+0x9200]        # b010 <scanf_format>
    1e10:	48 89 e6             	mov    rsi,rsp
    1e13:	31 c0                	xor    eax,eax
    1e15:	ff 15 b5 91 00 00    	call   QWORD PTR [rip+0x91b5]        # afd0 <scanf@GLIBC_2.2.5>
    1e1b:	48 8b 04 24          	mov    rax,QWORD PTR [rsp]
    1e1f:	48 3d 48 01 00 00    	cmp    rax,0x148
    1e25:	0f 84 85 4f 00 00    	je     6db0 <node328>
    1e2b:	e9 1d 70 00 00       	jmp    8e4d <fail_code>

0000000000001e30 <node48>:
    1e30:	48 8d 05 99 92 00 00 	lea    rax,[rip+0x9299]        # b0d0 <__TMC_END__>
    1e37:	c6 04 18 43          	mov    BYTE PTR [rax+rbx*1],0x43
    1e3b:	48 ff c3             	inc    rbx
    1e3e:	48 8d 3d cb 91 00 00 	lea    rdi,[rip+0x91cb]        # b010 <scanf_format>
    1e45:	48 89 e6             	mov    rsi,rsp
    1e48:	31 c0                	xor    eax,eax
    1e4a:	ff 15 80 91 00 00    	call   QWORD PTR [rip+0x9180]        # afd0 <scanf@GLIBC_2.2.5>
    1e50:	48 8b 04 24          	mov    rax,QWORD PTR [rsp]
    1e54:	48 3d 92 01 00 00    	cmp    rax,0x192
    1e5a:	0f 84 4e 63 00 00    	je     81ae <node402>
    1e60:	48 83 f8 5e          	cmp    rax,0x5e
    1e64:	0f 84 76 0b 00 00    	je     29e0 <node94>
    1e6a:	e9 de 6f 00 00       	jmp    8e4d <fail_code>

0000000000001e6f <node49>:
    1e6f:	48 8d 05 5a 92 00 00 	lea    rax,[rip+0x925a]        # b0d0 <__TMC_END__>
    1e76:	c6 04 18 31          	mov    BYTE PTR [rax+rbx*1],0x31
    1e7a:	48 ff c3             	inc    rbx
    1e7d:	48 8d 3d 8c 91 00 00 	lea    rdi,[rip+0x918c]        # b010 <scanf_format>
    1e84:	48 89 e6             	mov    rsi,rsp
    1e87:	31 c0                	xor    eax,eax
    1e89:	ff 15 41 91 00 00    	call   QWORD PTR [rip+0x9141]        # afd0 <scanf@GLIBC_2.2.5>
    1e8f:	48 8b 04 24          	mov    rax,QWORD PTR [rsp]
    1e93:	48 83 f8 7c          	cmp    rax,0x7c
    1e97:	0f 84 ab 12 00 00    	je     3148 <node124>
    1e9d:	48 3d 3c 01 00 00    	cmp    rax,0x13c
    1ea3:	0f 84 79 4b 00 00    	je     6a22 <node316>
    1ea9:	48 83 f8 79          	cmp    rax,0x79
    1ead:	0f 84 be 11 00 00    	je     3071 <node121>
    1eb3:	48 3d 27 01 00 00    	cmp    rax,0x127
    1eb9:	0f 84 e0 45 00 00    	je     649f <node295>
    1ebf:	48 83 f8 0d          	cmp    rax,0xd
    1ec3:	0f 84 2a f6 ff ff    	je     14f3 <node13>
    1ec9:	e9 7f 6f 00 00       	jmp    8e4d <fail_code>

0000000000001ece <node50>:
    1ece:	48 8d 05 fb 91 00 00 	lea    rax,[rip+0x91fb]        # b0d0 <__TMC_END__>
    1ed5:	c6 04 18 28          	mov    BYTE PTR [rax+rbx*1],0x28
    1ed9:	48 ff c3             	inc    rbx
    1edc:	48 8d 3d 2d 91 00 00 	lea    rdi,[rip+0x912d]        # b010 <scanf_format>
    1ee3:	48 89 e6             	mov    rsi,rsp
    1ee6:	31 c0                	xor    eax,eax
    1ee8:	ff 15 e2 90 00 00    	call   QWORD PTR [rip+0x90e2]        # afd0 <scanf@GLIBC_2.2.5>
    1eee:	48 8b 04 24          	mov    rax,QWORD PTR [rsp]
    1ef2:	48 3d 73 01 00 00    	cmp    rax,0x173
    1ef8:	0f 84 b1 5a 00 00    	je     79af <node371>
    1efe:	e9 4a 6f 00 00       	jmp    8e4d <fail_code>

0000000000001f03 <node51>:
    1f03:	48 8d 05 c6 91 00 00 	lea    rax,[rip+0x91c6]        # b0d0 <__TMC_END__>
    1f0a:	c6 04 18 3d          	mov    BYTE PTR [rax+rbx*1],0x3d
    1f0e:	48 ff c3             	inc    rbx
    1f11:	48 8d 3d f8 90 00 00 	lea    rdi,[rip+0x90f8]        # b010 <scanf_format>
    1f18:	48 89 e6             	mov    rsi,rsp
    1f1b:	31 c0                	xor    eax,eax
    1f1d:	ff 15 ad 90 00 00    	call   QWORD PTR [rip+0x90ad]        # afd0 <scanf@GLIBC_2.2.5>
    1f23:	48 8b 04 24          	mov    rax,QWORD PTR [rsp]
    1f27:	48 3d 1d 01 00 00    	cmp    rax,0x11d
    1f2d:	0f 84 9a 42 00 00    	je     61cd <node285>
    1f33:	48 83 f8 5f          	cmp    rax,0x5f
    1f37:	0f 84 b6 0a 00 00    	je     29f3 <node95>
    1f3d:	e9 0b 6f 00 00       	jmp    8e4d <fail_code>

0000000000001f42 <node52>:
    1f42:	48 8d 05 87 91 00 00 	lea    rax,[rip+0x9187]        # b0d0 <__TMC_END__>
    1f49:	c6 04 18 0a          	mov    BYTE PTR [rax+rbx*1],0xa
    1f4d:	48 ff c3             	inc    rbx
    1f50:	48 8d 3d b9 90 00 00 	lea    rdi,[rip+0x90b9]        # b010 <scanf_format>
    1f57:	48 89 e6             	mov    rsi,rsp
    1f5a:	31 c0                	xor    eax,eax
    1f5c:	ff 15 6e 90 00 00    	call   QWORD PTR [rip+0x906e]        # afd0 <scanf@GLIBC_2.2.5>
    1f62:	48 8b 04 24          	mov    rax,QWORD PTR [rsp]
    1f66:	48 3d a2 00 00 00    	cmp    rax,0xa2
    1f6c:	0f 84 f6 1d 00 00    	je     3d68 <node162>
    1f72:	e9 d6 6e 00 00       	jmp    8e4d <fail_code>

0000000000001f77 <node53>:
    1f77:	48 8d 05 52 91 00 00 	lea    rax,[rip+0x9152]        # b0d0 <__TMC_END__>
    1f7e:	c6 04 18 0c          	mov    BYTE PTR [rax+rbx*1],0xc
    1f82:	48 ff c3             	inc    rbx
    1f85:	48 8d 3d 84 90 00 00 	lea    rdi,[rip+0x9084]        # b010 <scanf_format>
    1f8c:	48 89 e6             	mov    rsi,rsp
    1f8f:	31 c0                	xor    eax,eax
    1f91:	ff 15 39 90 00 00    	call   QWORD PTR [rip+0x9039]        # afd0 <scanf@GLIBC_2.2.5>
    1f97:	48 8b 04 24          	mov    rax,QWORD PTR [rsp]
    1f9b:	48 3d a9 01 00 00    	cmp    rax,0x1a9
    1fa1:	0f 84 80 67 00 00    	je     8727 <node425>
    1fa7:	48 3d 21 01 00 00    	cmp    rax,0x121
    1fad:	0f 84 5e 43 00 00    	je     6311 <node289>
    1fb3:	e9 95 6e 00 00       	jmp    8e4d <fail_code>

0000000000001fb8 <node54>:
    1fb8:	48 8d 05 11 91 00 00 	lea    rax,[rip+0x9111]        # b0d0 <__TMC_END__>
    1fbf:	c6 04 18 77          	mov    BYTE PTR [rax+rbx*1],0x77
    1fc3:	48 ff c3             	inc    rbx
    1fc6:	48 8d 3d 43 90 00 00 	lea    rdi,[rip+0x9043]        # b010 <scanf_format>
    1fcd:	48 89 e6             	mov    rsi,rsp
    1fd0:	31 c0                	xor    eax,eax
    1fd2:	ff 15 f8 8f 00 00    	call   QWORD PTR [rip+0x8ff8]        # afd0 <scanf@GLIBC_2.2.5>
    1fd8:	48 8b 04 24          	mov    rax,QWORD PTR [rsp]
    1fdc:	48 3d 0e 01 00 00    	cmp    rax,0x10e
    1fe2:	0f 84 dc 3c 00 00    	je     5cc4 <node270>
    1fe8:	48 3d 31 01 00 00    	cmp    rax,0x131
    1fee:	0f 84 03 47 00 00    	je     66f7 <node305>
    1ff4:	48 3d 81 01 00 00    	cmp    rax,0x181
    1ffa:	0f 84 e7 5c 00 00    	je     7ce7 <node385>
    2000:	e9 48 6e 00 00       	jmp    8e4d <fail_code>

0000000000002005 <node55>:
    2005:	48 8d 05 c4 90 00 00 	lea    rax,[rip+0x90c4]        # b0d0 <__TMC_END__>
    200c:	c6 04 18 0d          	mov    BYTE PTR [rax+rbx*1],0xd
    2010:	48 ff c3             	inc    rbx
    2013:	e9 35 6e 00 00       	jmp    8e4d <fail_code>

0000000000002018 <node56>:
    2018:	48 8d 05 b1 90 00 00 	lea    rax,[rip+0x90b1]        # b0d0 <__TMC_END__>
    201f:	c6 04 18 50          	mov    BYTE PTR [rax+rbx*1],0x50
    2023:	48 ff c3             	inc    rbx
    2026:	48 8d 3d e3 8f 00 00 	lea    rdi,[rip+0x8fe3]        # b010 <scanf_format>
    202d:	48 89 e6             	mov    rsi,rsp
    2030:	31 c0                	xor    eax,eax
    2032:	ff 15 98 8f 00 00    	call   QWORD PTR [rip+0x8f98]        # afd0 <scanf@GLIBC_2.2.5>
    2038:	48 8b 04 24          	mov    rax,QWORD PTR [rsp]
    203c:	48 3d 1b 01 00 00    	cmp    rax,0x11b
    2042:	0f 84 05 41 00 00    	je     614d <node283>
    2048:	48 83 f8 01          	cmp    rax,0x1
    204c:	0f 84 43 f1 ff ff    	je     1195 <node1>
    2052:	48 3d a5 01 00 00    	cmp    rax,0x1a5
    2058:	0f 84 0f 66 00 00    	je     866d <node421>
    205e:	48 3d 6f 01 00 00    	cmp    rax,0x16f
    2064:	0f 84 31 58 00 00    	je     789b <node367>
    206a:	e9 de 6d 00 00       	jmp    8e4d <fail_code>

000000000000206f <node57>:
    206f:	48 8d 05 5a 90 00 00 	lea    rax,[rip+0x905a]        # b0d0 <__TMC_END__>
    2076:	c6 04 18 70          	mov    BYTE PTR [rax+rbx*1],0x70
    207a:	48 ff c3             	inc    rbx
    207d:	48 8d 3d 8c 8f 00 00 	lea    rdi,[rip+0x8f8c]        # b010 <scanf_format>
    2084:	48 89 e6             	mov    rsi,rsp
    2087:	31 c0                	xor    eax,eax
    2089:	ff 15 41 8f 00 00    	call   QWORD PTR [rip+0x8f41]        # afd0 <scanf@GLIBC_2.2.5>
    208f:	48 8b 04 24          	mov    rax,QWORD PTR [rsp]
    2093:	48 3d 42 01 00 00    	cmp    rax,0x142
    2099:	0f 84 b5 4b 00 00    	je     6c54 <node322>
    209f:	48 3d 0f 01 00 00    	cmp    rax,0x10f
    20a5:	0f 84 62 3c 00 00    	je     5d0d <node271>
    20ab:	48 3d 09 01 00 00    	cmp    rax,0x109
    20b1:	0f 84 3a 3a 00 00    	je     5af1 <node265>
    20b7:	e9 91 6d 00 00       	jmp    8e4d <fail_code>

00000000000020bc <node58>:
    20bc:	48 8d 05 0d 90 00 00 	lea    rax,[rip+0x900d]        # b0d0 <__TMC_END__>
    20c3:	c6 04 18 5a          	mov    BYTE PTR [rax+rbx*1],0x5a
    20c7:	48 ff c3             	inc    rbx
    20ca:	48 8d 3d 3f 8f 00 00 	lea    rdi,[rip+0x8f3f]        # b010 <scanf_format>
    20d1:	48 89 e6             	mov    rsi,rsp
    20d4:	31 c0                	xor    eax,eax
    20d6:	ff 15 f4 8e 00 00    	call   QWORD PTR [rip+0x8ef4]        # afd0 <scanf@GLIBC_2.2.5>
    20dc:	48 8b 04 24          	mov    rax,QWORD PTR [rsp]
    20e0:	48 3d 82 00 00 00    	cmp    rax,0x82
    20e6:	0f 84 d4 11 00 00    	je     32c0 <node130>
    20ec:	48 3d 9c 01 00 00    	cmp    rax,0x19c
    20f2:	0f 84 4e 63 00 00    	je     8446 <node412>
    20f8:	48 3d 8f 00 00 00    	cmp    rax,0x8f
    20fe:	0f 84 f3 15 00 00    	je     36f7 <node143>
    2104:	48 83 f8 12          	cmp    rax,0x12
    2108:	0f 84 76 f5 ff ff    	je     1684 <node18>
    210e:	48 3d 99 00 00 00    	cmp    rax,0x99
    2114:	0f 84 6b 19 00 00    	je     3a85 <node153>
    211a:	48 3d a7 01 00 00    	cmp    rax,0x1a7
    2120:	0f 84 9b 65 00 00    	je     86c1 <node423>
    2126:	48 3d 11 01 00 00    	cmp    rax,0x111
    212c:	0f 84 7d 3c 00 00    	je     5daf <node273>
    2132:	e9 16 6d 00 00       	jmp    8e4d <fail_code>

0000000000002137 <node59>:
    2137:	48 8d 05 92 8f 00 00 	lea    rax,[rip+0x8f92]        # b0d0 <__TMC_END__>
    213e:	c6 04 18 37          	mov    BYTE PTR [rax+rbx*1],0x37
    2142:	48 ff c3             	inc    rbx
    2145:	48 8d 3d c4 8e 00 00 	lea    rdi,[rip+0x8ec4]        # b010 <scanf_format>
    214c:	48 89 e6             	mov    rsi,rsp
    214f:	31 c0                	xor    eax,eax
    2151:	ff 15 79 8e 00 00    	call   QWORD PTR [rip+0x8e79]        # afd0 <scanf@GLIBC_2.2.5>
    2157:	48 8b 04 24          	mov    rax,QWORD PTR [rsp]
    215b:	48 3d 5b 01 00 00    	cmp    rax,0x15b
    2161:	0f 84 4c 51 00 00    	je     72b3 <node347>
    2167:	48 83 f8 2a          	cmp    rax,0x2a
    216b:	0f 84 c7 fb ff ff    	je     1d38 <node42>
    2171:	48 83 f8 2d          	cmp    rax,0x2d
    2175:	0f 84 26 fc ff ff    	je     1da1 <node45>
    217b:	48 3d b5 01 00 00    	cmp    rax,0x1b5
    2181:	0f 84 10 68 00 00    	je     8997 <node437>
    2187:	e9 c1 6c 00 00       	jmp    8e4d <fail_code>

000000000000218c <node60>:
    218c:	48 8d 05 3d 8f 00 00 	lea    rax,[rip+0x8f3d]        # b0d0 <__TMC_END__>
    2193:	c6 04 18 79          	mov    BYTE PTR [rax+rbx*1],0x79
    2197:	48 ff c3             	inc    rbx
    219a:	48 8d 3d 6f 8e 00 00 	lea    rdi,[rip+0x8e6f]        # b010 <scanf_format>
    21a1:	48 89 e6             	mov    rsi,rsp
    21a4:	31 c0                	xor    eax,eax
    21a6:	ff 15 24 8e 00 00    	call   QWORD PTR [rip+0x8e24]        # afd0 <scanf@GLIBC_2.2.5>
    21ac:	48 8b 04 24          	mov    rax,QWORD PTR [rsp]
    21b0:	48 3d 24 01 00 00    	cmp    rax,0x124
    21b6:	0f 84 48 42 00 00    	je     6404 <node292>
    21bc:	48 83 f8 33          	cmp    rax,0x33
    21c0:	0f 84 3d fd ff ff    	je     1f03 <node51>
    21c6:	48 3d 9d 01 00 00    	cmp    rax,0x19d
    21cc:	0f 84 b3 62 00 00    	je     8485 <node413>
    21d2:	48 83 f8 27          	cmp    rax,0x27
    21d6:	0f 84 bf fa ff ff    	je     1c9b <node39>
    21dc:	e9 6c 6c 00 00       	jmp    8e4d <fail_code>

00000000000021e1 <node61>:
    21e1:	48 8d 05 e8 8e 00 00 	lea    rax,[rip+0x8ee8]        # b0d0 <__TMC_END__>
    21e8:	c6 04 18 66          	mov    BYTE PTR [rax+rbx*1],0x66
    21ec:	48 ff c3             	inc    rbx
    21ef:	48 8d 3d 1a 8e 00 00 	lea    rdi,[rip+0x8e1a]        # b010 <scanf_format>
    21f6:	48 89 e6             	mov    rsi,rsp
    21f9:	31 c0                	xor    eax,eax
    21fb:	ff 15 cf 8d 00 00    	call   QWORD PTR [rip+0x8dcf]        # afd0 <scanf@GLIBC_2.2.5>
    2201:	48 8b 04 24          	mov    rax,QWORD PTR [rsp]
    2205:	48 83 f8 05          	cmp    rax,0x5
    2209:	0f 84 c0 f0 ff ff    	je     12cf <node5>
    220f:	48 3d 7c 01 00 00    	cmp    rax,0x17c
    2215:	0f 84 31 59 00 00    	je     7b4c <node380>
    221b:	48 83 f8 69          	cmp    rax,0x69
    221f:	0f 84 10 0a 00 00    	je     2c35 <node105>
    2225:	48 3d 73 01 00 00    	cmp    rax,0x173
    222b:	0f 84 7e 57 00 00    	je     79af <node371>
    2231:	e9 17 6c 00 00       	jmp    8e4d <fail_code>

0000000000002236 <node62>:
    2236:	48 8d 05 93 8e 00 00 	lea    rax,[rip+0x8e93]        # b0d0 <__TMC_END__>
    223d:	c6 04 18 32          	mov    BYTE PTR [rax+rbx*1],0x32
    2241:	48 ff c3             	inc    rbx
    2244:	48 8d 3d c5 8d 00 00 	lea    rdi,[rip+0x8dc5]        # b010 <scanf_format>
    224b:	48 89 e6             	mov    rsi,rsp
    224e:	31 c0                	xor    eax,eax
    2250:	ff 15 7a 8d 00 00    	call   QWORD PTR [rip+0x8d7a]        # afd0 <scanf@GLIBC_2.2.5>
    2256:	48 8b 04 24          	mov    rax,QWORD PTR [rsp]
    225a:	48 83 f8 32          	cmp    rax,0x32
    225e:	0f 84 6a fc ff ff    	je     1ece <node50>
    2264:	e9 e4 6b 00 00       	jmp    8e4d <fail_code>

0000000000002269 <node63>:
    2269:	48 8d 05 60 8e 00 00 	lea    rax,[rip+0x8e60]        # b0d0 <__TMC_END__>
    2270:	c6 04 18 30          	mov    BYTE PTR [rax+rbx*1],0x30
    2274:	48 ff c3             	inc    rbx
    2277:	e9 d1 6b 00 00       	jmp    8e4d <fail_code>

000000000000227c <node64>:
    227c:	48 8d 05 4d 8e 00 00 	lea    rax,[rip+0x8e4d]        # b0d0 <__TMC_END__>
    2283:	c6 04 18 60          	mov    BYTE PTR [rax+rbx*1],0x60
    2287:	48 ff c3             	inc    rbx
    228a:	e9 be 6b 00 00       	jmp    8e4d <fail_code>

000000000000228f <node65>:
    228f:	48 8d 05 3a 8e 00 00 	lea    rax,[rip+0x8e3a]        # b0d0 <__TMC_END__>
    2296:	c6 04 18 6b          	mov    BYTE PTR [rax+rbx*1],0x6b
    229a:	48 ff c3             	inc    rbx
    229d:	48 8d 3d 6c 8d 00 00 	lea    rdi,[rip+0x8d6c]        # b010 <scanf_format>
    22a4:	48 89 e6             	mov    rsi,rsp
    22a7:	31 c0                	xor    eax,eax
    22a9:	ff 15 21 8d 00 00    	call   QWORD PTR [rip+0x8d21]        # afd0 <scanf@GLIBC_2.2.5>
    22af:	48 8b 04 24          	mov    rax,QWORD PTR [rsp]
    22b3:	48 3d c4 01 00 00    	cmp    rax,0x1c4
    22b9:	0f 84 ff 6a 00 00    	je     8dbe <node452>
    22bf:	e9 89 6b 00 00       	jmp    8e4d <fail_code>

00000000000022c4 <node66>:
    22c4:	48 8d 05 05 8e 00 00 	lea    rax,[rip+0x8e05]        # b0d0 <__TMC_END__>
    22cb:	c6 04 18 4c          	mov    BYTE PTR [rax+rbx*1],0x4c
    22cf:	48 ff c3             	inc    rbx
    22d2:	48 8d 3d 37 8d 00 00 	lea    rdi,[rip+0x8d37]        # b010 <scanf_format>
    22d9:	48 89 e6             	mov    rsi,rsp
    22dc:	31 c0                	xor    eax,eax
    22de:	ff 15 ec 8c 00 00    	call   QWORD PTR [rip+0x8cec]        # afd0 <scanf@GLIBC_2.2.5>
    22e4:	48 8b 04 24          	mov    rax,QWORD PTR [rsp]
    22e8:	48 3d 00 01 00 00    	cmp    rax,0x100
    22ee:	0f 84 2c 36 00 00    	je     5920 <node256>
    22f4:	48 3d 92 00 00 00    	cmp    rax,0x92
    22fa:	0f 84 1e 15 00 00    	je     381e <node146>
    2300:	48 83 f8 4e          	cmp    rax,0x4e
    2304:	0f 84 cc 02 00 00    	je     25d6 <node78>
    230a:	48 83 f8 16          	cmp    rax,0x16
    230e:	0f 84 88 f4 ff ff    	je     179c <node22>
    2314:	48 83 f8 35          	cmp    rax,0x35
    2318:	0f 84 59 fc ff ff    	je     1f77 <node53>
    231e:	48 3d 7f 01 00 00    	cmp    rax,0x17f
    2324:	0f 84 f7 58 00 00    	je     7c21 <node383>
    232a:	e9 1e 6b 00 00       	jmp    8e4d <fail_code>

000000000000232f <node67>:
    232f:	48 8d 05 9a 8d 00 00 	lea    rax,[rip+0x8d9a]        # b0d0 <__TMC_END__>
    2336:	c6 04 18 4d          	mov    BYTE PTR [rax+rbx*1],0x4d
    233a:	48 ff c3             	inc    rbx
    233d:	e9 0b 6b 00 00       	jmp    8e4d <fail_code>

0000000000002342 <node68>:
    2342:	48 8d 05 87 8d 00 00 	lea    rax,[rip+0x8d87]        # b0d0 <__TMC_END__>
    2349:	c6 04 18 30          	mov    BYTE PTR [rax+rbx*1],0x30
    234d:	48 ff c3             	inc    rbx
    2350:	48 8d 3d b9 8c 00 00 	lea    rdi,[rip+0x8cb9]        # b010 <scanf_format>
    2357:	48 89 e6             	mov    rsi,rsp
    235a:	31 c0                	xor    eax,eax
    235c:	ff 15 6e 8c 00 00    	call   QWORD PTR [rip+0x8c6e]        # afd0 <scanf@GLIBC_2.2.5>
    2362:	48 8b 04 24          	mov    rax,QWORD PTR [rsp]
    2366:	48 3d 40 01 00 00    	cmp    rax,0x140
    236c:	0f 84 26 48 00 00    	je     6b98 <node320>
    2372:	48 3d 4a 01 00 00    	cmp    rax,0x14a
    2378:	0f 84 a8 4a 00 00    	je     6e26 <node330>
    237e:	48 3d f2 00 00 00    	cmp    rax,0xf2
    2384:	0f 84 6a 30 00 00    	je     53f4 <node242>
    238a:	e9 be 6a 00 00       	jmp    8e4d <fail_code>

000000000000238f <node69>:
    238f:	48 8d 05 3a 8d 00 00 	lea    rax,[rip+0x8d3a]        # b0d0 <__TMC_END__>
    2396:	c6 04 18 72          	mov    BYTE PTR [rax+rbx*1],0x72
    239a:	48 ff c3             	inc    rbx
    239d:	48 8d 3d 6c 8c 00 00 	lea    rdi,[rip+0x8c6c]        # b010 <scanf_format>
    23a4:	48 89 e6             	mov    rsi,rsp
    23a7:	31 c0                	xor    eax,eax
    23a9:	ff 15 21 8c 00 00    	call   QWORD PTR [rip+0x8c21]        # afd0 <scanf@GLIBC_2.2.5>
    23af:	48 8b 04 24          	mov    rax,QWORD PTR [rsp]
    23b3:	48 3d dd 00 00 00    	cmp    rax,0xdd
    23b9:	0f 84 be 2a 00 00    	je     4e7d <node221>
    23bf:	48 3d 1c 01 00 00    	cmp    rax,0x11c
    23c5:	0f 84 c3 3d 00 00    	je     618e <node284>
    23cb:	48 3d 80 00 00 00    	cmp    rax,0x80
    23d1:	0f 84 c3 0e 00 00    	je     329a <node128>
    23d7:	e9 71 6a 00 00       	jmp    8e4d <fail_code>

00000000000023dc <node70>:
    23dc:	48 8d 05 ed 8c 00 00 	lea    rax,[rip+0x8ced]        # b0d0 <__TMC_END__>
    23e3:	c6 04 18 43          	mov    BYTE PTR [rax+rbx*1],0x43
    23e7:	48 ff c3             	inc    rbx
    23ea:	48 8d 3d 1f 8c 00 00 	lea    rdi,[rip+0x8c1f]        # b010 <scanf_format>
    23f1:	48 89 e6             	mov    rsi,rsp
    23f4:	31 c0                	xor    eax,eax
    23f6:	ff 15 d4 8b 00 00    	call   QWORD PTR [rip+0x8bd4]        # afd0 <scanf@GLIBC_2.2.5>
    23fc:	48 8b 04 24          	mov    rax,QWORD PTR [rsp]
    2400:	48 83 f8 45          	cmp    rax,0x45
    2404:	74 89                	je     238f <node69>
    2406:	48 3d ab 00 00 00    	cmp    rax,0xab
    240c:	0f 84 9f 1b 00 00    	je     3fb1 <node171>
    2412:	48 3d f3 00 00 00    	cmp    rax,0xf3
    2418:	0f 84 73 30 00 00    	je     5491 <node243>
    241e:	48 3d ae 00 00 00    	cmp    rax,0xae
    2424:	0f 84 54 1c 00 00    	je     407e <node174>
    242a:	e9 1e 6a 00 00       	jmp    8e4d <fail_code>

000000000000242f <node71>:
    242f:	48 8d 05 9a 8c 00 00 	lea    rax,[rip+0x8c9a]        # b0d0 <__TMC_END__>
    2436:	c6 04 18 3c          	mov    BYTE PTR [rax+rbx*1],0x3c
    243a:	48 ff c3             	inc    rbx
    243d:	e9 0b 6a 00 00       	jmp    8e4d <fail_code>

0000000000002442 <node72>:
    2442:	48 8d 05 87 8c 00 00 	lea    rax,[rip+0x8c87]        # b0d0 <__TMC_END__>
    2449:	c6 04 18 73          	mov    BYTE PTR [rax+rbx*1],0x73
    244d:	48 ff c3             	inc    rbx
    2450:	48 8d 3d b9 8b 00 00 	lea    rdi,[rip+0x8bb9]        # b010 <scanf_format>
    2457:	48 89 e6             	mov    rsi,rsp
    245a:	31 c0                	xor    eax,eax
    245c:	ff 15 6e 8b 00 00    	call   QWORD PTR [rip+0x8b6e]        # afd0 <scanf@GLIBC_2.2.5>
    2462:	48 8b 04 24          	mov    rax,QWORD PTR [rsp]
    2466:	48 3d 2f 01 00 00    	cmp    rax,0x12f
    246c:	0f 84 bf 41 00 00    	je     6631 <node303>
    2472:	48 83 f8 02          	cmp    rax,0x2
    2476:	0f 84 5a ed ff ff    	je     11d6 <node2>
    247c:	48 3d a7 01 00 00    	cmp    rax,0x1a7
    2482:	0f 84 39 62 00 00    	je     86c1 <node423>
    2488:	48 3d b3 00 00 00    	cmp    rax,0xb3
    248e:	0f 84 27 1d 00 00    	je     41bb <node179>
    2494:	e9 b4 69 00 00       	jmp    8e4d <fail_code>

0000000000002499 <node73>:
    2499:	48 8d 05 30 8c 00 00 	lea    rax,[rip+0x8c30]        # b0d0 <__TMC_END__>
    24a0:	c6 04 18 21          	mov    BYTE PTR [rax+rbx*1],0x21
    24a4:	48 ff c3             	inc    rbx
    24a7:	48 8d 3d 62 8b 00 00 	lea    rdi,[rip+0x8b62]        # b010 <scanf_format>
    24ae:	48 89 e6             	mov    rsi,rsp
    24b1:	31 c0                	xor    eax,eax
    24b3:	ff 15 17 8b 00 00    	call   QWORD PTR [rip+0x8b17]        # afd0 <scanf@GLIBC_2.2.5>
    24b9:	48 8b 04 24          	mov    rax,QWORD PTR [rsp]
    24bd:	48 3d be 01 00 00    	cmp    rax,0x1be
    24c3:	0f 84 1b 67 00 00    	je     8be4 <node446>
    24c9:	48 3d a0 00 00 00    	cmp    rax,0xa0
    24cf:	0f 84 33 18 00 00    	je     3d08 <node160>
    24d5:	48 83 f8 67          	cmp    rax,0x67
    24d9:	0f 84 ba 06 00 00    	je     2b99 <node103>
    24df:	48 83 f8 7d          	cmp    rax,0x7d
    24e3:	0f 84 c2 0c 00 00    	je     31ab <node125>
    24e9:	48 83 f8 69          	cmp    rax,0x69
    24ed:	0f 84 42 07 00 00    	je     2c35 <node105>
    24f3:	e9 55 69 00 00       	jmp    8e4d <fail_code>

00000000000024f8 <node74>:
    24f8:	48 8d 05 d1 8b 00 00 	lea    rax,[rip+0x8bd1]        # b0d0 <__TMC_END__>
    24ff:	c6 04 18 71          	mov    BYTE PTR [rax+rbx*1],0x71
    2503:	48 ff c3             	inc    rbx
    2506:	48 8d 3d 03 8b 00 00 	lea    rdi,[rip+0x8b03]        # b010 <scanf_format>
    250d:	48 89 e6             	mov    rsi,rsp
    2510:	31 c0                	xor    eax,eax
    2512:	ff 15 b8 8a 00 00    	call   QWORD PTR [rip+0x8ab8]        # afd0 <scanf@GLIBC_2.2.5>
    2518:	48 8b 04 24          	mov    rax,QWORD PTR [rsp]
    251c:	48 3d 06 01 00 00    	cmp    rax,0x106
    2522:	0f 84 62 35 00 00    	je     5a8a <node262>
    2528:	48 3d d7 00 00 00    	cmp    rax,0xd7
    252e:	0f 84 71 27 00 00    	je     4ca5 <node215>
    2534:	e9 14 69 00 00       	jmp    8e4d <fail_code>

0000000000002539 <node75>:
    2539:	48 8d 05 90 8b 00 00 	lea    rax,[rip+0x8b90]        # b0d0 <__TMC_END__>
    2540:	c6 04 18 34          	mov    BYTE PTR [rax+rbx*1],0x34
    2544:	48 ff c3             	inc    rbx
    2547:	48 8d 3d c2 8a 00 00 	lea    rdi,[rip+0x8ac2]        # b010 <scanf_format>
    254e:	48 89 e6             	mov    rsi,rsp
    2551:	31 c0                	xor    eax,eax
    2553:	ff 15 77 8a 00 00    	call   QWORD PTR [rip+0x8a77]        # afd0 <scanf@GLIBC_2.2.5>
    2559:	48 8b 04 24          	mov    rax,QWORD PTR [rsp]
    255d:	48 3d 04 01 00 00    	cmp    rax,0x104
    2563:	0f 84 ad 34 00 00    	je     5a16 <node260>
    2569:	48 83 f8 0a          	cmp    rax,0xa
    256d:	0f 84 ab ee ff ff    	je     141e <node10>
    2573:	48 3d e4 00 00 00    	cmp    rax,0xe4
    2579:	0f 84 9d 2a 00 00    	je     501c <node228>
    257f:	e9 c9 68 00 00       	jmp    8e4d <fail_code>

0000000000002584 <node76>:
    2584:	48 8d 05 45 8b 00 00 	lea    rax,[rip+0x8b45]        # b0d0 <__TMC_END__>
    258b:	c6 04 18 61          	mov    BYTE PTR [rax+rbx*1],0x61
    258f:	48 ff c3             	inc    rbx
    2592:	48 8d 3d 77 8a 00 00 	lea    rdi,[rip+0x8a77]        # b010 <scanf_format>
    2599:	48 89 e6             	mov    rsi,rsp
    259c:	31 c0                	xor    eax,eax
    259e:	ff 15 2c 8a 00 00    	call   QWORD PTR [rip+0x8a2c]        # afd0 <scanf@GLIBC_2.2.5>
    25a4:	48 8b 04 24          	mov    rax,QWORD PTR [rsp]
    25a8:	48 3d 9e 01 00 00    	cmp    rax,0x19e
    25ae:	0f 84 32 5f 00 00    	je     84e6 <node414>
    25b4:	48 83 f8 46          	cmp    rax,0x46
    25b8:	0f 84 1e fe ff ff    	je     23dc <node70>
    25be:	e9 8a 68 00 00       	jmp    8e4d <fail_code>

00000000000025c3 <node77>:
    25c3:	48 8d 05 06 8b 00 00 	lea    rax,[rip+0x8b06]        # b0d0 <__TMC_END__>
    25ca:	c6 04 18 47          	mov    BYTE PTR [rax+rbx*1],0x47
    25ce:	48 ff c3             	inc    rbx
    25d1:	e9 77 68 00 00       	jmp    8e4d <fail_code>

00000000000025d6 <node78>:
    25d6:	48 8d 05 f3 8a 00 00 	lea    rax,[rip+0x8af3]        # b0d0 <__TMC_END__>
    25dd:	c6 04 18 42          	mov    BYTE PTR [rax+rbx*1],0x42
    25e1:	48 ff c3             	inc    rbx
    25e4:	e9 64 68 00 00       	jmp    8e4d <fail_code>

00000000000025e9 <node79>:
    25e9:	48 8d 05 e0 8a 00 00 	lea    rax,[rip+0x8ae0]        # b0d0 <__TMC_END__>
    25f0:	c6 04 18 44          	mov    BYTE PTR [rax+rbx*1],0x44
    25f4:	48 ff c3             	inc    rbx
    25f7:	48 8d 3d 12 8a 00 00 	lea    rdi,[rip+0x8a12]        # b010 <scanf_format>
    25fe:	48 89 e6             	mov    rsi,rsp
    2601:	31 c0                	xor    eax,eax
    2603:	ff 15 c7 89 00 00    	call   QWORD PTR [rip+0x89c7]        # afd0 <scanf@GLIBC_2.2.5>
    2609:	48 8b 04 24          	mov    rax,QWORD PTR [rsp]
    260d:	48 83 f8 36          	cmp    rax,0x36
    2611:	0f 84 a1 f9 ff ff    	je     1fb8 <node54>
    2617:	48 83 f8 4e          	cmp    rax,0x4e
    261b:	74 b9                	je     25d6 <node78>
    261d:	48 83 f8 69          	cmp    rax,0x69
    2621:	0f 84 0e 06 00 00    	je     2c35 <node105>
    2627:	48 3d 9b 01 00 00    	cmp    rax,0x19b
    262d:	0f 84 bc 5d 00 00    	je     83ef <node411>
    2633:	48 3d d7 00 00 00    	cmp    rax,0xd7
    2639:	0f 84 66 26 00 00    	je     4ca5 <node215>
    263f:	48 3d 4b 01 00 00    	cmp    rax,0x14b
    2645:	0f 84 34 48 00 00    	je     6e7f <node331>
    264b:	48 3d 17 01 00 00    	cmp    rax,0x117
    2651:	0f 84 38 39 00 00    	je     5f8f <node279>
    2657:	e9 f1 67 00 00       	jmp    8e4d <fail_code>

000000000000265c <node80>:
    265c:	48 8d 05 6d 8a 00 00 	lea    rax,[rip+0x8a6d]        # b0d0 <__TMC_END__>
    2663:	c6 04 18 6f          	mov    BYTE PTR [rax+rbx*1],0x6f
    2667:	48 ff c3             	inc    rbx
    266a:	e9 de 67 00 00       	jmp    8e4d <fail_code>

000000000000266f <node81>:
    266f:	48 8d 05 5a 8a 00 00 	lea    rax,[rip+0x8a5a]        # b0d0 <__TMC_END__>
    2676:	c6 04 18 7b          	mov    BYTE PTR [rax+rbx*1],0x7b
    267a:	48 ff c3             	inc    rbx
    267d:	48 8d 3d 8c 89 00 00 	lea    rdi,[rip+0x898c]        # b010 <scanf_format>
    2684:	48 89 e6             	mov    rsi,rsp
    2687:	31 c0                	xor    eax,eax
    2689:	ff 15 41 89 00 00    	call   QWORD PTR [rip+0x8941]        # afd0 <scanf@GLIBC_2.2.5>
    268f:	48 8b 04 24          	mov    rax,QWORD PTR [rsp]
    2693:	48 3d b2 00 00 00    	cmp    rax,0xb2
    2699:	0f 84 e7 1a 00 00    	je     4186 <node178>
    269f:	e9 a9 67 00 00       	jmp    8e4d <fail_code>

00000000000026a4 <node82>:
    26a4:	48 8d 05 25 8a 00 00 	lea    rax,[rip+0x8a25]        # b0d0 <__TMC_END__>
    26ab:	c6 04 18 3d          	mov    BYTE PTR [rax+rbx*1],0x3d
    26af:	48 ff c3             	inc    rbx
    26b2:	48 8d 3d 57 89 00 00 	lea    rdi,[rip+0x8957]        # b010 <scanf_format>
    26b9:	48 89 e6             	mov    rsi,rsp
    26bc:	31 c0                	xor    eax,eax
    26be:	ff 15 0c 89 00 00    	call   QWORD PTR [rip+0x890c]        # afd0 <scanf@GLIBC_2.2.5>
    26c4:	48 8b 04 24          	mov    rax,QWORD PTR [rsp]
    26c8:	48 3d e8 00 00 00    	cmp    rax,0xe8
    26ce:	0f 84 76 2a 00 00    	je     514a <node232>
    26d4:	48 3d a7 00 00 00    	cmp    rax,0xa7
    26da:	0f 84 b5 17 00 00    	je     3e95 <node167>
    26e0:	48 3d 4e 01 00 00    	cmp    rax,0x14e
    26e6:	0f 84 5a 48 00 00    	je     6f46 <node334>
    26ec:	e9 5c 67 00 00       	jmp    8e4d <fail_code>

00000000000026f1 <node83>:
    26f1:	48 8d 05 d8 89 00 00 	lea    rax,[rip+0x89d8]        # b0d0 <__TMC_END__>
    26f8:	c6 04 18 47          	mov    BYTE PTR [rax+rbx*1],0x47
    26fc:	48 ff c3             	inc    rbx
    26ff:	e9 49 67 00 00       	jmp    8e4d <fail_code>

0000000000002704 <node84>:
    2704:	48 8d 05 c5 89 00 00 	lea    rax,[rip+0x89c5]        # b0d0 <__TMC_END__>
    270b:	c6 04 18 4e          	mov    BYTE PTR [rax+rbx*1],0x4e
    270f:	48 ff c3             	inc    rbx
    2712:	48 8d 3d f7 88 00 00 	lea    rdi,[rip+0x88f7]        # b010 <scanf_format>
    2719:	48 89 e6             	mov    rsi,rsp
    271c:	31 c0                	xor    eax,eax
    271e:	ff 15 ac 88 00 00    	call   QWORD PTR [rip+0x88ac]        # afd0 <scanf@GLIBC_2.2.5>
    2724:	48 8b 04 24          	mov    rax,QWORD PTR [rsp]
    2728:	48 3d 22 01 00 00    	cmp    rax,0x122
    272e:	0f 84 30 3c 00 00    	je     6364 <node290>
    2734:	48 3d aa 00 00 00    	cmp    rax,0xaa
    273a:	0f 84 3e 18 00 00    	je     3f7e <node170>
    2740:	48 3d 88 01 00 00    	cmp    rax,0x188
    2746:	0f 84 4e 57 00 00    	je     7e9a <node392>
    274c:	48 3d d4 00 00 00    	cmp    rax,0xd4
    2752:	0f 84 52 24 00 00    	je     4baa <node212>
    2758:	48 3d a1 01 00 00    	cmp    rax,0x1a1
    275e:	0f 84 13 5e 00 00    	je     8577 <node417>
    2764:	48 3d 65 01 00 00    	cmp    rax,0x165
    276a:	0f 84 d1 4d 00 00    	je     7541 <node357>
    2770:	e9 d8 66 00 00       	jmp    8e4d <fail_code>

0000000000002775 <node85>:
    2775:	48 8d 05 54 89 00 00 	lea    rax,[rip+0x8954]        # b0d0 <__TMC_END__>
    277c:	c6 04 18 35          	mov    BYTE PTR [rax+rbx*1],0x35
    2780:	48 ff c3             	inc    rbx
    2783:	48 8d 3d 86 88 00 00 	lea    rdi,[rip+0x8886]        # b010 <scanf_format>
    278a:	48 89 e6             	mov    rsi,rsp
    278d:	31 c0                	xor    eax,eax
    278f:	ff 15 3b 88 00 00    	call   QWORD PTR [rip+0x883b]        # afd0 <scanf@GLIBC_2.2.5>
    2795:	48 8b 04 24          	mov    rax,QWORD PTR [rsp]
    2799:	48 3d a6 01 00 00    	cmp    rax,0x1a6
    279f:	0f 84 db 5e 00 00    	je     8680 <node422>
    27a5:	48 3d 0e 01 00 00    	cmp    rax,0x10e
    27ab:	0f 84 13 35 00 00    	je     5cc4 <node270>
    27b1:	48 3d 3e 01 00 00    	cmp    rax,0x13e
    27b7:	0f 84 1f 43 00 00    	je     6adc <node318>
    27bd:	e9 8b 66 00 00       	jmp    8e4d <fail_code>

00000000000027c2 <node86>:
    27c2:	48 8d 05 07 89 00 00 	lea    rax,[rip+0x8907]        # b0d0 <__TMC_END__>
    27c9:	c6 04 18 36          	mov    BYTE PTR [rax+rbx*1],0x36
    27cd:	48 ff c3             	inc    rbx
    27d0:	48 8d 3d 39 88 00 00 	lea    rdi,[rip+0x8839]        # b010 <scanf_format>
    27d7:	48 89 e6             	mov    rsi,rsp
    27da:	31 c0                	xor    eax,eax
    27dc:	ff 15 ee 87 00 00    	call   QWORD PTR [rip+0x87ee]        # afd0 <scanf@GLIBC_2.2.5>
    27e2:	48 8b 04 24          	mov    rax,QWORD PTR [rsp]
    27e6:	48 83 f8 10          	cmp    rax,0x10
    27ea:	0f 84 fe ed ff ff    	je     15ee <node16>
    27f0:	48 3d 0a 01 00 00    	cmp    rax,0x10a
    27f6:	0f 84 4c 33 00 00    	je     5b48 <node266>
    27fc:	48 3d 9b 00 00 00    	cmp    rax,0x9b
    2802:	0f 84 43 13 00 00    	je     3b4b <node155>
    2808:	48 83 f8 71          	cmp    rax,0x71
    280c:	0f 84 d9 05 00 00    	je     2deb <node113>
    2812:	e9 36 66 00 00       	jmp    8e4d <fail_code>

0000000000002817 <node87>:
    2817:	48 8d 05 b2 88 00 00 	lea    rax,[rip+0x88b2]        # b0d0 <__TMC_END__>
    281e:	c6 04 18 2c          	mov    BYTE PTR [rax+rbx*1],0x2c
    2822:	48 ff c3             	inc    rbx
    2825:	48 8d 3d e4 87 00 00 	lea    rdi,[rip+0x87e4]        # b010 <scanf_format>
    282c:	48 89 e6             	mov    rsi,rsp
    282f:	31 c0                	xor    eax,eax
    2831:	ff 15 99 87 00 00    	call   QWORD PTR [rip+0x8799]        # afd0 <scanf@GLIBC_2.2.5>
    2837:	48 8b 04 24          	mov    rax,QWORD PTR [rsp]
    283b:	48 83 f8 62          	cmp    rax,0x62
    283f:	0f 84 4d 02 00 00    	je     2a92 <node98>
    2845:	48 3d c4 00 00 00    	cmp    rax,0xc4
    284b:	0f 84 bb 1d 00 00    	je     460c <node196>
    2851:	48 3d a6 00 00 00    	cmp    rax,0xa6
    2857:	0f 84 e1 15 00 00    	je     3e3e <node166>
    285d:	48 3d f8 00 00 00    	cmp    rax,0xf8
    2863:	0f 84 87 2d 00 00    	je     55f0 <node248>
    2869:	e9 df 65 00 00       	jmp    8e4d <fail_code>

000000000000286e <node88>:
    286e:	48 8d 05 5b 88 00 00 	lea    rax,[rip+0x885b]        # b0d0 <__TMC_END__>
    2875:	c6 04 18 44          	mov    BYTE PTR [rax+rbx*1],0x44
    2879:	48 ff c3             	inc    rbx
    287c:	48 8d 3d 8d 87 00 00 	lea    rdi,[rip+0x878d]        # b010 <scanf_format>
    2883:	48 89 e6             	mov    rsi,rsp
    2886:	31 c0                	xor    eax,eax
    2888:	ff 15 42 87 00 00    	call   QWORD PTR [rip+0x8742]        # afd0 <scanf@GLIBC_2.2.5>
    288e:	48 8b 04 24          	mov    rax,QWORD PTR [rsp]
    2892:	48 3d 5b 01 00 00    	cmp    rax,0x15b
    2898:	0f 84 15 4a 00 00    	je     72b3 <node347>
    289e:	e9 aa 65 00 00       	jmp    8e4d <fail_code>

00000000000028a3 <node89>:
    28a3:	48 8d 05 26 88 00 00 	lea    rax,[rip+0x8826]        # b0d0 <__TMC_END__>
    28aa:	c6 04 18 70          	mov    BYTE PTR [rax+rbx*1],0x70
    28ae:	48 ff c3             	inc    rbx
    28b1:	e9 97 65 00 00       	jmp    8e4d <fail_code>

00000000000028b6 <node90>:
    28b6:	48 8d 05 13 88 00 00 	lea    rax,[rip+0x8813]        # b0d0 <__TMC_END__>
    28bd:	c6 04 18 60          	mov    BYTE PTR [rax+rbx*1],0x60
    28c1:	48 ff c3             	inc    rbx
    28c4:	e9 84 65 00 00       	jmp    8e4d <fail_code>

00000000000028c9 <node91>:
    28c9:	48 8d 05 00 88 00 00 	lea    rax,[rip+0x8800]        # b0d0 <__TMC_END__>
    28d0:	c6 04 18 7b          	mov    BYTE PTR [rax+rbx*1],0x7b
    28d4:	48 ff c3             	inc    rbx
    28d7:	48 8d 3d 32 87 00 00 	lea    rdi,[rip+0x8732]        # b010 <scanf_format>
    28de:	48 89 e6             	mov    rsi,rsp
    28e1:	31 c0                	xor    eax,eax
    28e3:	ff 15 e7 86 00 00    	call   QWORD PTR [rip+0x86e7]        # afd0 <scanf@GLIBC_2.2.5>
    28e9:	48 8b 04 24          	mov    rax,QWORD PTR [rsp]
    28ed:	48 3d 68 01 00 00    	cmp    rax,0x168
    28f3:	0f 84 6f 4d 00 00    	je     7668 <node360>
    28f9:	48 83 f8 76          	cmp    rax,0x76
    28fd:	0f 84 9b 06 00 00    	je     2f9e <node118>
    2903:	48 83 f8 0b          	cmp    rax,0xb
    2907:	0f 84 7c eb ff ff    	je     1489 <node11>
    290d:	48 83 f8 1e          	cmp    rax,0x1e
    2911:	0f 84 87 f0 ff ff    	je     199e <node30>
    2917:	e9 31 65 00 00       	jmp    8e4d <fail_code>

000000000000291c <node92>:
    291c:	48 8d 05 ad 87 00 00 	lea    rax,[rip+0x87ad]        # b0d0 <__TMC_END__>
    2923:	c6 04 18 6f          	mov    BYTE PTR [rax+rbx*1],0x6f
    2927:	48 ff c3             	inc    rbx
    292a:	48 8d 3d df 86 00 00 	lea    rdi,[rip+0x86df]        # b010 <scanf_format>
    2931:	48 89 e6             	mov    rsi,rsp
    2934:	31 c0                	xor    eax,eax
    2936:	ff 15 94 86 00 00    	call   QWORD PTR [rip+0x8694]        # afd0 <scanf@GLIBC_2.2.5>
    293c:	48 8b 04 24          	mov    rax,QWORD PTR [rsp]
    2940:	48 3d ba 00 00 00    	cmp    rax,0xba
    2946:	0f 84 f4 19 00 00    	je     4340 <node186>
    294c:	48 83 f8 72          	cmp    rax,0x72
    2950:	0f 84 d4 04 00 00    	je     2e2a <node114>
    2956:	48 3d 22 01 00 00    	cmp    rax,0x122
    295c:	0f 84 02 3a 00 00    	je     6364 <node290>
    2962:	48 3d 90 01 00 00    	cmp    rax,0x190
    2968:	0f 84 ae 57 00 00    	je     811c <node400>
    296e:	48 83 f8 7d          	cmp    rax,0x7d
    2972:	0f 84 33 08 00 00    	je     31ab <node125>
    2978:	48 3d 99 00 00 00    	cmp    rax,0x99
    297e:	0f 84 01 11 00 00    	je     3a85 <node153>
    2984:	48 3d 9b 01 00 00    	cmp    rax,0x19b
    298a:	0f 84 5f 5a 00 00    	je     83ef <node411>
    2990:	e9 b8 64 00 00       	jmp    8e4d <fail_code>

0000000000002995 <node93>:
    2995:	48 8d 05 34 87 00 00 	lea    rax,[rip+0x8734]        # b0d0 <__TMC_END__>
    299c:	c6 04 18 34          	mov    BYTE PTR [rax+rbx*1],0x34
    29a0:	48 ff c3             	inc    rbx
    29a3:	48 8d 3d 66 86 00 00 	lea    rdi,[rip+0x8666]        # b010 <scanf_format>
    29aa:	48 89 e6             	mov    rsi,rsp
    29ad:	31 c0                	xor    eax,eax
    29af:	ff 15 1b 86 00 00    	call   QWORD PTR [rip+0x861b]        # afd0 <scanf@GLIBC_2.2.5>
    29b5:	48 8b 04 24          	mov    rax,QWORD PTR [rsp]
    29b9:	48 3d 96 01 00 00    	cmp    rax,0x196
    29bf:	0f 84 e5 58 00 00    	je     82aa <node406>
    29c5:	48 83 f8 02          	cmp    rax,0x2
    29c9:	0f 84 07 e8 ff ff    	je     11d6 <node2>
    29cf:	48 3d 86 00 00 00    	cmp    rax,0x86
    29d5:	0f 84 5f 0a 00 00    	je     343a <node134>
    29db:	e9 6d 64 00 00       	jmp    8e4d <fail_code>

00000000000029e0 <node94>:
    29e0:	48 8d 05 e9 86 00 00 	lea    rax,[rip+0x86e9]        # b0d0 <__TMC_END__>
    29e7:	c6 04 18 5f          	mov    BYTE PTR [rax+rbx*1],0x5f
    29eb:	48 ff c3             	inc    rbx
    29ee:	e9 5a 64 00 00       	jmp    8e4d <fail_code>

00000000000029f3 <node95>:
    29f3:	48 8d 05 d6 86 00 00 	lea    rax,[rip+0x86d6]        # b0d0 <__TMC_END__>
    29fa:	c6 04 18 70          	mov    BYTE PTR [rax+rbx*1],0x70
    29fe:	48 ff c3             	inc    rbx
    2a01:	48 8d 3d 08 86 00 00 	lea    rdi,[rip+0x8608]        # b010 <scanf_format>
    2a08:	48 89 e6             	mov    rsi,rsp
    2a0b:	31 c0                	xor    eax,eax
    2a0d:	ff 15 bd 85 00 00    	call   QWORD PTR [rip+0x85bd]        # afd0 <scanf@GLIBC_2.2.5>
    2a13:	48 8b 04 24          	mov    rax,QWORD PTR [rsp]
    2a17:	48 3d ba 01 00 00    	cmp    rax,0x1ba
    2a1d:	0f 84 d7 60 00 00    	je     8afa <node442>
    2a23:	e9 25 64 00 00       	jmp    8e4d <fail_code>

0000000000002a28 <node96>:
    2a28:	48 8d 05 a1 86 00 00 	lea    rax,[rip+0x86a1]        # b0d0 <__TMC_END__>
    2a2f:	c6 04 18 50          	mov    BYTE PTR [rax+rbx*1],0x50
    2a33:	48 ff c3             	inc    rbx
    2a36:	48 8d 3d d3 85 00 00 	lea    rdi,[rip+0x85d3]        # b010 <scanf_format>
    2a3d:	48 89 e6             	mov    rsi,rsp
    2a40:	31 c0                	xor    eax,eax
    2a42:	ff 15 88 85 00 00    	call   QWORD PTR [rip+0x8588]        # afd0 <scanf@GLIBC_2.2.5>
    2a48:	48 8b 04 24          	mov    rax,QWORD PTR [rsp]
    2a4c:	48 3d ac 01 00 00    	cmp    rax,0x1ac
    2a52:	0f 84 9c 5d 00 00    	je     87f4 <node428>
    2a58:	e9 f0 63 00 00       	jmp    8e4d <fail_code>

0000000000002a5d <node97>:
    2a5d:	48 8d 05 6c 86 00 00 	lea    rax,[rip+0x866c]        # b0d0 <__TMC_END__>
    2a64:	c6 04 18 42          	mov    BYTE PTR [rax+rbx*1],0x42
    2a68:	48 ff c3             	inc    rbx
    2a6b:	48 8d 3d 9e 85 00 00 	lea    rdi,[rip+0x859e]        # b010 <scanf_format>
    2a72:	48 89 e6             	mov    rsi,rsp
    2a75:	31 c0                	xor    eax,eax
    2a77:	ff 15 53 85 00 00    	call   QWORD PTR [rip+0x8553]        # afd0 <scanf@GLIBC_2.2.5>
    2a7d:	48 8b 04 24          	mov    rax,QWORD PTR [rsp]
    2a81:	48 3d 8c 00 00 00    	cmp    rax,0x8c
    2a87:	0f 84 79 0b 00 00    	je     3606 <node140>
    2a8d:	e9 bb 63 00 00       	jmp    8e4d <fail_code>

0000000000002a92 <node98>:
    2a92:	48 8d 05 37 86 00 00 	lea    rax,[rip+0x8637]        # b0d0 <__TMC_END__>
    2a99:	c6 04 18 34          	mov    BYTE PTR [rax+rbx*1],0x34
    2a9d:	48 ff c3             	inc    rbx
    2aa0:	e9 a8 63 00 00       	jmp    8e4d <fail_code>

0000000000002aa5 <node99>:
    2aa5:	48 8d 05 24 86 00 00 	lea    rax,[rip+0x8624]        # b0d0 <__TMC_END__>
    2aac:	c6 04 18 3e          	mov    BYTE PTR [rax+rbx*1],0x3e
    2ab0:	48 ff c3             	inc    rbx
    2ab3:	48 8d 3d 56 85 00 00 	lea    rdi,[rip+0x8556]        # b010 <scanf_format>
    2aba:	48 89 e6             	mov    rsi,rsp
    2abd:	31 c0                	xor    eax,eax
    2abf:	ff 15 0b 85 00 00    	call   QWORD PTR [rip+0x850b]        # afd0 <scanf@GLIBC_2.2.5>
    2ac5:	48 8b 04 24          	mov    rax,QWORD PTR [rsp]
    2ac9:	48 3d 9f 01 00 00    	cmp    rax,0x19f
    2acf:	0f 84 50 5a 00 00    	je     8525 <node415>
    2ad5:	48 3d e1 00 00 00    	cmp    rax,0xe1
    2adb:	0f 84 cc 24 00 00    	je     4fad <node225>
    2ae1:	48 3d 99 01 00 00    	cmp    rax,0x199
    2ae7:	0f 84 3a 58 00 00    	je     8327 <node409>
    2aed:	e9 5b 63 00 00       	jmp    8e4d <fail_code>

0000000000002af2 <node100>:
    2af2:	48 8d 05 d7 85 00 00 	lea    rax,[rip+0x85d7]        # b0d0 <__TMC_END__>
    2af9:	c6 04 18 4d          	mov    BYTE PTR [rax+rbx*1],0x4d
    2afd:	48 ff c3             	inc    rbx
    2b00:	e9 48 63 00 00       	jmp    8e4d <fail_code>

0000000000002b05 <node101>:
    2b05:	48 8d 05 c4 85 00 00 	lea    rax,[rip+0x85c4]        # b0d0 <__TMC_END__>
    2b0c:	c6 04 18 60          	mov    BYTE PTR [rax+rbx*1],0x60
    2b10:	48 ff c3             	inc    rbx
    2b13:	48 8d 3d f6 84 00 00 	lea    rdi,[rip+0x84f6]        # b010 <scanf_format>
    2b1a:	48 89 e6             	mov    rsi,rsp
    2b1d:	31 c0                	xor    eax,eax
    2b1f:	ff 15 ab 84 00 00    	call   QWORD PTR [rip+0x84ab]        # afd0 <scanf@GLIBC_2.2.5>
    2b25:	48 8b 04 24          	mov    rax,QWORD PTR [rsp]
    2b29:	48 3d e8 00 00 00    	cmp    rax,0xe8
    2b2f:	0f 84 15 26 00 00    	je     514a <node232>
    2b35:	48 83 f8 02          	cmp    rax,0x2
    2b39:	0f 84 97 e6 ff ff    	je     11d6 <node2>
    2b3f:	48 83 f8 07          	cmp    rax,0x7
    2b43:	0f 84 06 e8 ff ff    	je     134f <node7>
    2b49:	48 3d c1 00 00 00    	cmp    rax,0xc1
    2b4f:	0f 84 f6 19 00 00    	je     454b <node193>
    2b55:	48 83 f8 61          	cmp    rax,0x61
    2b59:	0f 84 fe fe ff ff    	je     2a5d <node97>
    2b5f:	e9 e9 62 00 00       	jmp    8e4d <fail_code>

0000000000002b64 <node102>:
    2b64:	48 8d 05 65 85 00 00 	lea    rax,[rip+0x8565]        # b0d0 <__TMC_END__>
    2b6b:	c6 04 18 66          	mov    BYTE PTR [rax+rbx*1],0x66
    2b6f:	48 ff c3             	inc    rbx
    2b72:	48 8d 3d 97 84 00 00 	lea    rdi,[rip+0x8497]        # b010 <scanf_format>
    2b79:	48 89 e6             	mov    rsi,rsp
    2b7c:	31 c0                	xor    eax,eax
    2b7e:	ff 15 4c 84 00 00    	call   QWORD PTR [rip+0x844c]        # afd0 <scanf@GLIBC_2.2.5>
    2b84:	48 8b 04 24          	mov    rax,QWORD PTR [rsp]
    2b88:	48 3d 51 01 00 00    	cmp    rax,0x151
    2b8e:	0f 84 5b 44 00 00    	je     6fef <node337>
    2b94:	e9 b4 62 00 00       	jmp    8e4d <fail_code>

0000000000002b99 <node103>:
    2b99:	48 8d 05 30 85 00 00 	lea    rax,[rip+0x8530]        # b0d0 <__TMC_END__>
    2ba0:	c6 04 18 0b          	mov    BYTE PTR [rax+rbx*1],0xb
    2ba4:	48 ff c3             	inc    rbx
    2ba7:	e9 a1 62 00 00       	jmp    8e4d <fail_code>

0000000000002bac <node104>:
    2bac:	48 8d 05 1d 85 00 00 	lea    rax,[rip+0x851d]        # b0d0 <__TMC_END__>
    2bb3:	c6 04 18 38          	mov    BYTE PTR [rax+rbx*1],0x38
    2bb7:	48 ff c3             	inc    rbx
    2bba:	48 8d 3d 4f 84 00 00 	lea    rdi,[rip+0x844f]        # b010 <scanf_format>
    2bc1:	48 89 e6             	mov    rsi,rsp
    2bc4:	31 c0                	xor    eax,eax
    2bc6:	ff 15 04 84 00 00    	call   QWORD PTR [rip+0x8404]        # afd0 <scanf@GLIBC_2.2.5>
    2bcc:	48 8b 04 24          	mov    rax,QWORD PTR [rsp]
    2bd0:	48 3d c0 01 00 00    	cmp    rax,0x1c0
    2bd6:	0f 84 7e 60 00 00    	je     8c5a <node448>
    2bdc:	48 3d a6 01 00 00    	cmp    rax,0x1a6
    2be2:	0f 84 98 5a 00 00    	je     8680 <node422>
    2be8:	48 3d 38 01 00 00    	cmp    rax,0x138
    2bee:	0f 84 24 3d 00 00    	je     6918 <node312>
    2bf4:	48 3d ae 00 00 00    	cmp    rax,0xae
    2bfa:	0f 84 7e 14 00 00    	je     407e <node174>
    2c00:	48 3d 9c 01 00 00    	cmp    rax,0x19c
    2c06:	0f 84 3a 58 00 00    	je     8446 <node412>
    2c0c:	48 3d ac 01 00 00    	cmp    rax,0x1ac
    2c12:	0f 84 dc 5b 00 00    	je     87f4 <node428>
    2c18:	48 3d 39 01 00 00    	cmp    rax,0x139
    2c1e:	0f 84 4b 3d 00 00    	je     696f <node313>
    2c24:	48 3d 5d 01 00 00    	cmp    rax,0x15d
    2c2a:	0f 84 05 47 00 00    	je     7335 <node349>
    2c30:	e9 18 62 00 00       	jmp    8e4d <fail_code>

0000000000002c35 <node105>:
    2c35:	48 8d 05 94 84 00 00 	lea    rax,[rip+0x8494]        # b0d0 <__TMC_END__>
    2c3c:	c6 04 18 7e          	mov    BYTE PTR [rax+rbx*1],0x7e
    2c40:	48 ff c3             	inc    rbx
    2c43:	e9 05 62 00 00       	jmp    8e4d <fail_code>

0000000000002c48 <node106>:
    2c48:	48 8d 05 81 84 00 00 	lea    rax,[rip+0x8481]        # b0d0 <__TMC_END__>
    2c4f:	c6 04 18 7a          	mov    BYTE PTR [rax+rbx*1],0x7a
    2c53:	48 ff c3             	inc    rbx
    2c56:	e9 f2 61 00 00       	jmp    8e4d <fail_code>

0000000000002c5b <node107>:
    2c5b:	48 8d 05 6e 84 00 00 	lea    rax,[rip+0x846e]        # b0d0 <__TMC_END__>
    2c62:	c6 04 18 52          	mov    BYTE PTR [rax+rbx*1],0x52
    2c66:	48 ff c3             	inc    rbx
    2c69:	48 8d 3d a0 83 00 00 	lea    rdi,[rip+0x83a0]        # b010 <scanf_format>
    2c70:	48 89 e6             	mov    rsi,rsp
    2c73:	31 c0                	xor    eax,eax
    2c75:	ff 15 55 83 00 00    	call   QWORD PTR [rip+0x8355]        # afd0 <scanf@GLIBC_2.2.5>
    2c7b:	48 8b 04 24          	mov    rax,QWORD PTR [rsp]
    2c7f:	48 3d f7 00 00 00    	cmp    rax,0xf7
    2c85:	0f 84 28 29 00 00    	je     55b3 <node247>
    2c8b:	48 3d 4c 01 00 00    	cmp    rax,0x14c
    2c91:	0f 84 3b 42 00 00    	je     6ed2 <node332>
    2c97:	48 83 f8 59          	cmp    rax,0x59
    2c9b:	0f 84 02 fc ff ff    	je     28a3 <node89>
    2ca1:	48 3d 09 01 00 00    	cmp    rax,0x109
    2ca7:	0f 84 44 2e 00 00    	je     5af1 <node265>
    2cad:	e9 9b 61 00 00       	jmp    8e4d <fail_code>

0000000000002cb2 <node108>:
    2cb2:	48 8d 05 17 84 00 00 	lea    rax,[rip+0x8417]        # b0d0 <__TMC_END__>
    2cb9:	c6 04 18 75          	mov    BYTE PTR [rax+rbx*1],0x75
    2cbd:	48 ff c3             	inc    rbx
    2cc0:	e9 88 61 00 00       	jmp    8e4d <fail_code>

0000000000002cc5 <node109>:
    2cc5:	48 8d 05 04 84 00 00 	lea    rax,[rip+0x8404]        # b0d0 <__TMC_END__>
    2ccc:	c6 04 18 71          	mov    BYTE PTR [rax+rbx*1],0x71
    2cd0:	48 ff c3             	inc    rbx
    2cd3:	48 8d 3d 36 83 00 00 	lea    rdi,[rip+0x8336]        # b010 <scanf_format>
    2cda:	48 89 e6             	mov    rsi,rsp
    2cdd:	31 c0                	xor    eax,eax
    2cdf:	ff 15 eb 82 00 00    	call   QWORD PTR [rip+0x82eb]        # afd0 <scanf@GLIBC_2.2.5>
    2ce5:	48 8b 04 24          	mov    rax,QWORD PTR [rsp]
    2ce9:	48 3d 88 01 00 00    	cmp    rax,0x188
    2cef:	0f 84 a5 51 00 00    	je     7e9a <node392>
    2cf5:	48 3d 24 01 00 00    	cmp    rax,0x124
    2cfb:	0f 84 03 37 00 00    	je     6404 <node292>
    2d01:	48 3d bc 00 00 00    	cmp    rax,0xbc
    2d07:	0f 84 df 16 00 00    	je     43ec <node188>
    2d0d:	48 3d d2 00 00 00    	cmp    rax,0xd2
    2d13:	0f 84 d9 1d 00 00    	je     4af2 <node210>
    2d19:	48 3d 52 01 00 00    	cmp    rax,0x152
    2d1f:	0f 84 dd 42 00 00    	je     7002 <node338>
    2d25:	e9 23 61 00 00       	jmp    8e4d <fail_code>

0000000000002d2a <node110>:
    2d2a:	48 8d 05 9f 83 00 00 	lea    rax,[rip+0x839f]        # b0d0 <__TMC_END__>
    2d31:	c6 04 18 7b          	mov    BYTE PTR [rax+rbx*1],0x7b
    2d35:	48 ff c3             	inc    rbx
    2d38:	48 8d 3d d1 82 00 00 	lea    rdi,[rip+0x82d1]        # b010 <scanf_format>
    2d3f:	48 89 e6             	mov    rsi,rsp
    2d42:	31 c0                	xor    eax,eax
    2d44:	ff 15 86 82 00 00    	call   QWORD PTR [rip+0x8286]        # afd0 <scanf@GLIBC_2.2.5>
    2d4a:	48 8b 04 24          	mov    rax,QWORD PTR [rsp]
    2d4e:	48 3d 9d 00 00 00    	cmp    rax,0x9d
    2d54:	0f 84 ab 0e 00 00    	je     3c05 <node157>
    2d5a:	48 3d db 00 00 00    	cmp    rax,0xdb
    2d60:	0f 84 55 20 00 00    	je     4dbb <node219>
    2d66:	48 83 f8 56          	cmp    rax,0x56
    2d6a:	0f 84 52 fa ff ff    	je     27c2 <node86>
    2d70:	48 3d 59 01 00 00    	cmp    rax,0x159
    2d76:	0f 84 7f 44 00 00    	je     71fb <node345>
    2d7c:	e9 cc 60 00 00       	jmp    8e4d <fail_code>

0000000000002d81 <node111>:
    2d81:	48 8d 05 48 83 00 00 	lea    rax,[rip+0x8348]        # b0d0 <__TMC_END__>
    2d88:	c6 04 18 69          	mov    BYTE PTR [rax+rbx*1],0x69
    2d8c:	48 ff c3             	inc    rbx
    2d8f:	48 8d 3d 7a 82 00 00 	lea    rdi,[rip+0x827a]        # b010 <scanf_format>
    2d96:	48 89 e6             	mov    rsi,rsp
    2d99:	31 c0                	xor    eax,eax
    2d9b:	ff 15 2f 82 00 00    	call   QWORD PTR [rip+0x822f]        # afd0 <scanf@GLIBC_2.2.5>
    2da1:	48 8b 04 24          	mov    rax,QWORD PTR [rsp]
    2da5:	48 3d 8c 00 00 00    	cmp    rax,0x8c
    2dab:	0f 84 55 08 00 00    	je     3606 <node140>
    2db1:	48 3d ca 00 00 00    	cmp    rax,0xca
    2db7:	0f 84 9d 1a 00 00    	je     485a <node202>
    2dbd:	48 3d 4c 01 00 00    	cmp    rax,0x14c
    2dc3:	0f 84 09 41 00 00    	je     6ed2 <node332>
    2dc9:	48 83 f8 75          	cmp    rax,0x75
    2dcd:	0f 84 98 01 00 00    	je     2f6b <node117>
    2dd3:	e9 75 60 00 00       	jmp    8e4d <fail_code>

0000000000002dd8 <node112>:
    2dd8:	48 8d 05 f1 82 00 00 	lea    rax,[rip+0x82f1]        # b0d0 <__TMC_END__>
    2ddf:	c6 04 18 74          	mov    BYTE PTR [rax+rbx*1],0x74
    2de3:	48 ff c3             	inc    rbx
    2de6:	e9 62 60 00 00       	jmp    8e4d <fail_code>

0000000000002deb <node113>:
    2deb:	48 8d 05 de 82 00 00 	lea    rax,[rip+0x82de]        # b0d0 <__TMC_END__>
    2df2:	c6 04 18 72          	mov    BYTE PTR [rax+rbx*1],0x72
    2df6:	48 ff c3             	inc    rbx
    2df9:	48 8d 3d 10 82 00 00 	lea    rdi,[rip+0x8210]        # b010 <scanf_format>
    2e00:	48 89 e6             	mov    rsi,rsp
    2e03:	31 c0                	xor    eax,eax
    2e05:	ff 15 c5 81 00 00    	call   QWORD PTR [rip+0x81c5]        # afd0 <scanf@GLIBC_2.2.5>
    2e0b:	48 8b 04 24          	mov    rax,QWORD PTR [rsp]
    2e0f:	48 83 f8 4b          	cmp    rax,0x4b
    2e13:	0f 84 20 f7 ff ff    	je     2539 <node75>
    2e19:	48 3d a2 01 00 00    	cmp    rax,0x1a2
    2e1f:	0f 84 93 57 00 00    	je     85b8 <node418>
    2e25:	e9 23 60 00 00       	jmp    8e4d <fail_code>

0000000000002e2a <node114>:
    2e2a:	48 8d 05 9f 82 00 00 	lea    rax,[rip+0x829f]        # b0d0 <__TMC_END__>
    2e31:	c6 04 18 24          	mov    BYTE PTR [rax+rbx*1],0x24
    2e35:	48 ff c3             	inc    rbx
    2e38:	48 8d 3d d1 81 00 00 	lea    rdi,[rip+0x81d1]        # b010 <scanf_format>
    2e3f:	48 89 e6             	mov    rsi,rsp
    2e42:	31 c0                	xor    eax,eax
    2e44:	ff 15 86 81 00 00    	call   QWORD PTR [rip+0x8186]        # afd0 <scanf@GLIBC_2.2.5>
    2e4a:	48 8b 04 24          	mov    rax,QWORD PTR [rsp]
    2e4e:	48 3d f6 00 00 00    	cmp    rax,0xf6
    2e54:	0f 84 24 27 00 00    	je     557e <node246>
    2e5a:	48 3d 4d 01 00 00    	cmp    rax,0x14d
    2e60:	0f 84 9f 40 00 00    	je     6f05 <node333>
    2e66:	48 3d c5 01 00 00    	cmp    rax,0x1c5
    2e6c:	0f 84 5c 5f 00 00    	je     8dce <node453>
    2e72:	48 3d 92 01 00 00    	cmp    rax,0x192
    2e78:	0f 84 30 53 00 00    	je     81ae <node402>
    2e7e:	e9 ca 5f 00 00       	jmp    8e4d <fail_code>

0000000000002e83 <node115>:
    2e83:	48 8d 05 46 82 00 00 	lea    rax,[rip+0x8246]        # b0d0 <__TMC_END__>
    2e8a:	c6 04 18 34          	mov    BYTE PTR [rax+rbx*1],0x34
    2e8e:	48 ff c3             	inc    rbx
    2e91:	48 8d 3d 78 81 00 00 	lea    rdi,[rip+0x8178]        # b010 <scanf_format>
    2e98:	48 89 e6             	mov    rsi,rsp
    2e9b:	31 c0                	xor    eax,eax
    2e9d:	ff 15 2d 81 00 00    	call   QWORD PTR [rip+0x812d]        # afd0 <scanf@GLIBC_2.2.5>
    2ea3:	48 8b 04 24          	mov    rax,QWORD PTR [rsp]
    2ea7:	48 3d 32 01 00 00    	cmp    rax,0x132
    2ead:	0f 84 85 38 00 00    	je     6738 <node306>
    2eb3:	48 3d 0c 01 00 00    	cmp    rax,0x10c
    2eb9:	0f 84 57 2d 00 00    	je     5c16 <node268>
    2ebf:	48 83 f8 15          	cmp    rax,0x15
    2ec3:	0f 84 8a e8 ff ff    	je     1753 <node21>
    2ec9:	48 3d c5 00 00 00    	cmp    rax,0xc5
    2ecf:	0f 84 84 17 00 00    	je     4659 <node197>
    2ed5:	48 3d b7 00 00 00    	cmp    rax,0xb7
    2edb:	0f 84 d8 13 00 00    	je     42b9 <node183>
    2ee1:	e9 67 5f 00 00       	jmp    8e4d <fail_code>

0000000000002ee6 <node116>:
    2ee6:	48 8d 05 e3 81 00 00 	lea    rax,[rip+0x81e3]        # b0d0 <__TMC_END__>
    2eed:	c6 04 18 55          	mov    BYTE PTR [rax+rbx*1],0x55
    2ef1:	48 ff c3             	inc    rbx
    2ef4:	48 8d 3d 15 81 00 00 	lea    rdi,[rip+0x8115]        # b010 <scanf_format>
    2efb:	48 89 e6             	mov    rsi,rsp
    2efe:	31 c0                	xor    eax,eax
    2f00:	ff 15 ca 80 00 00    	call   QWORD PTR [rip+0x80ca]        # afd0 <scanf@GLIBC_2.2.5>
    2f06:	48 8b 04 24          	mov    rax,QWORD PTR [rsp]
    2f0a:	48 3d ca 00 00 00    	cmp    rax,0xca
    2f10:	0f 84 44 19 00 00    	je     485a <node202>
    2f16:	48 3d 86 00 00 00    	cmp    rax,0x86
    2f1c:	0f 84 18 05 00 00    	je     343a <node134>
    2f22:	48 3d bc 00 00 00    	cmp    rax,0xbc
    2f28:	0f 84 be 14 00 00    	je     43ec <node188>
    2f2e:	48 3d 90 01 00 00    	cmp    rax,0x190
    2f34:	0f 84 e2 51 00 00    	je     811c <node400>
    2f3a:	48 83 f8 0c          	cmp    rax,0xc
    2f3e:	0f 84 58 e5 ff ff    	je     149c <node12>
    2f44:	48 3d 65 01 00 00    	cmp    rax,0x165
    2f4a:	0f 84 f1 45 00 00    	je     7541 <node357>
    2f50:	48 3d 4b 01 00 00    	cmp    rax,0x14b
    2f56:	0f 84 23 3f 00 00    	je     6e7f <node331>
    2f5c:	48 83 f8 3b          	cmp    rax,0x3b
    2f60:	0f 84 d1 f1 ff ff    	je     2137 <node59>
    2f66:	e9 e2 5e 00 00       	jmp    8e4d <fail_code>

0000000000002f6b <node117>:
    2f6b:	48 8d 05 5e 81 00 00 	lea    rax,[rip+0x815e]        # b0d0 <__TMC_END__>
    2f72:	c6 04 18 3b          	mov    BYTE PTR [rax+rbx*1],0x3b
    2f76:	48 ff c3             	inc    rbx
    2f79:	48 8d 3d 90 80 00 00 	lea    rdi,[rip+0x8090]        # b010 <scanf_format>
    2f80:	48 89 e6             	mov    rsi,rsp
    2f83:	31 c0                	xor    eax,eax
    2f85:	ff 15 45 80 00 00    	call   QWORD PTR [rip+0x8045]        # afd0 <scanf@GLIBC_2.2.5>
    2f8b:	48 8b 04 24          	mov    rax,QWORD PTR [rsp]
    2f8f:	48 83 f8 69          	cmp    rax,0x69
    2f93:	0f 84 9c fc ff ff    	je     2c35 <node105>
    2f99:	e9 af 5e 00 00       	jmp    8e4d <fail_code>

0000000000002f9e <node118>:
    2f9e:	48 8d 05 2b 81 00 00 	lea    rax,[rip+0x812b]        # b0d0 <__TMC_END__>
    2fa5:	c6 04 18 31          	mov    BYTE PTR [rax+rbx*1],0x31
    2fa9:	48 ff c3             	inc    rbx
    2fac:	48 8d 3d 5d 80 00 00 	lea    rdi,[rip+0x805d]        # b010 <scanf_format>
    2fb3:	48 89 e6             	mov    rsi,rsp
    2fb6:	31 c0                	xor    eax,eax
    2fb8:	ff 15 12 80 00 00    	call   QWORD PTR [rip+0x8012]        # afd0 <scanf@GLIBC_2.2.5>
    2fbe:	48 8b 04 24          	mov    rax,QWORD PTR [rsp]
    2fc2:	48 3d cb 00 00 00    	cmp    rax,0xcb
    2fc8:	0f 84 d7 18 00 00    	je     48a5 <node203>
    2fce:	e9 7a 5e 00 00       	jmp    8e4d <fail_code>

0000000000002fd3 <node119>:
    2fd3:	48 8d 05 f6 80 00 00 	lea    rax,[rip+0x80f6]        # b0d0 <__TMC_END__>
    2fda:	c6 04 18 3c          	mov    BYTE PTR [rax+rbx*1],0x3c
    2fde:	48 ff c3             	inc    rbx
    2fe1:	48 8d 3d 28 80 00 00 	lea    rdi,[rip+0x8028]        # b010 <scanf_format>
    2fe8:	48 89 e6             	mov    rsi,rsp
    2feb:	31 c0                	xor    eax,eax
    2fed:	ff 15 dd 7f 00 00    	call   QWORD PTR [rip+0x7fdd]        # afd0 <scanf@GLIBC_2.2.5>
    2ff3:	48 8b 04 24          	mov    rax,QWORD PTR [rsp]
    2ff7:	48 3d e2 00 00 00    	cmp    rax,0xe2
    2ffd:	0f 84 bd 1f 00 00    	je     4fc0 <node226>
    3003:	48 83 f8 12          	cmp    rax,0x12
    3007:	0f 84 77 e6 ff ff    	je     1684 <node18>
    300d:	48 3d 19 01 00 00    	cmp    rax,0x119
    3013:	0f 84 82 30 00 00    	je     609b <node281>
    3019:	48 83 f8 63          	cmp    rax,0x63
    301d:	0f 84 82 fa ff ff    	je     2aa5 <node99>
    3023:	48 83 f8 6f          	cmp    rax,0x6f
    3027:	0f 84 54 fd ff ff    	je     2d81 <node111>
    302d:	e9 1b 5e 00 00       	jmp    8e4d <fail_code>

0000000000003032 <node120>:
    3032:	48 8d 05 97 80 00 00 	lea    rax,[rip+0x8097]        # b0d0 <__TMC_END__>
    3039:	c6 04 18 65          	mov    BYTE PTR [rax+rbx*1],0x65
    303d:	48 ff c3             	inc    rbx
    3040:	48 8d 3d c9 7f 00 00 	lea    rdi,[rip+0x7fc9]        # b010 <scanf_format>
    3047:	48 89 e6             	mov    rsi,rsp
    304a:	31 c0                	xor    eax,eax
    304c:	ff 15 7e 7f 00 00    	call   QWORD PTR [rip+0x7f7e]        # afd0 <scanf@GLIBC_2.2.5>
    3052:	48 8b 04 24          	mov    rax,QWORD PTR [rsp]
    3056:	48 83 f8 70          	cmp    rax,0x70
    305a:	0f 84 78 fd ff ff    	je     2dd8 <node112>
    3060:	48 3d f6 00 00 00    	cmp    rax,0xf6
    3066:	0f 84 12 25 00 00    	je     557e <node246>
    306c:	e9 dc 5d 00 00       	jmp    8e4d <fail_code>

0000000000003071 <node121>:
    3071:	48 8d 05 58 80 00 00 	lea    rax,[rip+0x8058]        # b0d0 <__TMC_END__>
    3078:	c6 04 18 6e          	mov    BYTE PTR [rax+rbx*1],0x6e
    307c:	48 ff c3             	inc    rbx
    307f:	48 8d 3d 8a 7f 00 00 	lea    rdi,[rip+0x7f8a]        # b010 <scanf_format>
    3086:	48 89 e6             	mov    rsi,rsp
    3089:	31 c0                	xor    eax,eax
    308b:	ff 15 3f 7f 00 00    	call   QWORD PTR [rip+0x7f3f]        # afd0 <scanf@GLIBC_2.2.5>
    3091:	48 8b 04 24          	mov    rax,QWORD PTR [rsp]
    3095:	48 3d b7 01 00 00    	cmp    rax,0x1b7
    309b:	0f 84 3e 59 00 00    	je     89df <node439>
    30a1:	48 3d f5 00 00 00    	cmp    rax,0xf5
    30a7:	0f 84 7a 24 00 00    	je     5527 <node245>
    30ad:	e9 9b 5d 00 00       	jmp    8e4d <fail_code>

00000000000030b2 <node122>:
    30b2:	48 8d 05 17 80 00 00 	lea    rax,[rip+0x8017]        # b0d0 <__TMC_END__>
    30b9:	c6 04 18 38          	mov    BYTE PTR [rax+rbx*1],0x38
    30bd:	48 ff c3             	inc    rbx
    30c0:	48 8d 3d 49 7f 00 00 	lea    rdi,[rip+0x7f49]        # b010 <scanf_format>
    30c7:	48 89 e6             	mov    rsi,rsp
    30ca:	31 c0                	xor    eax,eax
    30cc:	ff 15 fe 7e 00 00    	call   QWORD PTR [rip+0x7efe]        # afd0 <scanf@GLIBC_2.2.5>
    30d2:	48 8b 04 24          	mov    rax,QWORD PTR [rsp]
    30d6:	48 3d 87 00 00 00    	cmp    rax,0x87
    30dc:	0f 84 97 03 00 00    	je     3479 <node135>
    30e2:	48 3d 5a 01 00 00    	cmp    rax,0x15a
    30e8:	0f 84 88 41 00 00    	je     7276 <node346>
    30ee:	48 83 f8 34          	cmp    rax,0x34
    30f2:	0f 84 4a ee ff ff    	je     1f42 <node52>
    30f8:	e9 50 5d 00 00       	jmp    8e4d <fail_code>

00000000000030fd <node123>:
    30fd:	48 8d 05 cc 7f 00 00 	lea    rax,[rip+0x7fcc]        # b0d0 <__TMC_END__>
    3104:	c6 04 18 31          	mov    BYTE PTR [rax+rbx*1],0x31
    3108:	48 ff c3             	inc    rbx
    310b:	48 8d 3d fe 7e 00 00 	lea    rdi,[rip+0x7efe]        # b010 <scanf_format>
    3112:	48 89 e6             	mov    rsi,rsp
    3115:	31 c0                	xor    eax,eax
    3117:	ff 15 b3 7e 00 00    	call   QWORD PTR [rip+0x7eb3]        # afd0 <scanf@GLIBC_2.2.5>
    311d:	48 8b 04 24          	mov    rax,QWORD PTR [rsp]
    3121:	48 3d 98 00 00 00    	cmp    rax,0x98
    3127:	0f 84 23 09 00 00    	je     3a50 <node152>
    312d:	48 3d a8 01 00 00    	cmp    rax,0x1a8
    3133:	0f 84 bb 55 00 00    	je     86f4 <node424>
    3139:	48 83 f8 53          	cmp    rax,0x53
    313d:	0f 84 ae f5 ff ff    	je     26f1 <node83>
    3143:	e9 05 5d 00 00       	jmp    8e4d <fail_code>

0000000000003148 <node124>:
    3148:	48 8d 05 81 7f 00 00 	lea    rax,[rip+0x7f81]        # b0d0 <__TMC_END__>
    314f:	c6 04 18 66          	mov    BYTE PTR [rax+rbx*1],0x66
    3153:	48 ff c3             	inc    rbx
    3156:	48 8d 3d b3 7e 00 00 	lea    rdi,[rip+0x7eb3]        # b010 <scanf_format>
    315d:	48 89 e6             	mov    rsi,rsp
    3160:	31 c0                	xor    eax,eax
    3162:	ff 15 68 7e 00 00    	call   QWORD PTR [rip+0x7e68]        # afd0 <scanf@GLIBC_2.2.5>
    3168:	48 8b 04 24          	mov    rax,QWORD PTR [rsp]
    316c:	48 83 f8 60          	cmp    rax,0x60
    3170:	0f 84 b2 f8 ff ff    	je     2a28 <node96>
    3176:	48 3d 8c 01 00 00    	cmp    rax,0x18c
    317c:	0f 84 74 4e 00 00    	je     7ff6 <node396>
    3182:	48 3d 17 01 00 00    	cmp    rax,0x117
    3188:	0f 84 01 2e 00 00    	je     5f8f <node279>
    318e:	48 3d 1d 01 00 00    	cmp    rax,0x11d
    3194:	0f 84 33 30 00 00    	je     61cd <node285>
    319a:	48 3d 63 01 00 00    	cmp    rax,0x163
    31a0:	0f 84 ed 42 00 00    	je     7493 <node355>
    31a6:	e9 a2 5c 00 00       	jmp    8e4d <fail_code>

00000000000031ab <node125>:
    31ab:	48 8d 05 1e 7f 00 00 	lea    rax,[rip+0x7f1e]        # b0d0 <__TMC_END__>
    31b2:	c6 04 18 5d          	mov    BYTE PTR [rax+rbx*1],0x5d
    31b6:	48 ff c3             	inc    rbx
    31b9:	48 8d 3d 50 7e 00 00 	lea    rdi,[rip+0x7e50]        # b010 <scanf_format>
    31c0:	48 89 e6             	mov    rsi,rsp
    31c3:	31 c0                	xor    eax,eax
    31c5:	ff 15 05 7e 00 00    	call   QWORD PTR [rip+0x7e05]        # afd0 <scanf@GLIBC_2.2.5>
    31cb:	48 8b 04 24          	mov    rax,QWORD PTR [rsp]
    31cf:	48 83 f8 2c          	cmp    rax,0x2c
    31d3:	0f 84 85 eb ff ff    	je     1d5e <node44>
    31d9:	48 3d c0 00 00 00    	cmp    rax,0xc0
    31df:	0f 84 33 13 00 00    	je     4518 <node192>
    31e5:	48 3d 13 01 00 00    	cmp    rax,0x113
    31eb:	0f 84 e0 2c 00 00    	je     5ed1 <node275>
    31f1:	e9 57 5c 00 00       	jmp    8e4d <fail_code>

00000000000031f6 <node126>:
    31f6:	48 8d 05 d3 7e 00 00 	lea    rax,[rip+0x7ed3]        # b0d0 <__TMC_END__>
    31fd:	c6 04 18 52          	mov    BYTE PTR [rax+rbx*1],0x52
    3201:	48 ff c3             	inc    rbx
    3204:	48 8d 3d 05 7e 00 00 	lea    rdi,[rip+0x7e05]        # b010 <scanf_format>
    320b:	48 89 e6             	mov    rsi,rsp
    320e:	31 c0                	xor    eax,eax
    3210:	ff 15 ba 7d 00 00    	call   QWORD PTR [rip+0x7dba]        # afd0 <scanf@GLIBC_2.2.5>
    3216:	48 8b 04 24          	mov    rax,QWORD PTR [rsp]
    321a:	48 3d 0b 01 00 00    	cmp    rax,0x10b
    3220:	0f 84 bd 29 00 00    	je     5be3 <node267>
    3226:	48 3d b5 01 00 00    	cmp    rax,0x1b5
    322c:	0f 84 65 57 00 00    	je     8997 <node437>
    3232:	48 3d 29 01 00 00    	cmp    rax,0x129
    3238:	0f 84 11 33 00 00    	je     654f <node297>
    323e:	48 3d ee 00 00 00    	cmp    rax,0xee
    3244:	0f 84 62 20 00 00    	je     52ac <node238>
    324a:	e9 fe 5b 00 00       	jmp    8e4d <fail_code>

000000000000324f <node127>:
    324f:	48 8d 05 7a 7e 00 00 	lea    rax,[rip+0x7e7a]        # b0d0 <__TMC_END__>
    3256:	c6 04 18 52          	mov    BYTE PTR [rax+rbx*1],0x52
    325a:	48 ff c3             	inc    rbx
    325d:	48 8d 3d ac 7d 00 00 	lea    rdi,[rip+0x7dac]        # b010 <scanf_format>
    3264:	48 89 e6             	mov    rsi,rsp
    3267:	31 c0                	xor    eax,eax
    3269:	ff 15 61 7d 00 00    	call   QWORD PTR [rip+0x7d61]        # afd0 <scanf@GLIBC_2.2.5>
    326f:	48 8b 04 24          	mov    rax,QWORD PTR [rsp]
    3273:	48 3d af 01 00 00    	cmp    rax,0x1af
    3279:	0f 84 ae 55 00 00    	je     882d <node431>
    327f:	48 3d a1 00 00 00    	cmp    rax,0xa1
    3285:	0f 84 ca 0a 00 00    	je     3d55 <node161>
    328b:	48 83 f8 34          	cmp    rax,0x34
    328f:	0f 84 ad ec ff ff    	je     1f42 <node52>
    3295:	e9 b3 5b 00 00       	jmp    8e4d <fail_code>

000000000000329a <node128>:
    329a:	48 8d 05 2f 7e 00 00 	lea    rax,[rip+0x7e2f]        # b0d0 <__TMC_END__>
    32a1:	c6 04 18 6a          	mov    BYTE PTR [rax+rbx*1],0x6a
    32a5:	48 ff c3             	inc    rbx
    32a8:	e9 a0 5b 00 00       	jmp    8e4d <fail_code>

00000000000032ad <node129>:
    32ad:	48 8d 05 1c 7e 00 00 	lea    rax,[rip+0x7e1c]        # b0d0 <__TMC_END__>
    32b4:	c6 04 18 51          	mov    BYTE PTR [rax+rbx*1],0x51
    32b8:	48 ff c3             	inc    rbx
    32bb:	e9 8d 5b 00 00       	jmp    8e4d <fail_code>

00000000000032c0 <node130>:
    32c0:	48 8d 05 09 7e 00 00 	lea    rax,[rip+0x7e09]        # b0d0 <__TMC_END__>
    32c7:	c6 04 18 32          	mov    BYTE PTR [rax+rbx*1],0x32
    32cb:	48 ff c3             	inc    rbx
    32ce:	48 8d 3d 3b 7d 00 00 	lea    rdi,[rip+0x7d3b]        # b010 <scanf_format>
    32d5:	48 89 e6             	mov    rsi,rsp
    32d8:	31 c0                	xor    eax,eax
    32da:	ff 15 f0 7c 00 00    	call   QWORD PTR [rip+0x7cf0]        # afd0 <scanf@GLIBC_2.2.5>
    32e0:	48 8b 04 24          	mov    rax,QWORD PTR [rsp]
    32e4:	48 3d 0e 01 00 00    	cmp    rax,0x10e
    32ea:	0f 84 d4 29 00 00    	je     5cc4 <node270>
    32f0:	48 3d 48 01 00 00    	cmp    rax,0x148
    32f6:	0f 84 b4 3a 00 00    	je     6db0 <node328>
    32fc:	48 3d ff 00 00 00    	cmp    rax,0xff
    3302:	0f 84 cd 25 00 00    	je     58d5 <node255>
    3308:	48 3d e7 00 00 00    	cmp    rax,0xe7
    330e:	0f 84 03 1e 00 00    	je     5117 <node231>
    3314:	48 3d ad 01 00 00    	cmp    rax,0x1ad
    331a:	0f 84 e7 54 00 00    	je     8807 <node429>
    3320:	e9 28 5b 00 00       	jmp    8e4d <fail_code>

0000000000003325 <node131>:
    3325:	48 8d 05 a4 7d 00 00 	lea    rax,[rip+0x7da4]        # b0d0 <__TMC_END__>
    332c:	c6 04 18 78          	mov    BYTE PTR [rax+rbx*1],0x78
    3330:	48 ff c3             	inc    rbx
    3333:	48 8d 3d d6 7c 00 00 	lea    rdi,[rip+0x7cd6]        # b010 <scanf_format>
    333a:	48 89 e6             	mov    rsi,rsp
    333d:	31 c0                	xor    eax,eax
    333f:	ff 15 8b 7c 00 00    	call   QWORD PTR [rip+0x7c8b]        # afd0 <scanf@GLIBC_2.2.5>
    3345:	48 8b 04 24          	mov    rax,QWORD PTR [rsp]
    3349:	48 3d 2a 01 00 00    	cmp    rax,0x12a
    334f:	0f 84 2f 32 00 00    	je     6584 <node298>
    3355:	48 3d 6c 01 00 00    	cmp    rax,0x16c
    335b:	0f 84 61 44 00 00    	je     77c2 <node364>
    3361:	48 3d 45 01 00 00    	cmp    rax,0x145
    3367:	0f 84 ea 39 00 00    	je     6d57 <node325>
    336d:	48 3d bb 00 00 00    	cmp    rax,0xbb
    3373:	0f 84 34 10 00 00    	je     43ad <node187>
    3379:	48 3d 95 01 00 00    	cmp    rax,0x195
    337f:	0f 84 c0 4e 00 00    	je     8245 <node405>
    3385:	48 83 f8 07          	cmp    rax,0x7
    3389:	0f 84 c0 df ff ff    	je     134f <node7>
    338f:	e9 b9 5a 00 00       	jmp    8e4d <fail_code>

0000000000003394 <node132>:
    3394:	48 8d 05 35 7d 00 00 	lea    rax,[rip+0x7d35]        # b0d0 <__TMC_END__>
    339b:	c6 04 18 6a          	mov    BYTE PTR [rax+rbx*1],0x6a
    339f:	48 ff c3             	inc    rbx
    33a2:	e9 a6 5a 00 00       	jmp    8e4d <fail_code>

00000000000033a7 <node133>:
    33a7:	48 8d 05 22 7d 00 00 	lea    rax,[rip+0x7d22]        # b0d0 <__TMC_END__>
    33ae:	c6 04 18 7b          	mov    BYTE PTR [rax+rbx*1],0x7b
    33b2:	48 ff c3             	inc    rbx
    33b5:	48 8d 3d 54 7c 00 00 	lea    rdi,[rip+0x7c54]        # b010 <scanf_format>
    33bc:	48 89 e6             	mov    rsi,rsp
    33bf:	31 c0                	xor    eax,eax
    33c1:	ff 15 09 7c 00 00    	call   QWORD PTR [rip+0x7c09]        # afd0 <scanf@GLIBC_2.2.5>
    33c7:	48 8b 04 24          	mov    rax,QWORD PTR [rsp]
    33cb:	48 3d b8 00 00 00    	cmp    rax,0xb8
    33d1:	0f 84 17 0f 00 00    	je     42ee <node184>
    33d7:	48 3d e2 00 00 00    	cmp    rax,0xe2
    33dd:	0f 84 dd 1b 00 00    	je     4fc0 <node226>
    33e3:	48 3d 92 00 00 00    	cmp    rax,0x92
    33e9:	0f 84 2f 04 00 00    	je     381e <node146>
    33ef:	48 3d 8c 01 00 00    	cmp    rax,0x18c
    33f5:	0f 84 fb 4b 00 00    	je     7ff6 <node396>
    33fb:	48 3d 60 01 00 00    	cmp    rax,0x160
    3401:	0f 84 89 3f 00 00    	je     7390 <node352>
    3407:	48 3d 82 01 00 00    	cmp    rax,0x182
    340d:	0f 84 e7 48 00 00    	je     7cfa <node386>
    3413:	48 3d b8 01 00 00    	cmp    rax,0x1b8
    3419:	0f 84 23 56 00 00    	je     8a42 <node440>
    341f:	48 83 f8 47          	cmp    rax,0x47
    3423:	0f 84 06 f0 ff ff    	je     242f <node71>
    3429:	48 3d a3 01 00 00    	cmp    rax,0x1a3
    342f:	0f 84 e6 51 00 00    	je     861b <node419>
    3435:	e9 13 5a 00 00       	jmp    8e4d <fail_code>

000000000000343a <node134>:
    343a:	48 8d 05 8f 7c 00 00 	lea    rax,[rip+0x7c8f]        # b0d0 <__TMC_END__>
    3441:	c6 04 18 4e          	mov    BYTE PTR [rax+rbx*1],0x4e
    3445:	48 ff c3             	inc    rbx
    3448:	48 8d 3d c1 7b 00 00 	lea    rdi,[rip+0x7bc1]        # b010 <scanf_format>
    344f:	48 89 e6             	mov    rsi,rsp
    3452:	31 c0                	xor    eax,eax
    3454:	ff 15 76 7b 00 00    	call   QWORD PTR [rip+0x7b76]        # afd0 <scanf@GLIBC_2.2.5>
    345a:	48 8b 04 24          	mov    rax,QWORD PTR [rsp]
    345e:	48 3d 0c 01 00 00    	cmp    rax,0x10c
    3464:	0f 84 ac 27 00 00    	je     5c16 <node268>
    346a:	48 83 f8 30          	cmp    rax,0x30
    346e:	0f 84 bc e9 ff ff    	je     1e30 <node48>
    3474:	e9 d4 59 00 00       	jmp    8e4d <fail_code>

0000000000003479 <node135>:
    3479:	48 8d 05 50 7c 00 00 	lea    rax,[rip+0x7c50]        # b0d0 <__TMC_END__>
    3480:	c6 04 18 75          	mov    BYTE PTR [rax+rbx*1],0x75
    3484:	48 ff c3             	inc    rbx
    3487:	48 8d 3d 82 7b 00 00 	lea    rdi,[rip+0x7b82]        # b010 <scanf_format>
    348e:	48 89 e6             	mov    rsi,rsp
    3491:	31 c0                	xor    eax,eax
    3493:	ff 15 37 7b 00 00    	call   QWORD PTR [rip+0x7b37]        # afd0 <scanf@GLIBC_2.2.5>
    3499:	48 8b 04 24          	mov    rax,QWORD PTR [rsp]
    349d:	48 83 f8 50          	cmp    rax,0x50
    34a1:	0f 84 b5 f1 ff ff    	je     265c <node80>
    34a7:	e9 a1 59 00 00       	jmp    8e4d <fail_code>

00000000000034ac <node136>:
    34ac:	48 8d 05 1d 7c 00 00 	lea    rax,[rip+0x7c1d]        # b0d0 <__TMC_END__>
    34b3:	c6 04 18 68          	mov    BYTE PTR [rax+rbx*1],0x68
    34b7:	48 ff c3             	inc    rbx
    34ba:	48 8d 3d 4f 7b 00 00 	lea    rdi,[rip+0x7b4f]        # b010 <scanf_format>
    34c1:	48 89 e6             	mov    rsi,rsp
    34c4:	31 c0                	xor    eax,eax
    34c6:	ff 15 04 7b 00 00    	call   QWORD PTR [rip+0x7b04]        # afd0 <scanf@GLIBC_2.2.5>
    34cc:	48 8b 04 24          	mov    rax,QWORD PTR [rsp]
    34d0:	48 83 f8 28          	cmp    rax,0x28
    34d4:	0f 84 0a e8 ff ff    	je     1ce4 <node40>
    34da:	e9 6e 59 00 00       	jmp    8e4d <fail_code>

00000000000034df <node137>:
    34df:	48 8d 05 ea 7b 00 00 	lea    rax,[rip+0x7bea]        # b0d0 <__TMC_END__>
    34e6:	c6 04 18 5e          	mov    BYTE PTR [rax+rbx*1],0x5e
    34ea:	48 ff c3             	inc    rbx
    34ed:	48 8d 3d 1c 7b 00 00 	lea    rdi,[rip+0x7b1c]        # b010 <scanf_format>
    34f4:	48 89 e6             	mov    rsi,rsp
    34f7:	31 c0                	xor    eax,eax
    34f9:	ff 15 d1 7a 00 00    	call   QWORD PTR [rip+0x7ad1]        # afd0 <scanf@GLIBC_2.2.5>
    34ff:	48 8b 04 24          	mov    rax,QWORD PTR [rsp]
    3503:	48 83 f8 72          	cmp    rax,0x72
    3507:	0f 84 1d f9 ff ff    	je     2e2a <node114>
    350d:	48 3d 20 01 00 00    	cmp    rax,0x120
    3513:	0f 84 a3 2d 00 00    	je     62bc <node288>
    3519:	48 83 f8 0c          	cmp    rax,0xc
    351d:	0f 84 79 df ff ff    	je     149c <node12>
    3523:	48 3d d6 00 00 00    	cmp    rax,0xd6
    3529:	0f 84 29 17 00 00    	je     4c58 <node214>
    352f:	48 3d 92 01 00 00    	cmp    rax,0x192
    3535:	0f 84 73 4c 00 00    	je     81ae <node402>
    353b:	48 3d 85 01 00 00    	cmp    rax,0x185
    3541:	0f 84 42 48 00 00    	je     7d89 <node389>
    3547:	48 3d 77 01 00 00    	cmp    rax,0x177
    354d:	0f 84 ec 44 00 00    	je     7a3f <node375>
    3553:	e9 f5 58 00 00       	jmp    8e4d <fail_code>

0000000000003558 <node138>:
    3558:	48 8d 05 71 7b 00 00 	lea    rax,[rip+0x7b71]        # b0d0 <__TMC_END__>
    355f:	c6 04 18 3f          	mov    BYTE PTR [rax+rbx*1],0x3f
    3563:	48 ff c3             	inc    rbx
    3566:	48 8d 3d a3 7a 00 00 	lea    rdi,[rip+0x7aa3]        # b010 <scanf_format>
    356d:	48 89 e6             	mov    rsi,rsp
    3570:	31 c0                	xor    eax,eax
    3572:	ff 15 58 7a 00 00    	call   QWORD PTR [rip+0x7a58]        # afd0 <scanf@GLIBC_2.2.5>
    3578:	48 8b 04 24          	mov    rax,QWORD PTR [rsp]
    357c:	48 3d c4 00 00 00    	cmp    rax,0xc4
    3582:	0f 84 84 10 00 00    	je     460c <node196>
    3588:	48 83 f8 48          	cmp    rax,0x48
    358c:	0f 84 b0 ee ff ff    	je     2442 <node72>
    3592:	48 83 f8 04          	cmp    rax,0x4
    3596:	0f 84 ea dc ff ff    	je     1286 <node4>
    359c:	48 3d 62 01 00 00    	cmp    rax,0x162
    35a2:	0f 84 8c 3e 00 00    	je     7434 <node354>
    35a8:	48 3d c2 00 00 00    	cmp    rax,0xc2
    35ae:	0f 84 cc 0f 00 00    	je     4580 <node194>
    35b4:	48 3d af 01 00 00    	cmp    rax,0x1af
    35ba:	0f 84 6d 52 00 00    	je     882d <node431>
    35c0:	48 3d 63 01 00 00    	cmp    rax,0x163
    35c6:	0f 84 c7 3e 00 00    	je     7493 <node355>
    35cc:	e9 7c 58 00 00       	jmp    8e4d <fail_code>

00000000000035d1 <node139>:
    35d1:	48 8d 05 f8 7a 00 00 	lea    rax,[rip+0x7af8]        # b0d0 <__TMC_END__>
    35d8:	c6 04 18 2f          	mov    BYTE PTR [rax+rbx*1],0x2f
    35dc:	48 ff c3             	inc    rbx
    35df:	48 8d 3d 2a 7a 00 00 	lea    rdi,[rip+0x7a2a]        # b010 <scanf_format>
    35e6:	48 89 e6             	mov    rsi,rsp
    35e9:	31 c0                	xor    eax,eax
    35eb:	ff 15 df 79 00 00    	call   QWORD PTR [rip+0x79df]        # afd0 <scanf@GLIBC_2.2.5>
    35f1:	48 8b 04 24          	mov    rax,QWORD PTR [rsp]
    35f5:	48 3d 07 01 00 00    	cmp    rax,0x107
    35fb:	0f 84 9c 24 00 00    	je     5a9d <node263>
    3601:	e9 47 58 00 00       	jmp    8e4d <fail_code>

0000000000003606 <node140>:
    3606:	48 8d 05 c3 7a 00 00 	lea    rax,[rip+0x7ac3]        # b0d0 <__TMC_END__>
    360d:	c6 04 18 2c          	mov    BYTE PTR [rax+rbx*1],0x2c
    3611:	48 ff c3             	inc    rbx
    3614:	48 8d 3d f5 79 00 00 	lea    rdi,[rip+0x79f5]        # b010 <scanf_format>
    361b:	48 89 e6             	mov    rsi,rsp
    361e:	31 c0                	xor    eax,eax
    3620:	ff 15 aa 79 00 00    	call   QWORD PTR [rip+0x79aa]        # afd0 <scanf@GLIBC_2.2.5>
    3626:	48 8b 04 24          	mov    rax,QWORD PTR [rsp]
    362a:	48 3d 4e 01 00 00    	cmp    rax,0x14e
    3630:	0f 84 10 39 00 00    	je     6f46 <node334>
    3636:	48 3d 2d 01 00 00    	cmp    rax,0x12d
    363c:	0f 84 c9 2f 00 00    	je     660b <node301>
    3642:	e9 06 58 00 00       	jmp    8e4d <fail_code>

0000000000003647 <node141>:
    3647:	48 8d 05 82 7a 00 00 	lea    rax,[rip+0x7a82]        # b0d0 <__TMC_END__>
    364e:	c6 04 18 31          	mov    BYTE PTR [rax+rbx*1],0x31
    3652:	48 ff c3             	inc    rbx
    3655:	48 8d 3d b4 79 00 00 	lea    rdi,[rip+0x79b4]        # b010 <scanf_format>
    365c:	48 89 e6             	mov    rsi,rsp
    365f:	31 c0                	xor    eax,eax
    3661:	ff 15 69 79 00 00    	call   QWORD PTR [rip+0x7969]        # afd0 <scanf@GLIBC_2.2.5>
    3667:	48 8b 04 24          	mov    rax,QWORD PTR [rsp]
    366b:	48 3d 72 01 00 00    	cmp    rax,0x172
    3671:	0f 84 03 43 00 00    	je     797a <node370>
    3677:	48 3d 46 01 00 00    	cmp    rax,0x146
    367d:	0f 84 e7 36 00 00    	je     6d6a <node326>
    3683:	48 3d 39 01 00 00    	cmp    rax,0x139
    3689:	0f 84 e0 32 00 00    	je     696f <node313>
    368f:	48 3d 1f 01 00 00    	cmp    rax,0x11f
    3695:	0f 84 ee 2b 00 00    	je     6289 <node287>
    369b:	48 3d 01 01 00 00    	cmp    rax,0x101
    36a1:	0f 84 8c 22 00 00    	je     5933 <node257>
    36a7:	e9 a1 57 00 00       	jmp    8e4d <fail_code>

00000000000036ac <node142>:
    36ac:	48 8d 05 1d 7a 00 00 	lea    rax,[rip+0x7a1d]        # b0d0 <__TMC_END__>
    36b3:	c6 04 18 31          	mov    BYTE PTR [rax+rbx*1],0x31
    36b7:	48 ff c3             	inc    rbx
    36ba:	48 8d 3d 4f 79 00 00 	lea    rdi,[rip+0x794f]        # b010 <scanf_format>
    36c1:	48 89 e6             	mov    rsi,rsp
    36c4:	31 c0                	xor    eax,eax
    36c6:	ff 15 04 79 00 00    	call   QWORD PTR [rip+0x7904]        # afd0 <scanf@GLIBC_2.2.5>
    36cc:	48 8b 04 24          	mov    rax,QWORD PTR [rsp]
    36d0:	48 3d f1 00 00 00    	cmp    rax,0xf1
    36d6:	0f 84 d7 1c 00 00    	je     53b3 <node241>
    36dc:	48 83 f8 7d          	cmp    rax,0x7d
    36e0:	0f 84 c5 fa ff ff    	je     31ab <node125>
    36e6:	48 3d de 00 00 00    	cmp    rax,0xde
    36ec:	0f 84 cc 17 00 00    	je     4ebe <node222>
    36f2:	e9 56 57 00 00       	jmp    8e4d <fail_code>

00000000000036f7 <node143>:
    36f7:	48 8d 05 d2 79 00 00 	lea    rax,[rip+0x79d2]        # b0d0 <__TMC_END__>
    36fe:	c6 04 18 3a          	mov    BYTE PTR [rax+rbx*1],0x3a
    3702:	48 ff c3             	inc    rbx
    3705:	48 8d 3d 04 79 00 00 	lea    rdi,[rip+0x7904]        # b010 <scanf_format>
    370c:	48 89 e6             	mov    rsi,rsp
    370f:	31 c0                	xor    eax,eax
    3711:	ff 15 b9 78 00 00    	call   QWORD PTR [rip+0x78b9]        # afd0 <scanf@GLIBC_2.2.5>
    3717:	48 8b 04 24          	mov    rax,QWORD PTR [rsp]
    371b:	48 3d 29 01 00 00    	cmp    rax,0x129
    3721:	0f 84 28 2e 00 00    	je     654f <node297>
    3727:	48 3d 41 01 00 00    	cmp    rax,0x141
    372d:	0f 84 ec 34 00 00    	je     6c1f <node321>
    3733:	48 83 f8 4a          	cmp    rax,0x4a
    3737:	0f 84 bb ed ff ff    	je     24f8 <node74>
    373d:	e9 0b 57 00 00       	jmp    8e4d <fail_code>

0000000000003742 <node144>:
    3742:	48 8d 05 87 79 00 00 	lea    rax,[rip+0x7987]        # b0d0 <__TMC_END__>
    3749:	c6 04 18 79          	mov    BYTE PTR [rax+rbx*1],0x79
    374d:	48 ff c3             	inc    rbx
    3750:	48 8d 3d b9 78 00 00 	lea    rdi,[rip+0x78b9]        # b010 <scanf_format>
    3757:	48 89 e6             	mov    rsi,rsp
    375a:	31 c0                	xor    eax,eax
    375c:	ff 15 6e 78 00 00    	call   QWORD PTR [rip+0x786e]        # afd0 <scanf@GLIBC_2.2.5>
    3762:	48 8b 04 24          	mov    rax,QWORD PTR [rsp]
    3766:	48 83 f8 30          	cmp    rax,0x30
    376a:	0f 84 c0 e6 ff ff    	je     1e30 <node48>
    3770:	48 3d ab 01 00 00    	cmp    rax,0x1ab
    3776:	0f 84 37 50 00 00    	je     87b3 <node427>
    377c:	48 3d 4e 01 00 00    	cmp    rax,0x14e
    3782:	0f 84 be 37 00 00    	je     6f46 <node334>
    3788:	e9 c0 56 00 00       	jmp    8e4d <fail_code>

000000000000378d <node145>:
    378d:	48 8d 05 3c 79 00 00 	lea    rax,[rip+0x793c]        # b0d0 <__TMC_END__>
    3794:	c6 04 18 7c          	mov    BYTE PTR [rax+rbx*1],0x7c
    3798:	48 ff c3             	inc    rbx
    379b:	48 8d 3d 6e 78 00 00 	lea    rdi,[rip+0x786e]        # b010 <scanf_format>
    37a2:	48 89 e6             	mov    rsi,rsp
    37a5:	31 c0                	xor    eax,eax
    37a7:	ff 15 23 78 00 00    	call   QWORD PTR [rip+0x7823]        # afd0 <scanf@GLIBC_2.2.5>
    37ad:	48 8b 04 24          	mov    rax,QWORD PTR [rsp]
    37b1:	48 3d 88 00 00 00    	cmp    rax,0x88
    37b7:	0f 84 ef fc ff ff    	je     34ac <node136>
    37bd:	48 3d cc 00 00 00    	cmp    rax,0xcc
    37c3:	0f 84 1d 11 00 00    	je     48e6 <node204>
    37c9:	48 3d 2c 01 00 00    	cmp    rax,0x12c
    37cf:	0f 84 f5 2d 00 00    	je     65ca <node300>
    37d5:	48 3d f4 00 00 00    	cmp    rax,0xf4
    37db:	0f 84 11 1d 00 00    	je     54f2 <node244>
    37e1:	48 3d 01 01 00 00    	cmp    rax,0x101
    37e7:	0f 84 46 21 00 00    	je     5933 <node257>
    37ed:	48 83 f8 16          	cmp    rax,0x16
    37f1:	0f 84 a5 df ff ff    	je     179c <node22>
    37f7:	48 83 f8 3d          	cmp    rax,0x3d
    37fb:	0f 84 e0 e9 ff ff    	je     21e1 <node61>
    3801:	48 3d c5 00 00 00    	cmp    rax,0xc5
    3807:	0f 84 4c 0e 00 00    	je     4659 <node197>
    380d:	48 3d c1 00 00 00    	cmp    rax,0xc1
    3813:	0f 84 32 0d 00 00    	je     454b <node193>
    3819:	e9 2f 56 00 00       	jmp    8e4d <fail_code>

000000000000381e <node146>:
    381e:	48 8d 05 ab 78 00 00 	lea    rax,[rip+0x78ab]        # b0d0 <__TMC_END__>
    3825:	c6 04 18 5e          	mov    BYTE PTR [rax+rbx*1],0x5e
    3829:	48 ff c3             	inc    rbx
    382c:	48 8d 3d dd 77 00 00 	lea    rdi,[rip+0x77dd]        # b010 <scanf_format>
    3833:	48 89 e6             	mov    rsi,rsp
    3836:	31 c0                	xor    eax,eax
    3838:	ff 15 92 77 00 00    	call   QWORD PTR [rip+0x7792]        # afd0 <scanf@GLIBC_2.2.5>
    383e:	48 8b 04 24          	mov    rax,QWORD PTR [rsp]
    3842:	48 83 f8 34          	cmp    rax,0x34
    3846:	0f 84 f6 e6 ff ff    	je     1f42 <node52>
    384c:	e9 fc 55 00 00       	jmp    8e4d <fail_code>

0000000000003851 <node147>:
    3851:	48 8d 05 78 78 00 00 	lea    rax,[rip+0x7878]        # b0d0 <__TMC_END__>
    3858:	c6 04 18 41          	mov    BYTE PTR [rax+rbx*1],0x41
    385c:	48 ff c3             	inc    rbx
    385f:	48 8d 3d aa 77 00 00 	lea    rdi,[rip+0x77aa]        # b010 <scanf_format>
    3866:	48 89 e6             	mov    rsi,rsp
    3869:	31 c0                	xor    eax,eax
    386b:	ff 15 5f 77 00 00    	call   QWORD PTR [rip+0x775f]        # afd0 <scanf@GLIBC_2.2.5>
    3871:	48 8b 04 24          	mov    rax,QWORD PTR [rsp]
    3875:	48 3d 8d 00 00 00    	cmp    rax,0x8d
    387b:	0f 84 c6 fd ff ff    	je     3647 <node141>
    3881:	48 83 f8 7e          	cmp    rax,0x7e
    3885:	0f 84 6b f9 ff ff    	je     31f6 <node126>
    388b:	48 3d 50 01 00 00    	cmp    rax,0x150
    3891:	0f 84 45 37 00 00    	je     6fdc <node336>
    3897:	48 83 f8 4e          	cmp    rax,0x4e
    389b:	0f 84 35 ed ff ff    	je     25d6 <node78>
    38a1:	e9 a7 55 00 00       	jmp    8e4d <fail_code>

00000000000038a6 <node148>:
    38a6:	48 8d 05 23 78 00 00 	lea    rax,[rip+0x7823]        # b0d0 <__TMC_END__>
    38ad:	c6 04 18 76          	mov    BYTE PTR [rax+rbx*1],0x76
    38b1:	48 ff c3             	inc    rbx
    38b4:	48 8d 3d 55 77 00 00 	lea    rdi,[rip+0x7755]        # b010 <scanf_format>
    38bb:	48 89 e6             	mov    rsi,rsp
    38be:	31 c0                	xor    eax,eax
    38c0:	ff 15 0a 77 00 00    	call   QWORD PTR [rip+0x770a]        # afd0 <scanf@GLIBC_2.2.5>
    38c6:	48 8b 04 24          	mov    rax,QWORD PTR [rsp]
    38ca:	48 3d 44 01 00 00    	cmp    rax,0x144
    38d0:	0f 84 4c 34 00 00    	je     6d22 <node324>
    38d6:	48 3d 7a 01 00 00    	cmp    rax,0x17a
    38dc:	0f 84 f0 41 00 00    	je     7ad2 <node378>
    38e2:	48 3d 4b 01 00 00    	cmp    rax,0x14b
    38e8:	0f 84 91 35 00 00    	je     6e7f <node331>
    38ee:	48 3d 31 01 00 00    	cmp    rax,0x131
    38f4:	0f 84 fd 2d 00 00    	je     66f7 <node305>
    38fa:	48 83 f8 7f          	cmp    rax,0x7f
    38fe:	0f 84 4b f9 ff ff    	je     324f <node127>
    3904:	e9 44 55 00 00       	jmp    8e4d <fail_code>

0000000000003909 <node149>:
    3909:	48 8d 05 c0 77 00 00 	lea    rax,[rip+0x77c0]        # b0d0 <__TMC_END__>
    3910:	c6 04 18 36          	mov    BYTE PTR [rax+rbx*1],0x36
    3914:	48 ff c3             	inc    rbx
    3917:	48 8d 3d f2 76 00 00 	lea    rdi,[rip+0x76f2]        # b010 <scanf_format>
    391e:	48 89 e6             	mov    rsi,rsp
    3921:	31 c0                	xor    eax,eax
    3923:	ff 15 a7 76 00 00    	call   QWORD PTR [rip+0x76a7]        # afd0 <scanf@GLIBC_2.2.5>
    3929:	48 8b 04 24          	mov    rax,QWORD PTR [rsp]
    392d:	48 3d 1a 01 00 00    	cmp    rax,0x11a
    3933:	0f 84 bb 27 00 00    	je     60f4 <node282>
    3939:	48 3d a0 01 00 00    	cmp    rax,0x1a0
    393f:	0f 84 f3 4b 00 00    	je     8538 <node416>
    3945:	48 3d 54 01 00 00    	cmp    rax,0x154
    394b:	0f 84 81 37 00 00    	je     70d2 <node340>
    3951:	48 83 f8 63          	cmp    rax,0x63
    3955:	0f 84 4a f1 ff ff    	je     2aa5 <node99>
    395b:	48 3d 3b 01 00 00    	cmp    rax,0x13b
    3961:	0f 84 72 30 00 00    	je     69d9 <node315>
    3967:	48 3d 51 01 00 00    	cmp    rax,0x151
    396d:	0f 84 7c 36 00 00    	je     6fef <node337>
    3973:	e9 d5 54 00 00       	jmp    8e4d <fail_code>

0000000000003978 <node150>:
    3978:	48 8d 05 51 77 00 00 	lea    rax,[rip+0x7751]        # b0d0 <__TMC_END__>
    397f:	c6 04 18 5f          	mov    BYTE PTR [rax+rbx*1],0x5f
    3983:	48 ff c3             	inc    rbx
    3986:	48 8d 3d 83 76 00 00 	lea    rdi,[rip+0x7683]        # b010 <scanf_format>
    398d:	48 89 e6             	mov    rsi,rsp
    3990:	31 c0                	xor    eax,eax
    3992:	ff 15 38 76 00 00    	call   QWORD PTR [rip+0x7638]        # afd0 <scanf@GLIBC_2.2.5>
    3998:	48 8b 04 24          	mov    rax,QWORD PTR [rsp]
    399c:	48 3d 7b 01 00 00    	cmp    rax,0x17b
    39a2:	0f 84 67 41 00 00    	je     7b0f <node379>
    39a8:	48 83 f8 68          	cmp    rax,0x68
    39ac:	0f 84 fa f1 ff ff    	je     2bac <node104>
    39b2:	e9 96 54 00 00       	jmp    8e4d <fail_code>

00000000000039b7 <node151>:
    39b7:	48 8d 05 12 77 00 00 	lea    rax,[rip+0x7712]        # b0d0 <__TMC_END__>
    39be:	c6 04 18 57          	mov    BYTE PTR [rax+rbx*1],0x57
    39c2:	48 ff c3             	inc    rbx
    39c5:	48 8d 3d 44 76 00 00 	lea    rdi,[rip+0x7644]        # b010 <scanf_format>
    39cc:	48 89 e6             	mov    rsi,rsp
    39cf:	31 c0                	xor    eax,eax
    39d1:	ff 15 f9 75 00 00    	call   QWORD PTR [rip+0x75f9]        # afd0 <scanf@GLIBC_2.2.5>
    39d7:	48 8b 04 24          	mov    rax,QWORD PTR [rsp]
    39db:	48 3d 32 01 00 00    	cmp    rax,0x132
    39e1:	0f 84 51 2d 00 00    	je     6738 <node306>
    39e7:	48 3d b8 00 00 00    	cmp    rax,0xb8
    39ed:	0f 84 fb 08 00 00    	je     42ee <node184>
    39f3:	48 83 f8 04          	cmp    rax,0x4
    39f7:	0f 84 89 d8 ff ff    	je     1286 <node4>
    39fd:	48 3d f0 00 00 00    	cmp    rax,0xf0
    3a03:	0f 84 6b 19 00 00    	je     5374 <node240>
    3a09:	48 3d bf 01 00 00    	cmp    rax,0x1bf
    3a0f:	0f 84 04 52 00 00    	je     8c19 <node447>
    3a15:	48 83 f8 61          	cmp    rax,0x61
    3a19:	0f 84 3e f0 ff ff    	je     2a5d <node97>
    3a1f:	48 83 f8 07          	cmp    rax,0x7
    3a23:	0f 84 26 d9 ff ff    	je     134f <node7>
    3a29:	48 3d 4b 01 00 00    	cmp    rax,0x14b
    3a2f:	0f 84 4a 34 00 00    	je     6e7f <node331>
    3a35:	48 83 f8 7f          	cmp    rax,0x7f
    3a39:	0f 84 10 f8 ff ff    	je     324f <node127>
    3a3f:	48 3d 8f 00 00 00    	cmp    rax,0x8f
    3a45:	0f 84 ac fc ff ff    	je     36f7 <node143>
    3a4b:	e9 fd 53 00 00       	jmp    8e4d <fail_code>

0000000000003a50 <node152>:
    3a50:	48 8d 05 79 76 00 00 	lea    rax,[rip+0x7679]        # b0d0 <__TMC_END__>
    3a57:	c6 04 18 50          	mov    BYTE PTR [rax+rbx*1],0x50
    3a5b:	48 ff c3             	inc    rbx
    3a5e:	48 8d 3d ab 75 00 00 	lea    rdi,[rip+0x75ab]        # b010 <scanf_format>
    3a65:	48 89 e6             	mov    rsi,rsp
    3a68:	31 c0                	xor    eax,eax
    3a6a:	ff 15 60 75 00 00    	call   QWORD PTR [rip+0x7560]        # afd0 <scanf@GLIBC_2.2.5>
    3a70:	48 8b 04 24          	mov    rax,QWORD PTR [rsp]
    3a74:	48 3d a5 01 00 00    	cmp    rax,0x1a5
    3a7a:	0f 84 ed 4b 00 00    	je     866d <node421>
    3a80:	e9 c8 53 00 00       	jmp    8e4d <fail_code>

0000000000003a85 <node153>:
    3a85:	48 8d 05 44 76 00 00 	lea    rax,[rip+0x7644]        # b0d0 <__TMC_END__>
    3a8c:	c6 04 18 4c          	mov    BYTE PTR [rax+rbx*1],0x4c
    3a90:	48 ff c3             	inc    rbx
    3a93:	48 8d 3d 76 75 00 00 	lea    rdi,[rip+0x7576]        # b010 <scanf_format>
    3a9a:	48 89 e6             	mov    rsi,rsp
    3a9d:	31 c0                	xor    eax,eax
    3a9f:	ff 15 2b 75 00 00    	call   QWORD PTR [rip+0x752b]        # afd0 <scanf@GLIBC_2.2.5>
    3aa5:	48 8b 04 24          	mov    rax,QWORD PTR [rsp]
    3aa9:	48 3d 4e 01 00 00    	cmp    rax,0x14e
    3aaf:	0f 84 91 34 00 00    	je     6f46 <node334>
    3ab5:	48 3d 85 01 00 00    	cmp    rax,0x185
    3abb:	0f 84 c8 42 00 00    	je     7d89 <node389>
    3ac1:	48 3d 80 00 00 00    	cmp    rax,0x80
    3ac7:	0f 84 cd f7 ff ff    	je     329a <node128>
    3acd:	e9 7b 53 00 00       	jmp    8e4d <fail_code>

0000000000003ad2 <node154>:
    3ad2:	48 8d 05 f7 75 00 00 	lea    rax,[rip+0x75f7]        # b0d0 <__TMC_END__>
    3ad9:	c6 04 18 39          	mov    BYTE PTR [rax+rbx*1],0x39
    3add:	48 ff c3             	inc    rbx
    3ae0:	48 8d 3d 29 75 00 00 	lea    rdi,[rip+0x7529]        # b010 <scanf_format>
    3ae7:	48 89 e6             	mov    rsi,rsp
    3aea:	31 c0                	xor    eax,eax
    3aec:	ff 15 de 74 00 00    	call   QWORD PTR [rip+0x74de]        # afd0 <scanf@GLIBC_2.2.5>
    3af2:	48 8b 04 24          	mov    rax,QWORD PTR [rsp]
    3af6:	48 3d ac 00 00 00    	cmp    rax,0xac
    3afc:	0f 84 c2 04 00 00    	je     3fc4 <node172>
    3b02:	48 83 f8 66          	cmp    rax,0x66
    3b06:	0f 84 58 f0 ff ff    	je     2b64 <node102>
    3b0c:	48 83 f8 6a          	cmp    rax,0x6a
    3b10:	0f 84 32 f1 ff ff    	je     2c48 <node106>
    3b16:	48 3d 95 00 00 00    	cmp    rax,0x95
    3b1c:	0f 84 e7 fd ff ff    	je     3909 <node149>
    3b22:	48 3d 55 01 00 00    	cmp    rax,0x155
    3b28:	0f 84 b7 35 00 00    	je     70e5 <node341>
    3b2e:	48 3d c7 00 00 00    	cmp    rax,0xc7
    3b34:	0f 84 e3 0b 00 00    	je     471d <node199>
    3b3a:	48 3d 7f 01 00 00    	cmp    rax,0x17f
    3b40:	0f 84 db 40 00 00    	je     7c21 <node383>
    3b46:	e9 02 53 00 00       	jmp    8e4d <fail_code>

0000000000003b4b <node155>:
    3b4b:	48 8d 05 7e 75 00 00 	lea    rax,[rip+0x757e]        # b0d0 <__TMC_END__>
    3b52:	c6 04 18 75          	mov    BYTE PTR [rax+rbx*1],0x75
    3b56:	48 ff c3             	inc    rbx
    3b59:	48 8d 3d b0 74 00 00 	lea    rdi,[rip+0x74b0]        # b010 <scanf_format>
    3b60:	48 89 e6             	mov    rsi,rsp
    3b63:	31 c0                	xor    eax,eax
    3b65:	ff 15 65 74 00 00    	call   QWORD PTR [rip+0x7465]        # afd0 <scanf@GLIBC_2.2.5>
    3b6b:	48 8b 04 24          	mov    rax,QWORD PTR [rsp]
    3b6f:	48 3d 76 01 00 00    	cmp    rax,0x176
    3b75:	0f 84 6d 3e 00 00    	je     79e8 <node374>
    3b7b:	48 83 f8 38          	cmp    rax,0x38
    3b7f:	0f 84 93 e4 ff ff    	je     2018 <node56>
    3b85:	48 3d 62 01 00 00    	cmp    rax,0x162
    3b8b:	0f 84 a3 38 00 00    	je     7434 <node354>
    3b91:	48 3d 8e 00 00 00    	cmp    rax,0x8e
    3b97:	0f 84 0f fb ff ff    	je     36ac <node142>
    3b9d:	48 83 f8 16          	cmp    rax,0x16
    3ba1:	0f 84 f5 db ff ff    	je     179c <node22>
    3ba7:	48 3d 19 01 00 00    	cmp    rax,0x119
    3bad:	0f 84 e8 24 00 00    	je     609b <node281>
    3bb3:	48 3d a1 01 00 00    	cmp    rax,0x1a1
    3bb9:	0f 84 b8 49 00 00    	je     8577 <node417>
    3bbf:	e9 89 52 00 00       	jmp    8e4d <fail_code>

0000000000003bc4 <node156>:
    3bc4:	48 8d 05 05 75 00 00 	lea    rax,[rip+0x7505]        # b0d0 <__TMC_END__>
    3bcb:	c6 04 18 71          	mov    BYTE PTR [rax+rbx*1],0x71
    3bcf:	48 ff c3             	inc    rbx
    3bd2:	48 8d 3d 37 74 00 00 	lea    rdi,[rip+0x7437]        # b010 <scanf_format>
    3bd9:	48 89 e6             	mov    rsi,rsp
    3bdc:	31 c0                	xor    eax,eax
    3bde:	ff 15 ec 73 00 00    	call   QWORD PTR [rip+0x73ec]        # afd0 <scanf@GLIBC_2.2.5>
    3be4:	48 8b 04 24          	mov    rax,QWORD PTR [rsp]
    3be8:	48 3d 98 01 00 00    	cmp    rax,0x198
    3bee:	0f 84 fe 46 00 00    	je     82f2 <node408>
    3bf4:	48 3d e9 00 00 00    	cmp    rax,0xe9
    3bfa:	0f 84 5d 15 00 00    	je     515d <node233>
    3c00:	e9 48 52 00 00       	jmp    8e4d <fail_code>

0000000000003c05 <node157>:
    3c05:	48 8d 05 c4 74 00 00 	lea    rax,[rip+0x74c4]        # b0d0 <__TMC_END__>
    3c0c:	c6 04 18 59          	mov    BYTE PTR [rax+rbx*1],0x59
    3c10:	48 ff c3             	inc    rbx
    3c13:	48 8d 3d f6 73 00 00 	lea    rdi,[rip+0x73f6]        # b010 <scanf_format>
    3c1a:	48 89 e6             	mov    rsi,rsp
    3c1d:	31 c0                	xor    eax,eax
    3c1f:	ff 15 ab 73 00 00    	call   QWORD PTR [rip+0x73ab]        # afd0 <scanf@GLIBC_2.2.5>
    3c25:	48 8b 04 24          	mov    rax,QWORD PTR [rsp]
    3c29:	48 3d 3a 01 00 00    	cmp    rax,0x13a
    3c2f:	0f 84 91 2d 00 00    	je     69c6 <node314>
    3c35:	48 3d 38 01 00 00    	cmp    rax,0x138
    3c3b:	0f 84 d7 2c 00 00    	je     6918 <node312>
    3c41:	48 3d 9e 00 00 00    	cmp    rax,0x9e
    3c47:	74 35                	je     3c7e <node158>
    3c49:	48 3d e2 00 00 00    	cmp    rax,0xe2
    3c4f:	0f 84 6b 13 00 00    	je     4fc0 <node226>
    3c55:	48 3d 9b 01 00 00    	cmp    rax,0x19b
    3c5b:	0f 84 8e 47 00 00    	je     83ef <node411>
    3c61:	48 3d 1b 01 00 00    	cmp    rax,0x11b
    3c67:	0f 84 e0 24 00 00    	je     614d <node283>
    3c6d:	48 3d 99 01 00 00    	cmp    rax,0x199
    3c73:	0f 84 ae 46 00 00    	je     8327 <node409>
    3c79:	e9 cf 51 00 00       	jmp    8e4d <fail_code>

0000000000003c7e <node158>:
    3c7e:	48 8d 05 4b 74 00 00 	lea    rax,[rip+0x744b]        # b0d0 <__TMC_END__>
    3c85:	c6 04 18 73          	mov    BYTE PTR [rax+rbx*1],0x73
    3c89:	48 ff c3             	inc    rbx
    3c8c:	48 8d 3d 7d 73 00 00 	lea    rdi,[rip+0x737d]        # b010 <scanf_format>
    3c93:	48 89 e6             	mov    rsi,rsp
    3c96:	31 c0                	xor    eax,eax
    3c98:	ff 15 32 73 00 00    	call   QWORD PTR [rip+0x7332]        # afd0 <scanf@GLIBC_2.2.5>
    3c9e:	48 8b 04 24          	mov    rax,QWORD PTR [rsp]
    3ca2:	48 83 f8 3b          	cmp    rax,0x3b
    3ca6:	0f 84 8b e4 ff ff    	je     2137 <node59>
    3cac:	48 3d 7c 01 00 00    	cmp    rax,0x17c
    3cb2:	0f 84 94 3e 00 00    	je     7b4c <node380>
    3cb8:	48 3d 5d 01 00 00    	cmp    rax,0x15d
    3cbe:	0f 84 71 36 00 00    	je     7335 <node349>
    3cc4:	e9 84 51 00 00       	jmp    8e4d <fail_code>

0000000000003cc9 <node159>:
    3cc9:	48 8d 05 00 74 00 00 	lea    rax,[rip+0x7400]        # b0d0 <__TMC_END__>
    3cd0:	c6 04 18 49          	mov    BYTE PTR [rax+rbx*1],0x49
    3cd4:	48 ff c3             	inc    rbx
    3cd7:	48 8d 3d 32 73 00 00 	lea    rdi,[rip+0x7332]        # b010 <scanf_format>
    3cde:	48 89 e6             	mov    rsi,rsp
    3ce1:	31 c0                	xor    eax,eax
    3ce3:	ff 15 e7 72 00 00    	call   QWORD PTR [rip+0x72e7]        # afd0 <scanf@GLIBC_2.2.5>
    3ce9:	48 8b 04 24          	mov    rax,QWORD PTR [rsp]
    3ced:	48 83 f8 5f          	cmp    rax,0x5f
    3cf1:	0f 84 fc ec ff ff    	je     29f3 <node95>
    3cf7:	48 3d cd 00 00 00    	cmp    rax,0xcd
    3cfd:	0f 84 20 0c 00 00    	je     4923 <node205>
    3d03:	e9 45 51 00 00       	jmp    8e4d <fail_code>

0000000000003d08 <node160>:
    3d08:	48 8d 05 c1 73 00 00 	lea    rax,[rip+0x73c1]        # b0d0 <__TMC_END__>
    3d0f:	c6 04 18 30          	mov    BYTE PTR [rax+rbx*1],0x30
    3d13:	48 ff c3             	inc    rbx
    3d16:	48 8d 3d f3 72 00 00 	lea    rdi,[rip+0x72f3]        # b010 <scanf_format>
    3d1d:	48 89 e6             	mov    rsi,rsp
    3d20:	31 c0                	xor    eax,eax
    3d22:	ff 15 a8 72 00 00    	call   QWORD PTR [rip+0x72a8]        # afd0 <scanf@GLIBC_2.2.5>
    3d28:	48 8b 04 24          	mov    rax,QWORD PTR [rsp]
    3d2c:	48 3d 31 01 00 00    	cmp    rax,0x131
    3d32:	0f 84 bf 29 00 00    	je     66f7 <node305>
    3d38:	48 3d 25 01 00 00    	cmp    rax,0x125
    3d3e:	0f 84 f3 26 00 00    	je     6437 <node293>
    3d44:	48 3d ce 00 00 00    	cmp    rax,0xce
    3d4a:	0f 84 08 0c 00 00    	je     4958 <node206>
    3d50:	e9 f8 50 00 00       	jmp    8e4d <fail_code>

0000000000003d55 <node161>:
    3d55:	48 8d 05 74 73 00 00 	lea    rax,[rip+0x7374]        # b0d0 <__TMC_END__>
    3d5c:	c6 04 18 62          	mov    BYTE PTR [rax+rbx*1],0x62
    3d60:	48 ff c3             	inc    rbx
    3d63:	e9 e5 50 00 00       	jmp    8e4d <fail_code>

0000000000003d68 <node162>:
    3d68:	48 8d 05 61 73 00 00 	lea    rax,[rip+0x7361]        # b0d0 <__TMC_END__>
    3d6f:	c6 04 18 75          	mov    BYTE PTR [rax+rbx*1],0x75
    3d73:	48 ff c3             	inc    rbx
    3d76:	e9 d2 50 00 00       	jmp    8e4d <fail_code>

0000000000003d7b <node163>:
    3d7b:	48 8d 05 4e 73 00 00 	lea    rax,[rip+0x734e]        # b0d0 <__TMC_END__>
    3d82:	c6 04 18 55          	mov    BYTE PTR [rax+rbx*1],0x55
    3d86:	48 ff c3             	inc    rbx
    3d89:	48 8d 3d 80 72 00 00 	lea    rdi,[rip+0x7280]        # b010 <scanf_format>
    3d90:	48 89 e6             	mov    rsi,rsp
    3d93:	31 c0                	xor    eax,eax
    3d95:	ff 15 35 72 00 00    	call   QWORD PTR [rip+0x7235]        # afd0 <scanf@GLIBC_2.2.5>
    3d9b:	48 8b 04 24          	mov    rax,QWORD PTR [rsp]
    3d9f:	48 3d f8 00 00 00    	cmp    rax,0xf8
    3da5:	0f 84 45 18 00 00    	je     55f0 <node248>
    3dab:	48 3d ec 00 00 00    	cmp    rax,0xec
    3db1:	0f 84 73 14 00 00    	je     522a <node236>
    3db7:	48 3d ae 00 00 00    	cmp    rax,0xae
    3dbd:	0f 84 bb 02 00 00    	je     407e <node174>
    3dc3:	48 3d 62 01 00 00    	cmp    rax,0x162
    3dc9:	0f 84 65 36 00 00    	je     7434 <node354>
    3dcf:	48 3d b7 00 00 00    	cmp    rax,0xb7
    3dd5:	0f 84 de 04 00 00    	je     42b9 <node183>
    3ddb:	48 3d 87 01 00 00    	cmp    rax,0x187
    3de1:	0f 84 52 40 00 00    	je     7e39 <node391>
    3de7:	e9 61 50 00 00       	jmp    8e4d <fail_code>

0000000000003dec <node164>:
    3dec:	48 8d 05 dd 72 00 00 	lea    rax,[rip+0x72dd]        # b0d0 <__TMC_END__>
    3df3:	c6 04 18 56          	mov    BYTE PTR [rax+rbx*1],0x56
    3df7:	48 ff c3             	inc    rbx
    3dfa:	e9 4e 50 00 00       	jmp    8e4d <fail_code>

0000000000003dff <node165>:
    3dff:	48 8d 05 ca 72 00 00 	lea    rax,[rip+0x72ca]        # b0d0 <__TMC_END__>
    3e06:	c6 04 18 6a          	mov    BYTE PTR [rax+rbx*1],0x6a
    3e0a:	48 ff c3             	inc    rbx
    3e0d:	48 8d 3d fc 71 00 00 	lea    rdi,[rip+0x71fc]        # b010 <scanf_format>
    3e14:	48 89 e6             	mov    rsi,rsp
    3e17:	31 c0                	xor    eax,eax
    3e19:	ff 15 b1 71 00 00    	call   QWORD PTR [rip+0x71b1]        # afd0 <scanf@GLIBC_2.2.5>
    3e1f:	48 8b 04 24          	mov    rax,QWORD PTR [rsp]
    3e23:	48 3d 81 00 00 00    	cmp    rax,0x81
    3e29:	0f 84 7e f4 ff ff    	je     32ad <node129>
    3e2f:	48 83 f8 70          	cmp    rax,0x70
    3e33:	0f 84 9f ef ff ff    	je     2dd8 <node112>
    3e39:	e9 0f 50 00 00       	jmp    8e4d <fail_code>

0000000000003e3e <node166>:
    3e3e:	48 8d 05 8b 72 00 00 	lea    rax,[rip+0x728b]        # b0d0 <__TMC_END__>
    3e45:	c6 04 18 24          	mov    BYTE PTR [rax+rbx*1],0x24
    3e49:	48 ff c3             	inc    rbx
    3e4c:	48 8d 3d bd 71 00 00 	lea    rdi,[rip+0x71bd]        # b010 <scanf_format>
    3e53:	48 89 e6             	mov    rsi,rsp
    3e56:	31 c0                	xor    eax,eax
    3e58:	ff 15 72 71 00 00    	call   QWORD PTR [rip+0x7172]        # afd0 <scanf@GLIBC_2.2.5>
    3e5e:	48 8b 04 24          	mov    rax,QWORD PTR [rsp]
    3e62:	48 3d 48 01 00 00    	cmp    rax,0x148
    3e68:	0f 84 42 2f 00 00    	je     6db0 <node328>
    3e6e:	48 83 f8 16          	cmp    rax,0x16
    3e72:	0f 84 24 d9 ff ff    	je     179c <node22>
    3e78:	48 3d b3 00 00 00    	cmp    rax,0xb3
    3e7e:	0f 84 37 03 00 00    	je     41bb <node179>
    3e84:	48 3d fe 00 00 00    	cmp    rax,0xfe
    3e8a:	0f 84 10 1a 00 00    	je     58a0 <node254>
    3e90:	e9 b8 4f 00 00       	jmp    8e4d <fail_code>

0000000000003e95 <node167>:
    3e95:	48 8d 05 34 72 00 00 	lea    rax,[rip+0x7234]        # b0d0 <__TMC_END__>
    3e9c:	c6 04 18 33          	mov    BYTE PTR [rax+rbx*1],0x33
    3ea0:	48 ff c3             	inc    rbx
    3ea3:	48 8d 3d 66 71 00 00 	lea    rdi,[rip+0x7166]        # b010 <scanf_format>
    3eaa:	48 89 e6             	mov    rsi,rsp
    3ead:	31 c0                	xor    eax,eax
    3eaf:	ff 15 1b 71 00 00    	call   QWORD PTR [rip+0x711b]        # afd0 <scanf@GLIBC_2.2.5>
    3eb5:	48 8b 04 24          	mov    rax,QWORD PTR [rsp]
    3eb9:	48 83 f8 37          	cmp    rax,0x37
    3ebd:	0f 84 42 e1 ff ff    	je     2005 <node55>
    3ec3:	e9 85 4f 00 00       	jmp    8e4d <fail_code>

0000000000003ec8 <node168>:
    3ec8:	48 8d 05 01 72 00 00 	lea    rax,[rip+0x7201]        # b0d0 <__TMC_END__>
    3ecf:	c6 04 18 61          	mov    BYTE PTR [rax+rbx*1],0x61
    3ed3:	48 ff c3             	inc    rbx
    3ed6:	48 8d 3d 33 71 00 00 	lea    rdi,[rip+0x7133]        # b010 <scanf_format>
    3edd:	48 89 e6             	mov    rsi,rsp
    3ee0:	31 c0                	xor    eax,eax
    3ee2:	ff 15 e8 70 00 00    	call   QWORD PTR [rip+0x70e8]        # afd0 <scanf@GLIBC_2.2.5>
    3ee8:	48 8b 04 24          	mov    rax,QWORD PTR [rsp]
    3eec:	48 3d 98 00 00 00    	cmp    rax,0x98
    3ef2:	0f 84 58 fb ff ff    	je     3a50 <node152>
    3ef8:	48 83 f8 02          	cmp    rax,0x2
    3efc:	0f 84 d4 d2 ff ff    	je     11d6 <node2>
    3f02:	e9 46 4f 00 00       	jmp    8e4d <fail_code>

0000000000003f07 <node169>:
    3f07:	48 8d 05 c2 71 00 00 	lea    rax,[rip+0x71c2]        # b0d0 <__TMC_END__>
    3f0e:	c6 04 18 2f          	mov    BYTE PTR [rax+rbx*1],0x2f
    3f12:	48 ff c3             	inc    rbx
    3f15:	48 8d 3d f4 70 00 00 	lea    rdi,[rip+0x70f4]        # b010 <scanf_format>
    3f1c:	48 89 e6             	mov    rsi,rsp
    3f1f:	31 c0                	xor    eax,eax
    3f21:	ff 15 a9 70 00 00    	call   QWORD PTR [rip+0x70a9]        # afd0 <scanf@GLIBC_2.2.5>
    3f27:	48 8b 04 24          	mov    rax,QWORD PTR [rsp]
    3f2b:	48 83 f8 4a          	cmp    rax,0x4a
    3f2f:	0f 84 c3 e5 ff ff    	je     24f8 <node74>
    3f35:	48 3d b4 00 00 00    	cmp    rax,0xb4
    3f3b:	0f 84 d1 02 00 00    	je     4212 <node180>
    3f41:	48 3d 28 01 00 00    	cmp    rax,0x128
    3f47:	0f 84 9f 25 00 00    	je     64ec <node296>
    3f4d:	48 83 f8 21          	cmp    rax,0x21
    3f51:	0f 84 56 db ff ff    	je     1aad <node33>
    3f57:	48 3d c0 01 00 00    	cmp    rax,0x1c0
    3f5d:	0f 84 f7 4c 00 00    	je     8c5a <node448>
    3f63:	48 83 f8 37          	cmp    rax,0x37
    3f67:	0f 84 98 e0 ff ff    	je     2005 <node55>
    3f6d:	48 3d 87 01 00 00    	cmp    rax,0x187
    3f73:	0f 84 c0 3e 00 00    	je     7e39 <node391>
    3f79:	e9 cf 4e 00 00       	jmp    8e4d <fail_code>

0000000000003f7e <node170>:
    3f7e:	48 8d 05 4b 71 00 00 	lea    rax,[rip+0x714b]        # b0d0 <__TMC_END__>
    3f85:	c6 04 18 3d          	mov    BYTE PTR [rax+rbx*1],0x3d
    3f89:	48 ff c3             	inc    rbx
    3f8c:	48 8d 3d 7d 70 00 00 	lea    rdi,[rip+0x707d]        # b010 <scanf_format>
    3f93:	48 89 e6             	mov    rsi,rsp
    3f96:	31 c0                	xor    eax,eax
    3f98:	ff 15 32 70 00 00    	call   QWORD PTR [rip+0x7032]        # afd0 <scanf@GLIBC_2.2.5>
    3f9e:	48 8b 04 24          	mov    rax,QWORD PTR [rsp]
    3fa2:	48 83 f8 40          	cmp    rax,0x40
    3fa6:	0f 84 d0 e2 ff ff    	je     227c <node64>
    3fac:	e9 9c 4e 00 00       	jmp    8e4d <fail_code>

0000000000003fb1 <node171>:
    3fb1:	48 8d 05 18 71 00 00 	lea    rax,[rip+0x7118]        # b0d0 <__TMC_END__>
    3fb8:	c6 04 18 40          	mov    BYTE PTR [rax+rbx*1],0x40
    3fbc:	48 ff c3             	inc    rbx
    3fbf:	e9 89 4e 00 00       	jmp    8e4d <fail_code>

0000000000003fc4 <node172>:
    3fc4:	48 8d 05 05 71 00 00 	lea    rax,[rip+0x7105]        # b0d0 <__TMC_END__>
    3fcb:	c6 04 18 45          	mov    BYTE PTR [rax+rbx*1],0x45
    3fcf:	48 ff c3             	inc    rbx
    3fd2:	48 8d 3d 37 70 00 00 	lea    rdi,[rip+0x7037]        # b010 <scanf_format>
    3fd9:	48 89 e6             	mov    rsi,rsp
    3fdc:	31 c0                	xor    eax,eax
    3fde:	ff 15 ec 6f 00 00    	call   QWORD PTR [rip+0x6fec]        # afd0 <scanf@GLIBC_2.2.5>
    3fe4:	48 8b 04 24          	mov    rax,QWORD PTR [rsp]
    3fe8:	48 3d be 01 00 00    	cmp    rax,0x1be
    3fee:	0f 84 f0 4b 00 00    	je     8be4 <node446>
    3ff4:	48 3d 20 01 00 00    	cmp    rax,0x120
    3ffa:	0f 84 bc 22 00 00    	je     62bc <node288>
    4000:	48 83 f8 53          	cmp    rax,0x53
    4004:	0f 84 e7 e6 ff ff    	je     26f1 <node83>
    400a:	48 3d 94 01 00 00    	cmp    rax,0x194
    4010:	0f 84 1c 42 00 00    	je     8232 <node404>
    4016:	e9 32 4e 00 00       	jmp    8e4d <fail_code>

000000000000401b <node173>:
    401b:	48 8d 05 ae 70 00 00 	lea    rax,[rip+0x70ae]        # b0d0 <__TMC_END__>
    4022:	c6 04 18 63          	mov    BYTE PTR [rax+rbx*1],0x63
    4026:	48 ff c3             	inc    rbx
    4029:	48 8d 3d e0 6f 00 00 	lea    rdi,[rip+0x6fe0]        # b010 <scanf_format>
    4030:	48 89 e6             	mov    rsi,rsp
    4033:	31 c0                	xor    eax,eax
    4035:	ff 15 95 6f 00 00    	call   QWORD PTR [rip+0x6f95]        # afd0 <scanf@GLIBC_2.2.5>
    403b:	48 8b 04 24          	mov    rax,QWORD PTR [rsp]
    403f:	48 3d 16 01 00 00    	cmp    rax,0x116
    4045:	0f 84 f9 1e 00 00    	je     5f44 <node278>
    404b:	48 3d 70 01 00 00    	cmp    rax,0x170
    4051:	0f 84 8d 38 00 00    	je     78e4 <node368>
    4057:	48 83 f8 0c          	cmp    rax,0xc
    405b:	0f 84 3b d4 ff ff    	je     149c <node12>
    4061:	48 3d ec 00 00 00    	cmp    rax,0xec
    4067:	0f 84 bd 11 00 00    	je     522a <node236>
    406d:	48 3d 62 01 00 00    	cmp    rax,0x162
    4073:	0f 84 bb 33 00 00    	je     7434 <node354>
    4079:	e9 cf 4d 00 00       	jmp    8e4d <fail_code>

000000000000407e <node174>:
    407e:	48 8d 05 4b 70 00 00 	lea    rax,[rip+0x704b]        # b0d0 <__TMC_END__>
    4085:	c6 04 18 2c          	mov    BYTE PTR [rax+rbx*1],0x2c
    4089:	48 ff c3             	inc    rbx
    408c:	48 8d 3d 7d 6f 00 00 	lea    rdi,[rip+0x6f7d]        # b010 <scanf_format>
    4093:	48 89 e6             	mov    rsi,rsp
    4096:	31 c0                	xor    eax,eax
    4098:	ff 15 32 6f 00 00    	call   QWORD PTR [rip+0x6f32]        # afd0 <scanf@GLIBC_2.2.5>
    409e:	48 8b 04 24          	mov    rax,QWORD PTR [rsp]
    40a2:	48 3d ee 00 00 00    	cmp    rax,0xee
    40a8:	0f 84 fe 11 00 00    	je     52ac <node238>
    40ae:	e9 9a 4d 00 00       	jmp    8e4d <fail_code>

00000000000040b3 <node175>:
    40b3:	48 8d 05 16 70 00 00 	lea    rax,[rip+0x7016]        # b0d0 <__TMC_END__>
    40ba:	c6 04 18 68          	mov    BYTE PTR [rax+rbx*1],0x68
    40be:	48 ff c3             	inc    rbx
    40c1:	48 8d 3d 48 6f 00 00 	lea    rdi,[rip+0x6f48]        # b010 <scanf_format>
    40c8:	48 89 e6             	mov    rsi,rsp
    40cb:	31 c0                	xor    eax,eax
    40cd:	ff 15 fd 6e 00 00    	call   QWORD PTR [rip+0x6efd]        # afd0 <scanf@GLIBC_2.2.5>
    40d3:	48 8b 04 24          	mov    rax,QWORD PTR [rsp]
    40d7:	48 83 f8 14          	cmp    rax,0x14
    40db:	0f 84 1f d6 ff ff    	je     1700 <node20>
    40e1:	48 3d 91 00 00 00    	cmp    rax,0x91
    40e7:	0f 84 a0 f6 ff ff    	je     378d <node145>
    40ed:	48 3d 93 01 00 00    	cmp    rax,0x193
    40f3:	0f 84 c8 40 00 00    	je     81c1 <node403>
    40f9:	e9 4f 4d 00 00       	jmp    8e4d <fail_code>

00000000000040fe <node176>:
    40fe:	48 8d 05 cb 6f 00 00 	lea    rax,[rip+0x6fcb]        # b0d0 <__TMC_END__>
    4105:	c6 04 18 23          	mov    BYTE PTR [rax+rbx*1],0x23
    4109:	48 ff c3             	inc    rbx
    410c:	48 8d 3d fd 6e 00 00 	lea    rdi,[rip+0x6efd]        # b010 <scanf_format>
    4113:	48 89 e6             	mov    rsi,rsp
    4116:	31 c0                	xor    eax,eax
    4118:	ff 15 b2 6e 00 00    	call   QWORD PTR [rip+0x6eb2]        # afd0 <scanf@GLIBC_2.2.5>
    411e:	48 8b 04 24          	mov    rax,QWORD PTR [rsp]
    4122:	48 83 f8 53          	cmp    rax,0x53
    4126:	0f 84 c5 e5 ff ff    	je     26f1 <node83>
    412c:	48 83 f8 2d          	cmp    rax,0x2d
    4130:	0f 84 6b dc ff ff    	je     1da1 <node45>
    4136:	48 3d a7 01 00 00    	cmp    rax,0x1a7
    413c:	0f 84 7f 45 00 00    	je     86c1 <node423>
    4142:	e9 06 4d 00 00       	jmp    8e4d <fail_code>

0000000000004147 <node177>:
    4147:	48 8d 05 82 6f 00 00 	lea    rax,[rip+0x6f82]        # b0d0 <__TMC_END__>
    414e:	c6 04 18 38          	mov    BYTE PTR [rax+rbx*1],0x38
    4152:	48 ff c3             	inc    rbx
    4155:	48 8d 3d b4 6e 00 00 	lea    rdi,[rip+0x6eb4]        # b010 <scanf_format>
    415c:	48 89 e6             	mov    rsi,rsp
    415f:	31 c0                	xor    eax,eax
    4161:	ff 15 69 6e 00 00    	call   QWORD PTR [rip+0x6e69]        # afd0 <scanf@GLIBC_2.2.5>
    4167:	48 8b 04 24          	mov    rax,QWORD PTR [rsp]
    416b:	48 83 f8 1a          	cmp    rax,0x1a
    416f:	0f 84 3d d7 ff ff    	je     18b2 <node26>
    4175:	48 3d a1 00 00 00    	cmp    rax,0xa1
    417b:	0f 84 d4 fb ff ff    	je     3d55 <node161>
    4181:	e9 c7 4c 00 00       	jmp    8e4d <fail_code>

0000000000004186 <node178>:
    4186:	48 8d 05 43 6f 00 00 	lea    rax,[rip+0x6f43]        # b0d0 <__TMC_END__>
    418d:	c6 04 18 70          	mov    BYTE PTR [rax+rbx*1],0x70
    4191:	48 ff c3             	inc    rbx
    4194:	48 8d 3d 75 6e 00 00 	lea    rdi,[rip+0x6e75]        # b010 <scanf_format>
    419b:	48 89 e6             	mov    rsi,rsp
    419e:	31 c0                	xor    eax,eax
    41a0:	ff 15 2a 6e 00 00    	call   QWORD PTR [rip+0x6e2a]        # afd0 <scanf@GLIBC_2.2.5>
    41a6:	48 8b 04 24          	mov    rax,QWORD PTR [rsp]
    41aa:	48 3d b9 00 00 00    	cmp    rax,0xb9
    41b0:	0f 84 77 01 00 00    	je     432d <node185>
    41b6:	e9 92 4c 00 00       	jmp    8e4d <fail_code>

00000000000041bb <node179>:
    41bb:	48 8d 05 0e 6f 00 00 	lea    rax,[rip+0x6f0e]        # b0d0 <__TMC_END__>
    41c2:	c6 04 18 7e          	mov    BYTE PTR [rax+rbx*1],0x7e
    41c6:	48 ff c3             	inc    rbx
    41c9:	48 8d 3d 40 6e 00 00 	lea    rdi,[rip+0x6e40]        # b010 <scanf_format>
    41d0:	48 89 e6             	mov    rsi,rsp
    41d3:	31 c0                	xor    eax,eax
    41d5:	ff 15 f5 6d 00 00    	call   QWORD PTR [rip+0x6df5]        # afd0 <scanf@GLIBC_2.2.5>
    41db:	48 8b 04 24          	mov    rax,QWORD PTR [rsp]
    41df:	48 3d a3 01 00 00    	cmp    rax,0x1a3
    41e5:	0f 84 30 44 00 00    	je     861b <node419>
    41eb:	48 83 f8 62          	cmp    rax,0x62
    41ef:	0f 84 9d e8 ff ff    	je     2a92 <node98>
    41f5:	48 3d b1 01 00 00    	cmp    rax,0x1b1
    41fb:	0f 84 94 46 00 00    	je     8895 <node433>
    4201:	48 3d a2 00 00 00    	cmp    rax,0xa2
    4207:	0f 84 5b fb ff ff    	je     3d68 <node162>
    420d:	e9 3b 4c 00 00       	jmp    8e4d <fail_code>

0000000000004212 <node180>:
    4212:	48 8d 05 b7 6e 00 00 	lea    rax,[rip+0x6eb7]        # b0d0 <__TMC_END__>
    4219:	c6 04 18 4b          	mov    BYTE PTR [rax+rbx*1],0x4b
    421d:	48 ff c3             	inc    rbx
    4220:	48 8d 3d e9 6d 00 00 	lea    rdi,[rip+0x6de9]        # b010 <scanf_format>
    4227:	48 89 e6             	mov    rsi,rsp
    422a:	31 c0                	xor    eax,eax
    422c:	ff 15 9e 6d 00 00    	call   QWORD PTR [rip+0x6d9e]        # afd0 <scanf@GLIBC_2.2.5>
    4232:	48 8b 04 24          	mov    rax,QWORD PTR [rsp]
    4236:	48 83 f8 52          	cmp    rax,0x52
    423a:	0f 84 64 e4 ff ff    	je     26a4 <node82>
    4240:	e9 08 4c 00 00       	jmp    8e4d <fail_code>

0000000000004245 <node181>:
    4245:	48 8d 05 84 6e 00 00 	lea    rax,[rip+0x6e84]        # b0d0 <__TMC_END__>
    424c:	c6 04 18 73          	mov    BYTE PTR [rax+rbx*1],0x73
    4250:	48 ff c3             	inc    rbx
    4253:	48 8d 3d b6 6d 00 00 	lea    rdi,[rip+0x6db6]        # b010 <scanf_format>
    425a:	48 89 e6             	mov    rsi,rsp
    425d:	31 c0                	xor    eax,eax
    425f:	ff 15 6b 6d 00 00    	call   QWORD PTR [rip+0x6d6b]        # afd0 <scanf@GLIBC_2.2.5>
    4265:	48 8b 04 24          	mov    rax,QWORD PTR [rsp]
    4269:	48 83 f8 05          	cmp    rax,0x5
    426d:	0f 84 5c d0 ff ff    	je     12cf <node5>
    4273:	e9 d5 4b 00 00       	jmp    8e4d <fail_code>

0000000000004278 <node182>:
    4278:	48 8d 05 51 6e 00 00 	lea    rax,[rip+0x6e51]        # b0d0 <__TMC_END__>
    427f:	c6 04 18 0c          	mov    BYTE PTR [rax+rbx*1],0xc
    4283:	48 ff c3             	inc    rbx
    4286:	48 8d 3d 83 6d 00 00 	lea    rdi,[rip+0x6d83]        # b010 <scanf_format>
    428d:	48 89 e6             	mov    rsi,rsp
    4290:	31 c0                	xor    eax,eax
    4292:	ff 15 38 6d 00 00    	call   QWORD PTR [rip+0x6d38]        # afd0 <scanf@GLIBC_2.2.5>
    4298:	48 8b 04 24          	mov    rax,QWORD PTR [rsp]
    429c:	48 3d 70 01 00 00    	cmp    rax,0x170
    42a2:	0f 84 3c 36 00 00    	je     78e4 <node368>
    42a8:	48 3d aa 00 00 00    	cmp    rax,0xaa
    42ae:	0f 84 ca fc ff ff    	je     3f7e <node170>
    42b4:	e9 94 4b 00 00       	jmp    8e4d <fail_code>

00000000000042b9 <node183>:
    42b9:	48 8d 05 10 6e 00 00 	lea    rax,[rip+0x6e10]        # b0d0 <__TMC_END__>
    42c0:	c6 04 18 26          	mov    BYTE PTR [rax+rbx*1],0x26
    42c4:	48 ff c3             	inc    rbx
    42c7:	48 8d 3d 42 6d 00 00 	lea    rdi,[rip+0x6d42]        # b010 <scanf_format>
    42ce:	48 89 e6             	mov    rsi,rsp
    42d1:	31 c0                	xor    eax,eax
    42d3:	ff 15 f7 6c 00 00    	call   QWORD PTR [rip+0x6cf7]        # afd0 <scanf@GLIBC_2.2.5>
    42d9:	48 8b 04 24          	mov    rax,QWORD PTR [rsp]
    42dd:	48 3d be 00 00 00    	cmp    rax,0xbe
    42e3:	0f 84 8d 01 00 00    	je     4476 <node190>
    42e9:	e9 5f 4b 00 00       	jmp    8e4d <fail_code>

00000000000042ee <node184>:
    42ee:	48 8d 05 db 6d 00 00 	lea    rax,[rip+0x6ddb]        # b0d0 <__TMC_END__>
    42f5:	c6 04 18 30          	mov    BYTE PTR [rax+rbx*1],0x30
    42f9:	48 ff c3             	inc    rbx
    42fc:	48 8d 3d 0d 6d 00 00 	lea    rdi,[rip+0x6d0d]        # b010 <scanf_format>
    4303:	48 89 e6             	mov    rsi,rsp
    4306:	31 c0                	xor    eax,eax
    4308:	ff 15 c2 6c 00 00    	call   QWORD PTR [rip+0x6cc2]        # afd0 <scanf@GLIBC_2.2.5>
    430e:	48 8b 04 24          	mov    rax,QWORD PTR [rsp]
    4312:	48 3d ff 00 00 00    	cmp    rax,0xff
    4318:	0f 84 b7 15 00 00    	je     58d5 <node255>
    431e:	48 83 f8 35          	cmp    rax,0x35
    4322:	0f 84 4f dc ff ff    	je     1f77 <node53>
    4328:	e9 20 4b 00 00       	jmp    8e4d <fail_code>

000000000000432d <node185>:
    432d:	48 8d 05 9c 6d 00 00 	lea    rax,[rip+0x6d9c]        # b0d0 <__TMC_END__>
    4334:	c6 04 18 7c          	mov    BYTE PTR [rax+rbx*1],0x7c
    4338:	48 ff c3             	inc    rbx
    433b:	e9 0d 4b 00 00       	jmp    8e4d <fail_code>

0000000000004340 <node186>:
    4340:	48 8d 05 89 6d 00 00 	lea    rax,[rip+0x6d89]        # b0d0 <__TMC_END__>
    4347:	c6 04 18 24          	mov    BYTE PTR [rax+rbx*1],0x24
    434b:	48 ff c3             	inc    rbx
    434e:	48 8d 3d bb 6c 00 00 	lea    rdi,[rip+0x6cbb]        # b010 <scanf_format>
    4355:	48 89 e6             	mov    rsi,rsp
    4358:	31 c0                	xor    eax,eax
    435a:	ff 15 70 6c 00 00    	call   QWORD PTR [rip+0x6c70]        # afd0 <scanf@GLIBC_2.2.5>
    4360:	48 8b 04 24          	mov    rax,QWORD PTR [rsp]
    4364:	48 83 f8 24          	cmp    rax,0x24
    4368:	0f 84 56 d8 ff ff    	je     1bc4 <node36>
    436e:	48 3d 86 01 00 00    	cmp    rax,0x186
    4374:	0f 84 66 3a 00 00    	je     7de0 <node390>
    437a:	48 3d 88 00 00 00    	cmp    rax,0x88
    4380:	0f 84 26 f1 ff ff    	je     34ac <node136>
    4386:	48 83 f8 11          	cmp    rax,0x11
    438a:	0f 84 e1 d2 ff ff    	je     1671 <node17>
    4390:	48 3d 77 01 00 00    	cmp    rax,0x177
    4396:	0f 84 a3 36 00 00    	je     7a3f <node375>
    439c:	48 3d bd 01 00 00    	cmp    rax,0x1bd
    43a2:	0f 84 cf 47 00 00    	je     8b77 <node445>
    43a8:	e9 a0 4a 00 00       	jmp    8e4d <fail_code>

00000000000043ad <node187>:
    43ad:	48 8d 05 1c 6d 00 00 	lea    rax,[rip+0x6d1c]        # b0d0 <__TMC_END__>
    43b4:	c6 04 18 21          	mov    BYTE PTR [rax+rbx*1],0x21
    43b8:	48 ff c3             	inc    rbx
    43bb:	48 8d 3d 4e 6c 00 00 	lea    rdi,[rip+0x6c4e]        # b010 <scanf_format>
    43c2:	48 89 e6             	mov    rsi,rsp
    43c5:	31 c0                	xor    eax,eax
    43c7:	ff 15 03 6c 00 00    	call   QWORD PTR [rip+0x6c03]        # afd0 <scanf@GLIBC_2.2.5>
    43cd:	48 8b 04 24          	mov    rax,QWORD PTR [rsp]
    43d1:	48 3d c6 00 00 00    	cmp    rax,0xc6
    43d7:	0f 84 e1 02 00 00    	je     46be <node198>
    43dd:	48 83 f8 0f          	cmp    rax,0xf
    43e1:	0f 84 bc d1 ff ff    	je     15a3 <node15>
    43e7:	e9 61 4a 00 00       	jmp    8e4d <fail_code>

00000000000043ec <node188>:
    43ec:	48 8d 05 dd 6c 00 00 	lea    rax,[rip+0x6cdd]        # b0d0 <__TMC_END__>
    43f3:	c6 04 18 33          	mov    BYTE PTR [rax+rbx*1],0x33
    43f7:	48 ff c3             	inc    rbx
    43fa:	48 8d 3d 0f 6c 00 00 	lea    rdi,[rip+0x6c0f]        # b010 <scanf_format>
    4401:	48 89 e6             	mov    rsi,rsp
    4404:	31 c0                	xor    eax,eax
    4406:	ff 15 c4 6b 00 00    	call   QWORD PTR [rip+0x6bc4]        # afd0 <scanf@GLIBC_2.2.5>
    440c:	48 8b 04 24          	mov    rax,QWORD PTR [rsp]
    4410:	48 3d 4e 01 00 00    	cmp    rax,0x14e
    4416:	0f 84 2a 2b 00 00    	je     6f46 <node334>
    441c:	48 83 f8 19          	cmp    rax,0x19
    4420:	0f 84 59 d4 ff ff    	je     187f <node25>
    4426:	48 83 f8 41          	cmp    rax,0x41
    442a:	0f 84 5f de ff ff    	je     228f <node65>
    4430:	e9 18 4a 00 00       	jmp    8e4d <fail_code>

0000000000004435 <node189>:
    4435:	48 8d 05 94 6c 00 00 	lea    rax,[rip+0x6c94]        # b0d0 <__TMC_END__>
    443c:	c6 04 18 5b          	mov    BYTE PTR [rax+rbx*1],0x5b
    4440:	48 ff c3             	inc    rbx
    4443:	48 8d 3d c6 6b 00 00 	lea    rdi,[rip+0x6bc6]        # b010 <scanf_format>
    444a:	48 89 e6             	mov    rsi,rsp
    444d:	31 c0                	xor    eax,eax
    444f:	ff 15 7b 6b 00 00    	call   QWORD PTR [rip+0x6b7b]        # afd0 <scanf@GLIBC_2.2.5>
    4455:	48 8b 04 24          	mov    rax,QWORD PTR [rsp]
    4459:	48 3d a7 00 00 00    	cmp    rax,0xa7
    445f:	0f 84 30 fa ff ff    	je     3e95 <node167>
    4465:	48 3d 2f 01 00 00    	cmp    rax,0x12f
    446b:	0f 84 c0 21 00 00    	je     6631 <node303>
    4471:	e9 d7 49 00 00       	jmp    8e4d <fail_code>

0000000000004476 <node190>:
    4476:	48 8d 05 53 6c 00 00 	lea    rax,[rip+0x6c53]        # b0d0 <__TMC_END__>
    447d:	c6 04 18 4d          	mov    BYTE PTR [rax+rbx*1],0x4d
    4481:	48 ff c3             	inc    rbx
    4484:	48 8d 3d 85 6b 00 00 	lea    rdi,[rip+0x6b85]        # b010 <scanf_format>
    448b:	48 89 e6             	mov    rsi,rsp
    448e:	31 c0                	xor    eax,eax
    4490:	ff 15 3a 6b 00 00    	call   QWORD PTR [rip+0x6b3a]        # afd0 <scanf@GLIBC_2.2.5>
    4496:	48 8b 04 24          	mov    rax,QWORD PTR [rsp]
    449a:	48 3d a4 00 00 00    	cmp    rax,0xa4
    44a0:	0f 84 46 f9 ff ff    	je     3dec <node164>
    44a6:	48 3d 75 01 00 00    	cmp    rax,0x175
    44ac:	0f 84 23 35 00 00    	je     79d5 <node373>
    44b2:	48 3d 8b 00 00 00    	cmp    rax,0x8b
    44b8:	0f 84 13 f1 ff ff    	je     35d1 <node139>
    44be:	e9 8a 49 00 00       	jmp    8e4d <fail_code>

00000000000044c3 <node191>:
    44c3:	48 8d 05 06 6c 00 00 	lea    rax,[rip+0x6c06]        # b0d0 <__TMC_END__>
    44ca:	c6 04 18 53          	mov    BYTE PTR [rax+rbx*1],0x53
    44ce:	48 ff c3             	inc    rbx
    44d1:	48 8d 3d 38 6b 00 00 	lea    rdi,[rip+0x6b38]        # b010 <scanf_format>
    44d8:	48 89 e6             	mov    rsi,rsp
    44db:	31 c0                	xor    eax,eax
    44dd:	ff 15 ed 6a 00 00    	call   QWORD PTR [rip+0x6aed]        # afd0 <scanf@GLIBC_2.2.5>
    44e3:	48 8b 04 24          	mov    rax,QWORD PTR [rsp]
    44e7:	48 3d 98 01 00 00    	cmp    rax,0x198
    44ed:	0f 84 ff 3d 00 00    	je     82f2 <node408>
    44f3:	48 83 f8 3d          	cmp    rax,0x3d
    44f7:	0f 84 e4 dc ff ff    	je     21e1 <node61>
    44fd:	48 83 f8 4d          	cmp    rax,0x4d
    4501:	0f 84 bc e0 ff ff    	je     25c3 <node77>
    4507:	48 3d 23 01 00 00    	cmp    rax,0x123
    450d:	0f 84 a6 1e 00 00    	je     63b9 <node291>
    4513:	e9 35 49 00 00       	jmp    8e4d <fail_code>

0000000000004518 <node192>:
    4518:	48 8d 05 b1 6b 00 00 	lea    rax,[rip+0x6bb1]        # b0d0 <__TMC_END__>
    451f:	c6 04 18 5a          	mov    BYTE PTR [rax+rbx*1],0x5a
    4523:	48 ff c3             	inc    rbx
    4526:	48 8d 3d e3 6a 00 00 	lea    rdi,[rip+0x6ae3]        # b010 <scanf_format>
    452d:	48 89 e6             	mov    rsi,rsp
    4530:	31 c0                	xor    eax,eax
    4532:	ff 15 98 6a 00 00    	call   QWORD PTR [rip+0x6a98]        # afd0 <scanf@GLIBC_2.2.5>
    4538:	48 8b 04 24          	mov    rax,QWORD PTR [rsp]
    453c:	48 83 f8 67          	cmp    rax,0x67
    4540:	0f 84 53 e6 ff ff    	je     2b99 <node103>
    4546:	e9 02 49 00 00       	jmp    8e4d <fail_code>

000000000000454b <node193>:
    454b:	48 8d 05 7e 6b 00 00 	lea    rax,[rip+0x6b7e]        # b0d0 <__TMC_END__>
    4552:	c6 04 18 46          	mov    BYTE PTR [rax+rbx*1],0x46
    4556:	48 ff c3             	inc    rbx
    4559:	48 8d 3d b0 6a 00 00 	lea    rdi,[rip+0x6ab0]        # b010 <scanf_format>
    4560:	48 89 e6             	mov    rsi,rsp
    4563:	31 c0                	xor    eax,eax
    4565:	ff 15 65 6a 00 00    	call   QWORD PTR [rip+0x6a65]        # afd0 <scanf@GLIBC_2.2.5>
    456b:	48 8b 04 24          	mov    rax,QWORD PTR [rsp]
    456f:	48 3d 50 01 00 00    	cmp    rax,0x150
    4575:	0f 84 61 2a 00 00    	je     6fdc <node336>
    457b:	e9 cd 48 00 00       	jmp    8e4d <fail_code>

0000000000004580 <node194>:
    4580:	48 8d 05 49 6b 00 00 	lea    rax,[rip+0x6b49]        # b0d0 <__TMC_END__>
    4587:	c6 04 18 60          	mov    BYTE PTR [rax+rbx*1],0x60
    458b:	48 ff c3             	inc    rbx
    458e:	48 8d 3d 7b 6a 00 00 	lea    rdi,[rip+0x6a7b]        # b010 <scanf_format>
    4595:	48 89 e6             	mov    rsi,rsp
    4598:	31 c0                	xor    eax,eax
    459a:	ff 15 30 6a 00 00    	call   QWORD PTR [rip+0x6a30]        # afd0 <scanf@GLIBC_2.2.5>
    45a0:	48 8b 04 24          	mov    rax,QWORD PTR [rsp]
    45a4:	48 83 f8 2a          	cmp    rax,0x2a
    45a8:	0f 84 8a d7 ff ff    	je     1d38 <node42>
    45ae:	48 3d 5e 01 00 00    	cmp    rax,0x15e
    45b4:	0f 84 b0 2d 00 00    	je     736a <node350>
    45ba:	e9 8e 48 00 00       	jmp    8e4d <fail_code>

00000000000045bf <node195>:
    45bf:	48 8d 05 0a 6b 00 00 	lea    rax,[rip+0x6b0a]        # b0d0 <__TMC_END__>
    45c6:	c6 04 18 09          	mov    BYTE PTR [rax+rbx*1],0x9
    45ca:	48 ff c3             	inc    rbx
    45cd:	48 8d 3d 3c 6a 00 00 	lea    rdi,[rip+0x6a3c]        # b010 <scanf_format>
    45d4:	48 89 e6             	mov    rsi,rsp
    45d7:	31 c0                	xor    eax,eax
    45d9:	ff 15 f1 69 00 00    	call   QWORD PTR [rip+0x69f1]        # afd0 <scanf@GLIBC_2.2.5>
    45df:	48 8b 04 24          	mov    rax,QWORD PTR [rsp]
    45e3:	48 3d d6 00 00 00    	cmp    rax,0xd6
    45e9:	0f 84 69 06 00 00    	je     4c58 <node214>
    45ef:	48 3d 9b 01 00 00    	cmp    rax,0x19b
    45f5:	0f 84 f4 3d 00 00    	je     83ef <node411>
    45fb:	48 3d 61 01 00 00    	cmp    rax,0x161
    4601:	0f 84 e0 2d 00 00    	je     73e7 <node353>
    4607:	e9 41 48 00 00       	jmp    8e4d <fail_code>

000000000000460c <node196>:
    460c:	48 8d 05 bd 6a 00 00 	lea    rax,[rip+0x6abd]        # b0d0 <__TMC_END__>
    4613:	c6 04 18 75          	mov    BYTE PTR [rax+rbx*1],0x75
    4617:	48 ff c3             	inc    rbx
    461a:	48 8d 3d ef 69 00 00 	lea    rdi,[rip+0x69ef]        # b010 <scanf_format>
    4621:	48 89 e6             	mov    rsi,rsp
    4624:	31 c0                	xor    eax,eax
    4626:	ff 15 a4 69 00 00    	call   QWORD PTR [rip+0x69a4]        # afd0 <scanf@GLIBC_2.2.5>
    462c:	48 8b 04 24          	mov    rax,QWORD PTR [rsp]
    4630:	48 3d 41 01 00 00    	cmp    rax,0x141
    4636:	0f 84 e3 25 00 00    	je     6c1f <node321>
    463c:	48 3d 86 01 00 00    	cmp    rax,0x186
    4642:	0f 84 98 37 00 00    	je     7de0 <node390>
    4648:	48 3d 2c 01 00 00    	cmp    rax,0x12c
    464e:	0f 84 76 1f 00 00    	je     65ca <node300>
    4654:	e9 f4 47 00 00       	jmp    8e4d <fail_code>

0000000000004659 <node197>:
    4659:	48 8d 05 70 6a 00 00 	lea    rax,[rip+0x6a70]        # b0d0 <__TMC_END__>
    4660:	c6 04 18 5c          	mov    BYTE PTR [rax+rbx*1],0x5c
    4664:	48 ff c3             	inc    rbx
    4667:	48 8d 3d a2 69 00 00 	lea    rdi,[rip+0x69a2]        # b010 <scanf_format>
    466e:	48 89 e6             	mov    rsi,rsp
    4671:	31 c0                	xor    eax,eax
    4673:	ff 15 57 69 00 00    	call   QWORD PTR [rip+0x6957]        # afd0 <scanf@GLIBC_2.2.5>
    4679:	48 8b 04 24          	mov    rax,QWORD PTR [rsp]
    467d:	48 3d 92 00 00 00    	cmp    rax,0x92
    4683:	0f 84 95 f1 ff ff    	je     381e <node146>
    4689:	48 3d 7f 01 00 00    	cmp    rax,0x17f
    468f:	0f 84 8c 35 00 00    	je     7c21 <node383>
    4695:	48 3d a9 01 00 00    	cmp    rax,0x1a9
    469b:	0f 84 86 40 00 00    	je     8727 <node425>
    46a1:	48 3d 67 01 00 00    	cmp    rax,0x167
    46a7:	0f 84 7a 2f 00 00    	je     7627 <node359>
    46ad:	48 3d 6d 01 00 00    	cmp    rax,0x16d
    46b3:	0f 84 4a 31 00 00    	je     7803 <node365>
    46b9:	e9 8f 47 00 00       	jmp    8e4d <fail_code>

00000000000046be <node198>:
    46be:	48 8d 05 0b 6a 00 00 	lea    rax,[rip+0x6a0b]        # b0d0 <__TMC_END__>
    46c5:	c6 04 18 6c          	mov    BYTE PTR [rax+rbx*1],0x6c
    46c9:	48 ff c3             	inc    rbx
    46cc:	48 8d 3d 3d 69 00 00 	lea    rdi,[rip+0x693d]        # b010 <scanf_format>
    46d3:	48 89 e6             	mov    rsi,rsp
    46d6:	31 c0                	xor    eax,eax
    46d8:	ff 15 f2 68 00 00    	call   QWORD PTR [rip+0x68f2]        # afd0 <scanf@GLIBC_2.2.5>
    46de:	48 8b 04 24          	mov    rax,QWORD PTR [rsp]
    46e2:	48 3d 00 01 00 00    	cmp    rax,0x100
    46e8:	0f 84 32 12 00 00    	je     5920 <node256>
    46ee:	48 83 f8 60          	cmp    rax,0x60
    46f2:	0f 84 30 e3 ff ff    	je     2a28 <node96>
    46f8:	48 83 f8 39          	cmp    rax,0x39
    46fc:	0f 84 6d d9 ff ff    	je     206f <node57>
    4702:	48 83 f8 2a          	cmp    rax,0x2a
    4706:	0f 84 2c d6 ff ff    	je     1d38 <node42>
    470c:	48 3d 45 01 00 00    	cmp    rax,0x145
    4712:	0f 84 3f 26 00 00    	je     6d57 <node325>
    4718:	e9 30 47 00 00       	jmp    8e4d <fail_code>

000000000000471d <node199>:
    471d:	48 8d 05 ac 69 00 00 	lea    rax,[rip+0x69ac]        # b0d0 <__TMC_END__>
    4724:	c6 04 18 2e          	mov    BYTE PTR [rax+rbx*1],0x2e
    4728:	48 ff c3             	inc    rbx
    472b:	48 8d 3d de 68 00 00 	lea    rdi,[rip+0x68de]        # b010 <scanf_format>
    4732:	48 89 e6             	mov    rsi,rsp
    4735:	31 c0                	xor    eax,eax
    4737:	ff 15 93 68 00 00    	call   QWORD PTR [rip+0x6893]        # afd0 <scanf@GLIBC_2.2.5>
    473d:	48 8b 04 24          	mov    rax,QWORD PTR [rsp]
    4741:	48 83 f8 55          	cmp    rax,0x55
    4745:	0f 84 2a e0 ff ff    	je     2775 <node85>
    474b:	48 3d 08 01 00 00    	cmp    rax,0x108
    4751:	0f 84 59 13 00 00    	je     5ab0 <node264>
    4757:	e9 f1 46 00 00       	jmp    8e4d <fail_code>

000000000000475c <node200>:
    475c:	48 8d 05 6d 69 00 00 	lea    rax,[rip+0x696d]        # b0d0 <__TMC_END__>
    4763:	c6 04 18 6c          	mov    BYTE PTR [rax+rbx*1],0x6c
    4767:	48 ff c3             	inc    rbx
    476a:	48 8d 3d 9f 68 00 00 	lea    rdi,[rip+0x689f]        # b010 <scanf_format>
    4771:	48 89 e6             	mov    rsi,rsp
    4774:	31 c0                	xor    eax,eax
    4776:	ff 15 54 68 00 00    	call   QWORD PTR [rip+0x6854]        # afd0 <scanf@GLIBC_2.2.5>
    477c:	48 8b 04 24          	mov    rax,QWORD PTR [rsp]
    4780:	48 3d c2 01 00 00    	cmp    rax,0x1c2
    4786:	0f 84 be 45 00 00    	je     8d4a <node450>
    478c:	48 3d 70 01 00 00    	cmp    rax,0x170
    4792:	0f 84 4c 31 00 00    	je     78e4 <node368>
    4798:	48 3d 76 01 00 00    	cmp    rax,0x176
    479e:	0f 84 44 32 00 00    	je     79e8 <node374>
    47a4:	48 3d 7c 01 00 00    	cmp    rax,0x17c
    47aa:	0f 84 9c 33 00 00    	je     7b4c <node380>
    47b0:	48 3d 9e 00 00 00    	cmp    rax,0x9e
    47b6:	0f 84 c2 f4 ff ff    	je     3c7e <node158>
    47bc:	48 83 f8 30          	cmp    rax,0x30
    47c0:	0f 84 6a d6 ff ff    	je     1e30 <node48>
    47c6:	48 3d c0 01 00 00    	cmp    rax,0x1c0
    47cc:	0f 84 88 44 00 00    	je     8c5a <node448>
    47d2:	48 3d 5f 01 00 00    	cmp    rax,0x15f
    47d8:	0f 84 9f 2b 00 00    	je     737d <node351>
    47de:	48 83 f8 41          	cmp    rax,0x41
    47e2:	0f 84 a7 da ff ff    	je     228f <node65>
    47e8:	48 83 f8 67          	cmp    rax,0x67
    47ec:	0f 84 a7 e3 ff ff    	je     2b99 <node103>
    47f2:	e9 56 46 00 00       	jmp    8e4d <fail_code>

00000000000047f7 <node201>:
    47f7:	48 8d 05 d2 68 00 00 	lea    rax,[rip+0x68d2]        # b0d0 <__TMC_END__>
    47fe:	c6 04 18 2c          	mov    BYTE PTR [rax+rbx*1],0x2c
    4802:	48 ff c3             	inc    rbx
    4805:	48 8d 3d 04 68 00 00 	lea    rdi,[rip+0x6804]        # b010 <scanf_format>
    480c:	48 89 e6             	mov    rsi,rsp
    480f:	31 c0                	xor    eax,eax
    4811:	ff 15 b9 67 00 00    	call   QWORD PTR [rip+0x67b9]        # afd0 <scanf@GLIBC_2.2.5>
    4817:	48 8b 04 24          	mov    rax,QWORD PTR [rsp]
    481b:	48 3d 82 00 00 00    	cmp    rax,0x82
    4821:	0f 84 99 ea ff ff    	je     32c0 <node130>
    4827:	48 83 f8 63          	cmp    rax,0x63
    482b:	0f 84 74 e2 ff ff    	je     2aa5 <node99>
    4831:	48 3d c5 00 00 00    	cmp    rax,0xc5
    4837:	0f 84 1c fe ff ff    	je     4659 <node197>
    483d:	48 3d 6d 01 00 00    	cmp    rax,0x16d
    4843:	0f 84 ba 2f 00 00    	je     7803 <node365>
    4849:	48 3d 99 00 00 00    	cmp    rax,0x99
    484f:	0f 84 30 f2 ff ff    	je     3a85 <node153>
    4855:	e9 f3 45 00 00       	jmp    8e4d <fail_code>

000000000000485a <node202>:
    485a:	48 8d 05 6f 68 00 00 	lea    rax,[rip+0x686f]        # b0d0 <__TMC_END__>
    4861:	c6 04 18 68          	mov    BYTE PTR [rax+rbx*1],0x68
    4865:	48 ff c3             	inc    rbx
    4868:	48 8d 3d a1 67 00 00 	lea    rdi,[rip+0x67a1]        # b010 <scanf_format>
    486f:	48 89 e6             	mov    rsi,rsp
    4872:	31 c0                	xor    eax,eax
    4874:	ff 15 56 67 00 00    	call   QWORD PTR [rip+0x6756]        # afd0 <scanf@GLIBC_2.2.5>
    487a:	48 8b 04 24          	mov    rax,QWORD PTR [rsp]
    487e:	48 3d ae 01 00 00    	cmp    rax,0x1ae
    4884:	0f 84 90 3f 00 00    	je     881a <node430>
    488a:	48 3d 05 01 00 00    	cmp    rax,0x105
    4890:	0f 84 c1 11 00 00    	je     5a57 <node261>
    4896:	48 83 f8 01          	cmp    rax,0x1
    489a:	0f 84 f5 c8 ff ff    	je     1195 <node1>
    48a0:	e9 a8 45 00 00       	jmp    8e4d <fail_code>

00000000000048a5 <node203>:
    48a5:	48 8d 05 24 68 00 00 	lea    rax,[rip+0x6824]        # b0d0 <__TMC_END__>
    48ac:	c6 04 18 33          	mov    BYTE PTR [rax+rbx*1],0x33
    48b0:	48 ff c3             	inc    rbx
    48b3:	48 8d 3d 56 67 00 00 	lea    rdi,[rip+0x6756]        # b010 <scanf_format>
    48ba:	48 89 e6             	mov    rsi,rsp
    48bd:	31 c0                	xor    eax,eax
    48bf:	ff 15 0b 67 00 00    	call   QWORD PTR [rip+0x670b]        # afd0 <scanf@GLIBC_2.2.5>
    48c5:	48 8b 04 24          	mov    rax,QWORD PTR [rsp]
    48c9:	48 3d c3 00 00 00    	cmp    rax,0xc3
    48cf:	0f 84 ea fc ff ff    	je     45bf <node195>
    48d5:	48 3d 7e 01 00 00    	cmp    rax,0x17e
    48db:	0f 84 ff 32 00 00    	je     7be0 <node382>
    48e1:	e9 67 45 00 00       	jmp    8e4d <fail_code>

00000000000048e6 <node204>:
    48e6:	48 8d 05 e3 67 00 00 	lea    rax,[rip+0x67e3]        # b0d0 <__TMC_END__>
    48ed:	c6 04 18 30          	mov    BYTE PTR [rax+rbx*1],0x30
    48f1:	48 ff c3             	inc    rbx
    48f4:	48 8d 3d 15 67 00 00 	lea    rdi,[rip+0x6715]        # b010 <scanf_format>
    48fb:	48 89 e6             	mov    rsi,rsp
    48fe:	31 c0                	xor    eax,eax
    4900:	ff 15 ca 66 00 00    	call   QWORD PTR [rip+0x66ca]        # afd0 <scanf@GLIBC_2.2.5>
    4906:	48 8b 04 24          	mov    rax,QWORD PTR [rsp]
    490a:	48 83 f8 78          	cmp    rax,0x78
    490e:	0f 84 1e e7 ff ff    	je     3032 <node120>
    4914:	48 83 f8 3e          	cmp    rax,0x3e
    4918:	0f 84 18 d9 ff ff    	je     2236 <node62>
    491e:	e9 2a 45 00 00       	jmp    8e4d <fail_code>

0000000000004923 <node205>:
    4923:	48 8d 05 a6 67 00 00 	lea    rax,[rip+0x67a6]        # b0d0 <__TMC_END__>
    492a:	c6 04 18 0a          	mov    BYTE PTR [rax+rbx*1],0xa
    492e:	48 ff c3             	inc    rbx
    4931:	48 8d 3d d8 66 00 00 	lea    rdi,[rip+0x66d8]        # b010 <scanf_format>
    4938:	48 89 e6             	mov    rsi,rsp
    493b:	31 c0                	xor    eax,eax
    493d:	ff 15 8d 66 00 00    	call   QWORD PTR [rip+0x668d]        # afd0 <scanf@GLIBC_2.2.5>
    4943:	48 8b 04 24          	mov    rax,QWORD PTR [rsp]
    4947:	48 3d 13 01 00 00    	cmp    rax,0x113
    494d:	0f 84 7e 15 00 00    	je     5ed1 <node275>
    4953:	e9 f5 44 00 00       	jmp    8e4d <fail_code>

0000000000004958 <node206>:
    4958:	48 8d 05 71 67 00 00 	lea    rax,[rip+0x6771]        # b0d0 <__TMC_END__>
    495f:	c6 04 18 2a          	mov    BYTE PTR [rax+rbx*1],0x2a
    4963:	48 ff c3             	inc    rbx
    4966:	48 8d 3d a3 66 00 00 	lea    rdi,[rip+0x66a3]        # b010 <scanf_format>
    496d:	48 89 e6             	mov    rsi,rsp
    4970:	31 c0                	xor    eax,eax
    4972:	ff 15 58 66 00 00    	call   QWORD PTR [rip+0x6658]        # afd0 <scanf@GLIBC_2.2.5>
    4978:	48 8b 04 24          	mov    rax,QWORD PTR [rsp]
    497c:	48 3d 14 01 00 00    	cmp    rax,0x114
    4982:	0f 84 5c 15 00 00    	je     5ee4 <node276>
    4988:	48 3d 96 01 00 00    	cmp    rax,0x196
    498e:	0f 84 16 39 00 00    	je     82aa <node406>
    4994:	48 3d 78 01 00 00    	cmp    rax,0x178
    499a:	0f 84 d2 30 00 00    	je     7a72 <node376>
    49a0:	e9 a8 44 00 00       	jmp    8e4d <fail_code>

00000000000049a5 <node207>:
    49a5:	48 8d 05 24 67 00 00 	lea    rax,[rip+0x6724]        # b0d0 <__TMC_END__>
    49ac:	c6 04 18 35          	mov    BYTE PTR [rax+rbx*1],0x35
    49b0:	48 ff c3             	inc    rbx
    49b3:	48 8d 3d 56 66 00 00 	lea    rdi,[rip+0x6656]        # b010 <scanf_format>
    49ba:	48 89 e6             	mov    rsi,rsp
    49bd:	31 c0                	xor    eax,eax
    49bf:	ff 15 0b 66 00 00    	call   QWORD PTR [rip+0x660b]        # afd0 <scanf@GLIBC_2.2.5>
    49c5:	48 8b 04 24          	mov    rax,QWORD PTR [rsp]
    49c9:	48 3d d9 00 00 00    	cmp    rax,0xd9
    49cf:	0f 84 46 03 00 00    	je     4d1b <node217>
    49d5:	48 83 f8 03          	cmp    rax,0x3
    49d9:	0f 84 42 c8 ff ff    	je     1221 <node3>
    49df:	48 3d 83 00 00 00    	cmp    rax,0x83
    49e5:	0f 84 3a e9 ff ff    	je     3325 <node131>
    49eb:	e9 5d 44 00 00       	jmp    8e4d <fail_code>

00000000000049f0 <node208>:
    49f0:	48 8d 05 d9 66 00 00 	lea    rax,[rip+0x66d9]        # b0d0 <__TMC_END__>
    49f7:	c6 04 18 72          	mov    BYTE PTR [rax+rbx*1],0x72
    49fb:	48 ff c3             	inc    rbx
    49fe:	48 8d 3d 0b 66 00 00 	lea    rdi,[rip+0x660b]        # b010 <scanf_format>
    4a05:	48 89 e6             	mov    rsi,rsp
    4a08:	31 c0                	xor    eax,eax
    4a0a:	ff 15 c0 65 00 00    	call   QWORD PTR [rip+0x65c0]        # afd0 <scanf@GLIBC_2.2.5>
    4a10:	48 8b 04 24          	mov    rax,QWORD PTR [rsp]
    4a14:	48 83 f8 54          	cmp    rax,0x54
    4a18:	0f 84 e6 dc ff ff    	je     2704 <node84>
    4a1e:	48 3d c8 00 00 00    	cmp    rax,0xc8
    4a24:	0f 84 32 fd ff ff    	je     475c <node200>
    4a2a:	48 3d b9 01 00 00    	cmp    rax,0x1b9
    4a30:	0f 84 7b 40 00 00    	je     8ab1 <node441>
    4a36:	48 3d ef 00 00 00    	cmp    rax,0xef
    4a3c:	0f 84 c1 08 00 00    	je     5303 <node239>
    4a42:	48 3d a9 00 00 00    	cmp    rax,0xa9
    4a48:	0f 84 b9 f4 ff ff    	je     3f07 <node169>
    4a4e:	e9 fa 43 00 00       	jmp    8e4d <fail_code>

0000000000004a53 <node209>:
    4a53:	48 8d 05 76 66 00 00 	lea    rax,[rip+0x6676]        # b0d0 <__TMC_END__>
    4a5a:	c6 04 18 43          	mov    BYTE PTR [rax+rbx*1],0x43
    4a5e:	48 ff c3             	inc    rbx
    4a61:	48 8d 3d a8 65 00 00 	lea    rdi,[rip+0x65a8]        # b010 <scanf_format>
    4a68:	48 89 e6             	mov    rsi,rsp
    4a6b:	31 c0                	xor    eax,eax
    4a6d:	ff 15 5d 65 00 00    	call   QWORD PTR [rip+0x655d]        # afd0 <scanf@GLIBC_2.2.5>
    4a73:	48 8b 04 24          	mov    rax,QWORD PTR [rsp]
    4a77:	48 3d 8c 00 00 00    	cmp    rax,0x8c
    4a7d:	0f 84 83 eb ff ff    	je     3606 <node140>
    4a83:	48 83 f8 42          	cmp    rax,0x42
    4a87:	0f 84 37 d8 ff ff    	je     22c4 <node66>
    4a8d:	48 3d c4 00 00 00    	cmp    rax,0xc4
    4a93:	0f 84 73 fb ff ff    	je     460c <node196>
    4a99:	48 3d 16 01 00 00    	cmp    rax,0x116
    4a9f:	0f 84 9f 14 00 00    	je     5f44 <node278>
    4aa5:	48 3d 8e 00 00 00    	cmp    rax,0x8e
    4aab:	0f 84 fb eb ff ff    	je     36ac <node142>
    4ab1:	48 3d ae 00 00 00    	cmp    rax,0xae
    4ab7:	0f 84 c1 f5 ff ff    	je     407e <node174>
    4abd:	48 3d ab 01 00 00    	cmp    rax,0x1ab
    4ac3:	0f 84 ea 3c 00 00    	je     87b3 <node427>
    4ac9:	48 3d bf 01 00 00    	cmp    rax,0x1bf
    4acf:	0f 84 44 41 00 00    	je     8c19 <node447>
    4ad5:	48 3d 4d 01 00 00    	cmp    rax,0x14d
    4adb:	0f 84 24 24 00 00    	je     6f05 <node333>
    4ae1:	48 3d 97 01 00 00    	cmp    rax,0x197
    4ae7:	0f 84 d0 37 00 00    	je     82bd <node407>
    4aed:	e9 5b 43 00 00       	jmp    8e4d <fail_code>

0000000000004af2 <node210>:
    4af2:	48 8d 05 d7 65 00 00 	lea    rax,[rip+0x65d7]        # b0d0 <__TMC_END__>
    4af9:	c6 04 18 79          	mov    BYTE PTR [rax+rbx*1],0x79
    4afd:	48 ff c3             	inc    rbx
    4b00:	48 8d 3d 09 65 00 00 	lea    rdi,[rip+0x6509]        # b010 <scanf_format>
    4b07:	48 89 e6             	mov    rsi,rsp
    4b0a:	31 c0                	xor    eax,eax
    4b0c:	ff 15 be 64 00 00    	call   QWORD PTR [rip+0x64be]        # afd0 <scanf@GLIBC_2.2.5>
    4b12:	48 8b 04 24          	mov    rax,QWORD PTR [rsp]
    4b16:	48 3d a0 00 00 00    	cmp    rax,0xa0
    4b1c:	0f 84 e6 f1 ff ff    	je     3d08 <node160>
    4b22:	48 3d 1a 01 00 00    	cmp    rax,0x11a
    4b28:	0f 84 c6 15 00 00    	je     60f4 <node282>
    4b2e:	48 83 f8 4a          	cmp    rax,0x4a
    4b32:	0f 84 c0 d9 ff ff    	je     24f8 <node74>
    4b38:	48 83 f8 6b          	cmp    rax,0x6b
    4b3c:	0f 84 19 e1 ff ff    	je     2c5b <node107>
    4b42:	e9 06 43 00 00       	jmp    8e4d <fail_code>

0000000000004b47 <node211>:
    4b47:	48 8d 05 82 65 00 00 	lea    rax,[rip+0x6582]        # b0d0 <__TMC_END__>
    4b4e:	c6 04 18 33          	mov    BYTE PTR [rax+rbx*1],0x33
    4b52:	48 ff c3             	inc    rbx
    4b55:	48 8d 3d b4 64 00 00 	lea    rdi,[rip+0x64b4]        # b010 <scanf_format>
    4b5c:	48 89 e6             	mov    rsi,rsp
    4b5f:	31 c0                	xor    eax,eax
    4b61:	ff 15 69 64 00 00    	call   QWORD PTR [rip+0x6469]        # afd0 <scanf@GLIBC_2.2.5>
    4b67:	48 8b 04 24          	mov    rax,QWORD PTR [rsp]
    4b6b:	48 3d 94 00 00 00    	cmp    rax,0x94
    4b71:	0f 84 2f ed ff ff    	je     38a6 <node148>
    4b77:	48 3d 83 01 00 00    	cmp    rax,0x183
    4b7d:	0f 84 8a 31 00 00    	je     7d0d <node387>
    4b83:	48 83 f8 18          	cmp    rax,0x18
    4b87:	0f 84 85 cc ff ff    	je     1812 <node24>
    4b8d:	48 3d 8b 01 00 00    	cmp    rax,0x18b
    4b93:	0f 84 c0 33 00 00    	je     7f59 <node395>
    4b99:	48 3d 6b 01 00 00    	cmp    rax,0x16b
    4b9f:	0f 84 c8 2b 00 00    	je     776d <node363>
    4ba5:	e9 a3 42 00 00       	jmp    8e4d <fail_code>

0000000000004baa <node212>:
    4baa:	48 8d 05 1f 65 00 00 	lea    rax,[rip+0x651f]        # b0d0 <__TMC_END__>
    4bb1:	c6 04 18 34          	mov    BYTE PTR [rax+rbx*1],0x34
    4bb5:	48 ff c3             	inc    rbx
    4bb8:	48 8d 3d 51 64 00 00 	lea    rdi,[rip+0x6451]        # b010 <scanf_format>
    4bbf:	48 89 e6             	mov    rsi,rsp
    4bc2:	31 c0                	xor    eax,eax
    4bc4:	ff 15 06 64 00 00    	call   QWORD PTR [rip+0x6406]        # afd0 <scanf@GLIBC_2.2.5>
    4bca:	48 8b 04 24          	mov    rax,QWORD PTR [rsp]
    4bce:	48 83 f8 5e          	cmp    rax,0x5e
    4bd2:	0f 84 08 de ff ff    	je     29e0 <node94>
    4bd8:	48 3d e1 00 00 00    	cmp    rax,0xe1
    4bde:	0f 84 c9 03 00 00    	je     4fad <node225>
    4be4:	e9 64 42 00 00       	jmp    8e4d <fail_code>

0000000000004be9 <node213>:
    4be9:	48 8d 05 e0 64 00 00 	lea    rax,[rip+0x64e0]        # b0d0 <__TMC_END__>
    4bf0:	c6 04 18 22          	mov    BYTE PTR [rax+rbx*1],0x22
    4bf4:	48 ff c3             	inc    rbx
    4bf7:	48 8d 3d 12 64 00 00 	lea    rdi,[rip+0x6412]        # b010 <scanf_format>
    4bfe:	48 89 e6             	mov    rsi,rsp
    4c01:	31 c0                	xor    eax,eax
    4c03:	ff 15 c7 63 00 00    	call   QWORD PTR [rip+0x63c7]        # afd0 <scanf@GLIBC_2.2.5>
    4c09:	48 8b 04 24          	mov    rax,QWORD PTR [rsp]
    4c0d:	48 3d b8 01 00 00    	cmp    rax,0x1b8
    4c13:	0f 84 29 3e 00 00    	je     8a42 <node440>
    4c19:	48 83 f8 56          	cmp    rax,0x56
    4c1d:	0f 84 9f db ff ff    	je     27c2 <node86>
    4c23:	48 3d 22 01 00 00    	cmp    rax,0x122
    4c29:	0f 84 35 17 00 00    	je     6364 <node290>
    4c2f:	48 3d f8 00 00 00    	cmp    rax,0xf8
    4c35:	0f 84 b5 09 00 00    	je     55f0 <node248>
    4c3b:	48 3d bb 00 00 00    	cmp    rax,0xbb
    4c41:	0f 84 66 f7 ff ff    	je     43ad <node187>
    4c47:	48 3d 61 01 00 00    	cmp    rax,0x161
    4c4d:	0f 84 94 27 00 00    	je     73e7 <node353>
    4c53:	e9 f5 41 00 00       	jmp    8e4d <fail_code>

0000000000004c58 <node214>:
    4c58:	48 8d 05 71 64 00 00 	lea    rax,[rip+0x6471]        # b0d0 <__TMC_END__>
    4c5f:	c6 04 18 78          	mov    BYTE PTR [rax+rbx*1],0x78
    4c63:	48 ff c3             	inc    rbx
    4c66:	48 8d 3d a3 63 00 00 	lea    rdi,[rip+0x63a3]        # b010 <scanf_format>
    4c6d:	48 89 e6             	mov    rsi,rsp
    4c70:	31 c0                	xor    eax,eax
    4c72:	ff 15 58 63 00 00    	call   QWORD PTR [rip+0x6358]        # afd0 <scanf@GLIBC_2.2.5>
    4c78:	48 8b 04 24          	mov    rax,QWORD PTR [rsp]
    4c7c:	48 3d b1 00 00 00    	cmp    rax,0xb1
    4c82:	0f 84 bf f4 ff ff    	je     4147 <node177>
    4c88:	48 3d b5 01 00 00    	cmp    rax,0x1b5
    4c8e:	0f 84 03 3d 00 00    	je     8997 <node437>
    4c94:	48 3d b6 01 00 00    	cmp    rax,0x1b6
    4c9a:	0f 84 2c 3d 00 00    	je     89cc <node438>
    4ca0:	e9 a8 41 00 00       	jmp    8e4d <fail_code>

0000000000004ca5 <node215>:
    4ca5:	48 8d 05 24 64 00 00 	lea    rax,[rip+0x6424]        # b0d0 <__TMC_END__>
    4cac:	c6 04 18 33          	mov    BYTE PTR [rax+rbx*1],0x33
    4cb0:	48 ff c3             	inc    rbx
    4cb3:	48 8d 3d 56 63 00 00 	lea    rdi,[rip+0x6356]        # b010 <scanf_format>
    4cba:	48 89 e6             	mov    rsi,rsp
    4cbd:	31 c0                	xor    eax,eax
    4cbf:	ff 15 0b 63 00 00    	call   QWORD PTR [rip+0x630b]        # afd0 <scanf@GLIBC_2.2.5>
    4cc5:	48 8b 04 24          	mov    rax,QWORD PTR [rsp]
    4cc9:	48 3d 96 01 00 00    	cmp    rax,0x196
    4ccf:	0f 84 d5 35 00 00    	je     82aa <node406>
    4cd5:	e9 73 41 00 00       	jmp    8e4d <fail_code>

0000000000004cda <node216>:
    4cda:	48 8d 05 ef 63 00 00 	lea    rax,[rip+0x63ef]        # b0d0 <__TMC_END__>
    4ce1:	c6 04 18 29          	mov    BYTE PTR [rax+rbx*1],0x29
    4ce5:	48 ff c3             	inc    rbx
    4ce8:	48 8d 3d 21 63 00 00 	lea    rdi,[rip+0x6321]        # b010 <scanf_format>
    4cef:	48 89 e6             	mov    rsi,rsp
    4cf2:	31 c0                	xor    eax,eax
    4cf4:	ff 15 d6 62 00 00    	call   QWORD PTR [rip+0x62d6]        # afd0 <scanf@GLIBC_2.2.5>
    4cfa:	48 8b 04 24          	mov    rax,QWORD PTR [rsp]
    4cfe:	48 3d 4c 01 00 00    	cmp    rax,0x14c
    4d04:	0f 84 c8 21 00 00    	je     6ed2 <node332>
    4d0a:	48 3d 2a 01 00 00    	cmp    rax,0x12a
    4d10:	0f 84 6e 18 00 00    	je     6584 <node298>
    4d16:	e9 32 41 00 00       	jmp    8e4d <fail_code>

0000000000004d1b <node217>:
    4d1b:	48 8d 05 ae 63 00 00 	lea    rax,[rip+0x63ae]        # b0d0 <__TMC_END__>
    4d22:	c6 04 18 60          	mov    BYTE PTR [rax+rbx*1],0x60
    4d26:	48 ff c3             	inc    rbx
    4d29:	48 8d 3d e0 62 00 00 	lea    rdi,[rip+0x62e0]        # b010 <scanf_format>
    4d30:	48 89 e6             	mov    rsi,rsp
    4d33:	31 c0                	xor    eax,eax
    4d35:	ff 15 95 62 00 00    	call   QWORD PTR [rip+0x6295]        # afd0 <scanf@GLIBC_2.2.5>
    4d3b:	48 8b 04 24          	mov    rax,QWORD PTR [rsp]
    4d3f:	48 3d aa 01 00 00    	cmp    rax,0x1aa
    4d45:	0f 84 1d 3a 00 00    	je     8768 <node426>
    4d4b:	48 83 f8 26          	cmp    rax,0x26
    4d4f:	0f 84 f9 ce ff ff    	je     1c4e <node38>
    4d55:	48 3d ce 00 00 00    	cmp    rax,0xce
    4d5b:	0f 84 f7 fb ff ff    	je     4958 <node206>
    4d61:	48 83 f8 45          	cmp    rax,0x45
    4d65:	0f 84 24 d6 ff ff    	je     238f <node69>
    4d6b:	48 3d 3b 01 00 00    	cmp    rax,0x13b
    4d71:	0f 84 62 1c 00 00    	je     69d9 <node315>
    4d77:	e9 d1 40 00 00       	jmp    8e4d <fail_code>

0000000000004d7c <node218>:
    4d7c:	48 8d 05 4d 63 00 00 	lea    rax,[rip+0x634d]        # b0d0 <__TMC_END__>
    4d83:	c6 04 18 67          	mov    BYTE PTR [rax+rbx*1],0x67
    4d87:	48 ff c3             	inc    rbx
    4d8a:	48 8d 3d 7f 62 00 00 	lea    rdi,[rip+0x627f]        # b010 <scanf_format>
    4d91:	48 89 e6             	mov    rsi,rsp
    4d94:	31 c0                	xor    eax,eax
    4d96:	ff 15 34 62 00 00    	call   QWORD PTR [rip+0x6234]        # afd0 <scanf@GLIBC_2.2.5>
    4d9c:	48 8b 04 24          	mov    rax,QWORD PTR [rsp]
    4da0:	48 3d 50 01 00 00    	cmp    rax,0x150
    4da6:	0f 84 30 22 00 00    	je     6fdc <node336>
    4dac:	48 83 f8 2b          	cmp    rax,0x2b
    4db0:	0f 84 95 cf ff ff    	je     1d4b <node43>
    4db6:	e9 92 40 00 00       	jmp    8e4d <fail_code>

0000000000004dbb <node219>:
    4dbb:	48 8d 05 0e 63 00 00 	lea    rax,[rip+0x630e]        # b0d0 <__TMC_END__>
    4dc2:	c6 04 18 52          	mov    BYTE PTR [rax+rbx*1],0x52
    4dc6:	48 ff c3             	inc    rbx
    4dc9:	48 8d 3d 40 62 00 00 	lea    rdi,[rip+0x6240]        # b010 <scanf_format>
    4dd0:	48 89 e6             	mov    rsi,rsp
    4dd3:	31 c0                	xor    eax,eax
    4dd5:	ff 15 f5 61 00 00    	call   QWORD PTR [rip+0x61f5]        # afd0 <scanf@GLIBC_2.2.5>
    4ddb:	48 8b 04 24          	mov    rax,QWORD PTR [rsp]
    4ddf:	48 3d 90 01 00 00    	cmp    rax,0x190
    4de5:	0f 84 31 33 00 00    	je     811c <node400>
    4deb:	48 3d a6 00 00 00    	cmp    rax,0xa6
    4df1:	0f 84 47 f0 ff ff    	je     3e3e <node166>
    4df7:	48 3d a8 00 00 00    	cmp    rax,0xa8
    4dfd:	0f 84 c5 f0 ff ff    	je     3ec8 <node168>
    4e03:	48 3d 64 01 00 00    	cmp    rax,0x164
    4e09:	0f 84 dd 26 00 00    	je     74ec <node356>
    4e0f:	48 83 f8 33          	cmp    rax,0x33
    4e13:	0f 84 ea d0 ff ff    	je     1f03 <node51>
    4e19:	48 83 f8 09          	cmp    rax,0x9
    4e1d:	0f 84 c6 c5 ff ff    	je     13e9 <node9>
    4e23:	48 83 f8 7b          	cmp    rax,0x7b
    4e27:	0f 84 d0 e2 ff ff    	je     30fd <node123>
    4e2d:	e9 1b 40 00 00       	jmp    8e4d <fail_code>

0000000000004e32 <node220>:
    4e32:	48 8d 05 97 62 00 00 	lea    rax,[rip+0x6297]        # b0d0 <__TMC_END__>
    4e39:	c6 04 18 6c          	mov    BYTE PTR [rax+rbx*1],0x6c
    4e3d:	48 ff c3             	inc    rbx
    4e40:	48 8d 3d c9 61 00 00 	lea    rdi,[rip+0x61c9]        # b010 <scanf_format>
    4e47:	48 89 e6             	mov    rsi,rsp
    4e4a:	31 c0                	xor    eax,eax
    4e4c:	ff 15 7e 61 00 00    	call   QWORD PTR [rip+0x617e]        # afd0 <scanf@GLIBC_2.2.5>
    4e52:	48 8b 04 24          	mov    rax,QWORD PTR [rsp]
    4e56:	48 3d 97 00 00 00    	cmp    rax,0x97
    4e5c:	0f 84 55 eb ff ff    	je     39b7 <node151>
    4e62:	48 83 f8 4c          	cmp    rax,0x4c
    4e66:	0f 84 18 d7 ff ff    	je     2584 <node76>
    4e6c:	48 3d 93 00 00 00    	cmp    rax,0x93
    4e72:	0f 84 d9 e9 ff ff    	je     3851 <node147>
    4e78:	e9 d0 3f 00 00       	jmp    8e4d <fail_code>

0000000000004e7d <node221>:
    4e7d:	48 8d 05 4c 62 00 00 	lea    rax,[rip+0x624c]        # b0d0 <__TMC_END__>
    4e84:	c6 04 18 5e          	mov    BYTE PTR [rax+rbx*1],0x5e
    4e88:	48 ff c3             	inc    rbx
    4e8b:	48 8d 3d 7e 61 00 00 	lea    rdi,[rip+0x617e]        # b010 <scanf_format>
    4e92:	48 89 e6             	mov    rsi,rsp
    4e95:	31 c0                	xor    eax,eax
    4e97:	ff 15 33 61 00 00    	call   QWORD PTR [rip+0x6133]        # afd0 <scanf@GLIBC_2.2.5>
    4e9d:	48 8b 04 24          	mov    rax,QWORD PTR [rsp]
    4ea1:	48 3d a8 01 00 00    	cmp    rax,0x1a8
    4ea7:	0f 84 47 38 00 00    	je     86f4 <node424>
    4ead:	48 3d 96 01 00 00    	cmp    rax,0x196
    4eb3:	0f 84 f1 33 00 00    	je     82aa <node406>
    4eb9:	e9 8f 3f 00 00       	jmp    8e4d <fail_code>

0000000000004ebe <node222>:
    4ebe:	48 8d 05 0b 62 00 00 	lea    rax,[rip+0x620b]        # b0d0 <__TMC_END__>
    4ec5:	c6 04 18 6f          	mov    BYTE PTR [rax+rbx*1],0x6f
    4ec9:	48 ff c3             	inc    rbx
    4ecc:	48 8d 3d 3d 61 00 00 	lea    rdi,[rip+0x613d]        # b010 <scanf_format>
    4ed3:	48 89 e6             	mov    rsi,rsp
    4ed6:	31 c0                	xor    eax,eax
    4ed8:	ff 15 f2 60 00 00    	call   QWORD PTR [rip+0x60f2]        # afd0 <scanf@GLIBC_2.2.5>
    4ede:	48 8b 04 24          	mov    rax,QWORD PTR [rsp]
    4ee2:	48 3d 06 01 00 00    	cmp    rax,0x106
    4ee8:	0f 84 9c 0b 00 00    	je     5a8a <node262>
    4eee:	e9 5a 3f 00 00       	jmp    8e4d <fail_code>

0000000000004ef3 <node223>:
    4ef3:	48 8d 05 d6 61 00 00 	lea    rax,[rip+0x61d6]        # b0d0 <__TMC_END__>
    4efa:	c6 04 18 6c          	mov    BYTE PTR [rax+rbx*1],0x6c
    4efe:	48 ff c3             	inc    rbx
    4f01:	48 8d 3d 08 61 00 00 	lea    rdi,[rip+0x6108]        # b010 <scanf_format>
    4f08:	48 89 e6             	mov    rsi,rsp
    4f0b:	31 c0                	xor    eax,eax
    4f0d:	ff 15 bd 60 00 00    	call   QWORD PTR [rip+0x60bd]        # afd0 <scanf@GLIBC_2.2.5>
    4f13:	48 8b 04 24          	mov    rax,QWORD PTR [rsp]
    4f17:	48 3d 5c 01 00 00    	cmp    rax,0x15c
    4f1d:	0f 84 a3 23 00 00    	je     72c6 <node348>
    4f23:	48 3d cb 00 00 00    	cmp    rax,0xcb
    4f29:	0f 84 76 f9 ff ff    	je     48a5 <node203>
    4f2f:	48 3d c3 01 00 00    	cmp    rax,0x1c3
    4f35:	0f 84 22 3e 00 00    	je     8d5d <node451>
    4f3b:	e9 0d 3f 00 00       	jmp    8e4d <fail_code>

0000000000004f40 <node224>:
    4f40:	48 8d 05 89 61 00 00 	lea    rax,[rip+0x6189]        # b0d0 <__TMC_END__>
    4f47:	c6 04 18 3f          	mov    BYTE PTR [rax+rbx*1],0x3f
    4f4b:	48 ff c3             	inc    rbx
    4f4e:	48 8d 3d bb 60 00 00 	lea    rdi,[rip+0x60bb]        # b010 <scanf_format>
    4f55:	48 89 e6             	mov    rsi,rsp
    4f58:	31 c0                	xor    eax,eax
    4f5a:	ff 15 70 60 00 00    	call   QWORD PTR [rip+0x6070]        # afd0 <scanf@GLIBC_2.2.5>
    4f60:	48 8b 04 24          	mov    rax,QWORD PTR [rsp]
    4f64:	48 3d ea 00 00 00    	cmp    rax,0xea
    4f6a:	0f 84 00 02 00 00    	je     5170 <node234>
    4f70:	48 3d 20 01 00 00    	cmp    rax,0x120
    4f76:	0f 84 40 13 00 00    	je     62bc <node288>
    4f7c:	48 3d d2 00 00 00    	cmp    rax,0xd2
    4f82:	0f 84 6a fb ff ff    	je     4af2 <node210>
    4f88:	48 3d c5 00 00 00    	cmp    rax,0xc5
    4f8e:	0f 84 c5 f6 ff ff    	je     4659 <node197>
    4f94:	48 3d bd 01 00 00    	cmp    rax,0x1bd
    4f9a:	0f 84 d7 3b 00 00    	je     8b77 <node445>
    4fa0:	48 3d e3 00 00 00    	cmp    rax,0xe3
    4fa6:	74 61                	je     5009 <node227>
    4fa8:	e9 a0 3e 00 00       	jmp    8e4d <fail_code>

0000000000004fad <node225>:
    4fad:	48 8d 05 1c 61 00 00 	lea    rax,[rip+0x611c]        # b0d0 <__TMC_END__>
    4fb4:	c6 04 18 3b          	mov    BYTE PTR [rax+rbx*1],0x3b
    4fb8:	48 ff c3             	inc    rbx
    4fbb:	e9 8d 3e 00 00       	jmp    8e4d <fail_code>

0000000000004fc0 <node226>:
    4fc0:	48 8d 05 09 61 00 00 	lea    rax,[rip+0x6109]        # b0d0 <__TMC_END__>
    4fc7:	c6 04 18 67          	mov    BYTE PTR [rax+rbx*1],0x67
    4fcb:	48 ff c3             	inc    rbx
    4fce:	48 8d 3d 3b 60 00 00 	lea    rdi,[rip+0x603b]        # b010 <scanf_format>
    4fd5:	48 89 e6             	mov    rsi,rsp
    4fd8:	31 c0                	xor    eax,eax
    4fda:	ff 15 f0 5f 00 00    	call   QWORD PTR [rip+0x5ff0]        # afd0 <scanf@GLIBC_2.2.5>
    4fe0:	48 8b 04 24          	mov    rax,QWORD PTR [rsp]
    4fe4:	48 83 f8 2f          	cmp    rax,0x2f
    4fe8:	0f 84 0d ce ff ff    	je     1dfb <node47>
    4fee:	48 3d 51 01 00 00    	cmp    rax,0x151
    4ff4:	0f 84 f5 1f 00 00    	je     6fef <node337>
    4ffa:	48 83 f8 3f          	cmp    rax,0x3f
    4ffe:	0f 84 65 d2 ff ff    	je     2269 <node63>
    5004:	e9 44 3e 00 00       	jmp    8e4d <fail_code>

0000000000005009 <node227>:
    5009:	48 8d 05 c0 60 00 00 	lea    rax,[rip+0x60c0]        # b0d0 <__TMC_END__>
    5010:	c6 04 18 3d          	mov    BYTE PTR [rax+rbx*1],0x3d
    5014:	48 ff c3             	inc    rbx
    5017:	e9 31 3e 00 00       	jmp    8e4d <fail_code>

000000000000501c <node228>:
    501c:	48 8d 05 ad 60 00 00 	lea    rax,[rip+0x60ad]        # b0d0 <__TMC_END__>
    5023:	c6 04 18 5b          	mov    BYTE PTR [rax+rbx*1],0x5b
    5027:	48 ff c3             	inc    rbx
    502a:	48 8d 3d df 5f 00 00 	lea    rdi,[rip+0x5fdf]        # b010 <scanf_format>
    5031:	48 89 e6             	mov    rsi,rsp
    5034:	31 c0                	xor    eax,eax
    5036:	ff 15 94 5f 00 00    	call   QWORD PTR [rip+0x5f94]        # afd0 <scanf@GLIBC_2.2.5>
    503c:	48 8b 04 24          	mov    rax,QWORD PTR [rsp]
    5040:	48 3d 26 01 00 00    	cmp    rax,0x126
    5046:	0f 84 fe 13 00 00    	je     644a <node294>
    504c:	48 3d 9c 01 00 00    	cmp    rax,0x19c
    5052:	0f 84 ee 33 00 00    	je     8446 <node412>
    5058:	48 83 f8 24          	cmp    rax,0x24
    505c:	0f 84 62 cb ff ff    	je     1bc4 <node36>
    5062:	48 3d e7 00 00 00    	cmp    rax,0xe7
    5068:	0f 84 a9 00 00 00    	je     5117 <node231>
    506e:	48 3d b5 00 00 00    	cmp    rax,0xb5
    5074:	0f 84 cb f1 ff ff    	je     4245 <node181>
    507a:	48 3d bf 00 00 00    	cmp    rax,0xbf
    5080:	0f 84 3d f4 ff ff    	je     44c3 <node191>
    5086:	e9 c2 3d 00 00       	jmp    8e4d <fail_code>

000000000000508b <node229>:
    508b:	48 8d 05 3e 60 00 00 	lea    rax,[rip+0x603e]        # b0d0 <__TMC_END__>
    5092:	c6 04 18 58          	mov    BYTE PTR [rax+rbx*1],0x58
    5096:	48 ff c3             	inc    rbx
    5099:	48 8d 3d 70 5f 00 00 	lea    rdi,[rip+0x5f70]        # b010 <scanf_format>
    50a0:	48 89 e6             	mov    rsi,rsp
    50a3:	31 c0                	xor    eax,eax
    50a5:	ff 15 25 5f 00 00    	call   QWORD PTR [rip+0x5f25]        # afd0 <scanf@GLIBC_2.2.5>
    50ab:	48 8b 04 24          	mov    rax,QWORD PTR [rsp]
    50af:	48 3d 7a 01 00 00    	cmp    rax,0x17a
    50b5:	0f 84 17 2a 00 00    	je     7ad2 <node378>
    50bb:	48 83 f8 25          	cmp    rax,0x25
    50bf:	0f 84 3e cb ff ff    	je     1c03 <node37>
    50c5:	48 3d 67 01 00 00    	cmp    rax,0x167
    50cb:	0f 84 56 25 00 00    	je     7627 <node359>
    50d1:	e9 77 3d 00 00       	jmp    8e4d <fail_code>

00000000000050d6 <node230>:
    50d6:	48 8d 05 f3 5f 00 00 	lea    rax,[rip+0x5ff3]        # b0d0 <__TMC_END__>
    50dd:	c6 04 18 38          	mov    BYTE PTR [rax+rbx*1],0x38
    50e1:	48 ff c3             	inc    rbx
    50e4:	48 8d 3d 25 5f 00 00 	lea    rdi,[rip+0x5f25]        # b010 <scanf_format>
    50eb:	48 89 e6             	mov    rsi,rsp
    50ee:	31 c0                	xor    eax,eax
    50f0:	ff 15 da 5e 00 00    	call   QWORD PTR [rip+0x5eda]        # afd0 <scanf@GLIBC_2.2.5>
    50f6:	48 8b 04 24          	mov    rax,QWORD PTR [rsp]
    50fa:	48 3d b0 01 00 00    	cmp    rax,0x1b0
    5100:	0f 84 7c 37 00 00    	je     8882 <node432>
    5106:	48 3d c2 01 00 00    	cmp    rax,0x1c2
    510c:	0f 84 38 3c 00 00    	je     8d4a <node450>
    5112:	e9 36 3d 00 00       	jmp    8e4d <fail_code>

0000000000005117 <node231>:
    5117:	48 8d 05 b2 5f 00 00 	lea    rax,[rip+0x5fb2]        # b0d0 <__TMC_END__>
    511e:	c6 04 18 49          	mov    BYTE PTR [rax+rbx*1],0x49
    5122:	48 ff c3             	inc    rbx
    5125:	48 8d 3d e4 5e 00 00 	lea    rdi,[rip+0x5ee4]        # b010 <scanf_format>
    512c:	48 89 e6             	mov    rsi,rsp
    512f:	31 c0                	xor    eax,eax
    5131:	ff 15 99 5e 00 00    	call   QWORD PTR [rip+0x5e99]        # afd0 <scanf@GLIBC_2.2.5>
    5137:	48 8b 04 24          	mov    rax,QWORD PTR [rsp]
    513b:	48 83 f8 13          	cmp    rax,0x13
    513f:	0f 84 88 c5 ff ff    	je     16cd <node19>
    5145:	e9 03 3d 00 00       	jmp    8e4d <fail_code>

000000000000514a <node232>:
    514a:	48 8d 05 7f 5f 00 00 	lea    rax,[rip+0x5f7f]        # b0d0 <__TMC_END__>
    5151:	c6 04 18 79          	mov    BYTE PTR [rax+rbx*1],0x79
    5155:	48 ff c3             	inc    rbx
    5158:	e9 f0 3c 00 00       	jmp    8e4d <fail_code>

000000000000515d <node233>:
    515d:	48 8d 05 6c 5f 00 00 	lea    rax,[rip+0x5f6c]        # b0d0 <__TMC_END__>
    5164:	c6 04 18 4e          	mov    BYTE PTR [rax+rbx*1],0x4e
    5168:	48 ff c3             	inc    rbx
    516b:	e9 dd 3c 00 00       	jmp    8e4d <fail_code>

0000000000005170 <node234>:
    5170:	48 8d 05 59 5f 00 00 	lea    rax,[rip+0x5f59]        # b0d0 <__TMC_END__>
    5177:	c6 04 18 34          	mov    BYTE PTR [rax+rbx*1],0x34
    517b:	48 ff c3             	inc    rbx
    517e:	48 8d 3d 8b 5e 00 00 	lea    rdi,[rip+0x5e8b]        # b010 <scanf_format>
    5185:	48 89 e6             	mov    rsi,rsp
    5188:	31 c0                	xor    eax,eax
    518a:	ff 15 40 5e 00 00    	call   QWORD PTR [rip+0x5e40]        # afd0 <scanf@GLIBC_2.2.5>
    5190:	48 8b 04 24          	mov    rax,QWORD PTR [rsp]
    5194:	48 3d d4 00 00 00    	cmp    rax,0xd4
    519a:	0f 84 0a fa ff ff    	je     4baa <node212>
    51a0:	48 3d 9f 00 00 00    	cmp    rax,0x9f
    51a6:	0f 84 1d eb ff ff    	je     3cc9 <node159>
    51ac:	48 3d 7f 01 00 00    	cmp    rax,0x17f
    51b2:	0f 84 69 2a 00 00    	je     7c21 <node383>
    51b8:	e9 90 3c 00 00       	jmp    8e4d <fail_code>

00000000000051bd <node235>:
    51bd:	48 8d 05 0c 5f 00 00 	lea    rax,[rip+0x5f0c]        # b0d0 <__TMC_END__>
    51c4:	c6 04 18 67          	mov    BYTE PTR [rax+rbx*1],0x67
    51c8:	48 ff c3             	inc    rbx
    51cb:	48 8d 3d 3e 5e 00 00 	lea    rdi,[rip+0x5e3e]        # b010 <scanf_format>
    51d2:	48 89 e6             	mov    rsi,rsp
    51d5:	31 c0                	xor    eax,eax
    51d7:	ff 15 f3 5d 00 00    	call   QWORD PTR [rip+0x5df3]        # afd0 <scanf@GLIBC_2.2.5>
    51dd:	48 8b 04 24          	mov    rax,QWORD PTR [rsp]
    51e1:	48 83 f8 42          	cmp    rax,0x42
    51e5:	0f 84 d9 d0 ff ff    	je     22c4 <node66>
    51eb:	48 3d c4 01 00 00    	cmp    rax,0x1c4
    51f1:	0f 84 c7 3b 00 00    	je     8dbe <node452>
    51f7:	48 3d 9e 00 00 00    	cmp    rax,0x9e
    51fd:	0f 84 7b ea ff ff    	je     3c7e <node158>
    5203:	48 3d 1e 01 00 00    	cmp    rax,0x11e
    5209:	0f 84 fd 0f 00 00    	je     620c <node286>
    520f:	48 83 f8 6f          	cmp    rax,0x6f
    5213:	0f 84 68 db ff ff    	je     2d81 <node111>
    5219:	48 3d a7 01 00 00    	cmp    rax,0x1a7
    521f:	0f 84 9c 34 00 00    	je     86c1 <node423>
    5225:	e9 23 3c 00 00       	jmp    8e4d <fail_code>

000000000000522a <node236>:
    522a:	48 8d 05 9f 5e 00 00 	lea    rax,[rip+0x5e9f]        # b0d0 <__TMC_END__>
    5231:	c6 04 18 29          	mov    BYTE PTR [rax+rbx*1],0x29
    5235:	48 ff c3             	inc    rbx
    5238:	48 8d 3d d1 5d 00 00 	lea    rdi,[rip+0x5dd1]        # b010 <scanf_format>
    523f:	48 89 e6             	mov    rsi,rsp
    5242:	31 c0                	xor    eax,eax
    5244:	ff 15 86 5d 00 00    	call   QWORD PTR [rip+0x5d86]        # afd0 <scanf@GLIBC_2.2.5>
    524a:	48 8b 04 24          	mov    rax,QWORD PTR [rsp]
    524e:	48 3d 10 01 00 00    	cmp    rax,0x110
    5254:	0f 84 16 0b 00 00    	je     5d70 <node272>
    525a:	48 3d 46 01 00 00    	cmp    rax,0x146
    5260:	0f 84 04 1b 00 00    	je     6d6a <node326>
    5266:	48 3d b1 01 00 00    	cmp    rax,0x1b1
    526c:	0f 84 23 36 00 00    	je     8895 <node433>
    5272:	e9 d6 3b 00 00       	jmp    8e4d <fail_code>

0000000000005277 <node237>:
    5277:	48 8d 05 52 5e 00 00 	lea    rax,[rip+0x5e52]        # b0d0 <__TMC_END__>
    527e:	c6 04 18 2f          	mov    BYTE PTR [rax+rbx*1],0x2f
    5282:	48 ff c3             	inc    rbx
    5285:	48 8d 3d 84 5d 00 00 	lea    rdi,[rip+0x5d84]        # b010 <scanf_format>
    528c:	48 89 e6             	mov    rsi,rsp
    528f:	31 c0                	xor    eax,eax
    5291:	ff 15 39 5d 00 00    	call   QWORD PTR [rip+0x5d39]        # afd0 <scanf@GLIBC_2.2.5>
    5297:	48 8b 04 24          	mov    rax,QWORD PTR [rsp]
    529b:	48 3d b6 01 00 00    	cmp    rax,0x1b6
    52a1:	0f 84 25 37 00 00    	je     89cc <node438>
    52a7:	e9 a1 3b 00 00       	jmp    8e4d <fail_code>

00000000000052ac <node238>:
    52ac:	48 8d 05 1d 5e 00 00 	lea    rax,[rip+0x5e1d]        # b0d0 <__TMC_END__>
    52b3:	c6 04 18 70          	mov    BYTE PTR [rax+rbx*1],0x70
    52b7:	48 ff c3             	inc    rbx
    52ba:	48 8d 3d 4f 5d 00 00 	lea    rdi,[rip+0x5d4f]        # b010 <scanf_format>
    52c1:	48 89 e6             	mov    rsi,rsp
    52c4:	31 c0                	xor    eax,eax
    52c6:	ff 15 04 5d 00 00    	call   QWORD PTR [rip+0x5d04]        # afd0 <scanf@GLIBC_2.2.5>
    52cc:	48 8b 04 24          	mov    rax,QWORD PTR [rsp]
    52d0:	48 3d c1 00 00 00    	cmp    rax,0xc1
    52d6:	0f 84 6f f2 ff ff    	je     454b <node193>
    52dc:	48 3d 94 01 00 00    	cmp    rax,0x194
    52e2:	0f 84 4a 2f 00 00    	je     8232 <node404>
    52e8:	48 83 f8 0b          	cmp    rax,0xb
    52ec:	0f 84 97 c1 ff ff    	je     1489 <node11>
    52f2:	48 3d a7 01 00 00    	cmp    rax,0x1a7
    52f8:	0f 84 c3 33 00 00    	je     86c1 <node423>
    52fe:	e9 4a 3b 00 00       	jmp    8e4d <fail_code>

0000000000005303 <node239>:
    5303:	48 8d 05 c6 5d 00 00 	lea    rax,[rip+0x5dc6]        # b0d0 <__TMC_END__>
    530a:	c6 04 18 75          	mov    BYTE PTR [rax+rbx*1],0x75
    530e:	48 ff c3             	inc    rbx
    5311:	48 8d 3d f8 5c 00 00 	lea    rdi,[rip+0x5cf8]        # b010 <scanf_format>
    5318:	48 89 e6             	mov    rsi,rsp
    531b:	31 c0                	xor    eax,eax
    531d:	ff 15 ad 5c 00 00    	call   QWORD PTR [rip+0x5cad]        # afd0 <scanf@GLIBC_2.2.5>
    5323:	48 8b 04 24          	mov    rax,QWORD PTR [rsp]
    5327:	48 3d 08 01 00 00    	cmp    rax,0x108
    532d:	0f 84 7d 07 00 00    	je     5ab0 <node264>
    5333:	48 3d 00 01 00 00    	cmp    rax,0x100
    5339:	0f 84 e1 05 00 00    	je     5920 <node256>
    533f:	48 3d 44 01 00 00    	cmp    rax,0x144
    5345:	0f 84 d7 19 00 00    	je     6d22 <node324>
    534b:	48 3d 11 01 00 00    	cmp    rax,0x111
    5351:	0f 84 58 0a 00 00    	je     5daf <node273>
    5357:	48 3d b1 00 00 00    	cmp    rax,0xb1
    535d:	0f 84 e4 ed ff ff    	je     4147 <node177>
    5363:	48 3d 31 01 00 00    	cmp    rax,0x131
    5369:	0f 84 88 13 00 00    	je     66f7 <node305>
    536f:	e9 d9 3a 00 00       	jmp    8e4d <fail_code>

0000000000005374 <node240>:
    5374:	48 8d 05 55 5d 00 00 	lea    rax,[rip+0x5d55]        # b0d0 <__TMC_END__>
    537b:	c6 04 18 26          	mov    BYTE PTR [rax+rbx*1],0x26
    537f:	48 ff c3             	inc    rbx
    5382:	48 8d 3d 87 5c 00 00 	lea    rdi,[rip+0x5c87]        # b010 <scanf_format>
    5389:	48 89 e6             	mov    rsi,rsp
    538c:	31 c0                	xor    eax,eax
    538e:	ff 15 3c 5c 00 00    	call   QWORD PTR [rip+0x5c3c]        # afd0 <scanf@GLIBC_2.2.5>
    5394:	48 8b 04 24          	mov    rax,QWORD PTR [rsp]
    5398:	48 3d e9 00 00 00    	cmp    rax,0xe9
    539e:	0f 84 b9 fd ff ff    	je     515d <node233>
    53a4:	48 83 f8 33          	cmp    rax,0x33
    53a8:	0f 84 55 cb ff ff    	je     1f03 <node51>
    53ae:	e9 9a 3a 00 00       	jmp    8e4d <fail_code>

00000000000053b3 <node241>:
    53b3:	48 8d 05 16 5d 00 00 	lea    rax,[rip+0x5d16]        # b0d0 <__TMC_END__>
    53ba:	c6 04 18 6c          	mov    BYTE PTR [rax+rbx*1],0x6c
    53be:	48 ff c3             	inc    rbx
    53c1:	48 8d 3d 48 5c 00 00 	lea    rdi,[rip+0x5c48]        # b010 <scanf_format>
    53c8:	48 89 e6             	mov    rsi,rsp
    53cb:	31 c0                	xor    eax,eax
    53cd:	ff 15 fd 5b 00 00    	call   QWORD PTR [rip+0x5bfd]        # afd0 <scanf@GLIBC_2.2.5>
    53d3:	48 8b 04 24          	mov    rax,QWORD PTR [rsp]
    53d7:	48 3d d4 00 00 00    	cmp    rax,0xd4
    53dd:	0f 84 c7 f7 ff ff    	je     4baa <node212>
    53e3:	48 3d 13 01 00 00    	cmp    rax,0x113
    53e9:	0f 84 e2 0a 00 00    	je     5ed1 <node275>
    53ef:	e9 59 3a 00 00       	jmp    8e4d <fail_code>

00000000000053f4 <node242>:
    53f4:	48 8d 05 d5 5c 00 00 	lea    rax,[rip+0x5cd5]        # b0d0 <__TMC_END__>
    53fb:	c6 04 18 2b          	mov    BYTE PTR [rax+rbx*1],0x2b
    53ff:	48 ff c3             	inc    rbx
    5402:	48 8d 3d 07 5c 00 00 	lea    rdi,[rip+0x5c07]        # b010 <scanf_format>
    5409:	48 89 e6             	mov    rsi,rsp
    540c:	31 c0                	xor    eax,eax
    540e:	ff 15 bc 5b 00 00    	call   QWORD PTR [rip+0x5bbc]        # afd0 <scanf@GLIBC_2.2.5>
    5414:	48 8b 04 24          	mov    rax,QWORD PTR [rsp]
    5418:	48 3d ea 00 00 00    	cmp    rax,0xea
    541e:	0f 84 4c fd ff ff    	je     5170 <node234>
    5424:	48 3d a6 00 00 00    	cmp    rax,0xa6
    542a:	0f 84 0e ea ff ff    	je     3e3e <node166>
    5430:	48 83 f8 0c          	cmp    rax,0xc
    5434:	0f 84 62 c0 ff ff    	je     149c <node12>
    543a:	48 3d 82 01 00 00    	cmp    rax,0x182
    5440:	0f 84 b4 28 00 00    	je     7cfa <node386>
    5446:	48 3d 28 01 00 00    	cmp    rax,0x128
    544c:	0f 84 9a 10 00 00    	je     64ec <node296>
    5452:	48 3d 57 01 00 00    	cmp    rax,0x157
    5458:	0f 84 07 1d 00 00    	je     7165 <node343>
    545e:	48 3d 53 01 00 00    	cmp    rax,0x153
    5464:	0f 84 05 1c 00 00    	je     706f <node339>
    546a:	48 3d 5b 01 00 00    	cmp    rax,0x15b
    5470:	0f 84 3d 1e 00 00    	je     72b3 <node347>
    5476:	48 83 f8 75          	cmp    rax,0x75
    547a:	0f 84 eb da ff ff    	je     2f6b <node117>
    5480:	48 3d 4b 01 00 00    	cmp    rax,0x14b
    5486:	0f 84 f3 19 00 00    	je     6e7f <node331>
    548c:	e9 bc 39 00 00       	jmp    8e4d <fail_code>

0000000000005491 <node243>:
    5491:	48 8d 05 38 5c 00 00 	lea    rax,[rip+0x5c38]        # b0d0 <__TMC_END__>
    5498:	c6 04 18 58          	mov    BYTE PTR [rax+rbx*1],0x58
    549c:	48 ff c3             	inc    rbx
    549f:	48 8d 3d 6a 5b 00 00 	lea    rdi,[rip+0x5b6a]        # b010 <scanf_format>
    54a6:	48 89 e6             	mov    rsi,rsp
    54a9:	31 c0                	xor    eax,eax
    54ab:	ff 15 1f 5b 00 00    	call   QWORD PTR [rip+0x5b1f]        # afd0 <scanf@GLIBC_2.2.5>
    54b1:	48 8b 04 24          	mov    rax,QWORD PTR [rsp]
    54b5:	48 83 f8 24          	cmp    rax,0x24
    54b9:	0f 84 05 c7 ff ff    	je     1bc4 <node36>
    54bf:	48 3d e6 00 00 00    	cmp    rax,0xe6
    54c5:	0f 84 0b fc ff ff    	je     50d6 <node230>
    54cb:	48 83 f8 05          	cmp    rax,0x5
    54cf:	0f 84 fa bd ff ff    	je     12cf <node5>
    54d5:	48 3d b2 01 00 00    	cmp    rax,0x1b2
    54db:	0f 84 f3 33 00 00    	je     88d4 <node434>
    54e1:	48 3d 0d 01 00 00    	cmp    rax,0x10d
    54e7:	0f 84 8a 07 00 00    	je     5c77 <node269>
    54ed:	e9 5b 39 00 00       	jmp    8e4d <fail_code>

00000000000054f2 <node244>:
    54f2:	48 8d 05 d7 5b 00 00 	lea    rax,[rip+0x5bd7]        # b0d0 <__TMC_END__>
    54f9:	c6 04 18 23          	mov    BYTE PTR [rax+rbx*1],0x23
    54fd:	48 ff c3             	inc    rbx
    5500:	48 8d 3d 09 5b 00 00 	lea    rdi,[rip+0x5b09]        # b010 <scanf_format>
    5507:	48 89 e6             	mov    rsi,rsp
    550a:	31 c0                	xor    eax,eax
    550c:	ff 15 be 5a 00 00    	call   QWORD PTR [rip+0x5abe]        # afd0 <scanf@GLIBC_2.2.5>
    5512:	48 8b 04 24          	mov    rax,QWORD PTR [rsp]
    5516:	48 3d 80 00 00 00    	cmp    rax,0x80
    551c:	0f 84 78 dd ff ff    	je     329a <node128>
    5522:	e9 26 39 00 00       	jmp    8e4d <fail_code>

0000000000005527 <node245>:
    5527:	48 8d 05 a2 5b 00 00 	lea    rax,[rip+0x5ba2]        # b0d0 <__TMC_END__>
    552e:	c6 04 18 5f          	mov    BYTE PTR [rax+rbx*1],0x5f
    5532:	48 ff c3             	inc    rbx
    5535:	48 8d 3d d4 5a 00 00 	lea    rdi,[rip+0x5ad4]        # b010 <scanf_format>
    553c:	48 89 e6             	mov    rsi,rsp
    553f:	31 c0                	xor    eax,eax
    5541:	ff 15 89 5a 00 00    	call   QWORD PTR [rip+0x5a89]        # afd0 <scanf@GLIBC_2.2.5>
    5547:	48 8b 04 24          	mov    rax,QWORD PTR [rsp]
    554b:	48 3d 4f 01 00 00    	cmp    rax,0x14f
    5551:	0f 84 2e 1a 00 00    	je     6f85 <node335>
    5557:	48 83 f8 20          	cmp    rax,0x20
    555b:	0f 84 a5 c4 ff ff    	je     1a06 <node32>
    5561:	48 3d 8a 00 00 00    	cmp    rax,0x8a
    5567:	0f 84 eb df ff ff    	je     3558 <node138>
    556d:	48 3d 15 01 00 00    	cmp    rax,0x115
    5573:	0f 84 7e 09 00 00    	je     5ef7 <node277>
    5579:	e9 cf 38 00 00       	jmp    8e4d <fail_code>

000000000000557e <node246>:
    557e:	48 8d 05 4b 5b 00 00 	lea    rax,[rip+0x5b4b]        # b0d0 <__TMC_END__>
    5585:	c6 04 18 70          	mov    BYTE PTR [rax+rbx*1],0x70
    5589:	48 ff c3             	inc    rbx
    558c:	48 8d 3d 7d 5a 00 00 	lea    rdi,[rip+0x5a7d]        # b010 <scanf_format>
    5593:	48 89 e6             	mov    rsi,rsp
    5596:	31 c0                	xor    eax,eax
    5598:	ff 15 32 5a 00 00    	call   QWORD PTR [rip+0x5a32]        # afd0 <scanf@GLIBC_2.2.5>
    559e:	48 8b 04 24          	mov    rax,QWORD PTR [rsp]
    55a2:	48 3d 5f 01 00 00    	cmp    rax,0x15f
    55a8:	0f 84 cf 1d 00 00    	je     737d <node351>
    55ae:	e9 9a 38 00 00       	jmp    8e4d <fail_code>

00000000000055b3 <node247>:
    55b3:	48 8d 05 16 5b 00 00 	lea    rax,[rip+0x5b16]        # b0d0 <__TMC_END__>
    55ba:	c6 04 18 27          	mov    BYTE PTR [rax+rbx*1],0x27
    55be:	48 ff c3             	inc    rbx
    55c1:	48 8d 3d 48 5a 00 00 	lea    rdi,[rip+0x5a48]        # b010 <scanf_format>
    55c8:	48 89 e6             	mov    rsi,rsp
    55cb:	31 c0                	xor    eax,eax
    55cd:	ff 15 fd 59 00 00    	call   QWORD PTR [rip+0x59fd]        # afd0 <scanf@GLIBC_2.2.5>
    55d3:	48 8b 04 24          	mov    rax,QWORD PTR [rsp]
    55d7:	48 83 f8 6c          	cmp    rax,0x6c
    55db:	0f 84 d1 d6 ff ff    	je     2cb2 <node108>
    55e1:	48 83 f8 11          	cmp    rax,0x11
    55e5:	0f 84 86 c0 ff ff    	je     1671 <node17>
    55eb:	e9 5d 38 00 00       	jmp    8e4d <fail_code>

00000000000055f0 <node248>:
    55f0:	48 8d 05 d9 5a 00 00 	lea    rax,[rip+0x5ad9]        # b0d0 <__TMC_END__>
    55f7:	c6 04 18 4c          	mov    BYTE PTR [rax+rbx*1],0x4c
    55fb:	48 ff c3             	inc    rbx
    55fe:	48 8d 3d 0b 5a 00 00 	lea    rdi,[rip+0x5a0b]        # b010 <scanf_format>
    5605:	48 89 e6             	mov    rsi,rsp
    5608:	31 c0                	xor    eax,eax
    560a:	ff 15 c0 59 00 00    	call   QWORD PTR [rip+0x59c0]        # afd0 <scanf@GLIBC_2.2.5>
    5610:	48 8b 04 24          	mov    rax,QWORD PTR [rsp]
    5614:	48 3d b0 00 00 00    	cmp    rax,0xb0
    561a:	0f 84 de ea ff ff    	je     40fe <node176>
    5620:	48 3d a9 01 00 00    	cmp    rax,0x1a9
    5626:	0f 84 fb 30 00 00    	je     8727 <node425>
    562c:	48 3d b5 01 00 00    	cmp    rax,0x1b5
    5632:	0f 84 5f 33 00 00    	je     8997 <node437>
    5638:	e9 10 38 00 00       	jmp    8e4d <fail_code>

000000000000563d <node249>:
    563d:	48 8d 05 8c 5a 00 00 	lea    rax,[rip+0x5a8c]        # b0d0 <__TMC_END__>
    5644:	c6 04 18 65          	mov    BYTE PTR [rax+rbx*1],0x65
    5648:	48 ff c3             	inc    rbx
    564b:	48 8d 3d be 59 00 00 	lea    rdi,[rip+0x59be]        # b010 <scanf_format>
    5652:	48 89 e6             	mov    rsi,rsp
    5655:	31 c0                	xor    eax,eax
    5657:	ff 15 73 59 00 00    	call   QWORD PTR [rip+0x5973]        # afd0 <scanf@GLIBC_2.2.5>
    565d:	48 8b 04 24          	mov    rax,QWORD PTR [rsp]
    5661:	48 83 f8 7e          	cmp    rax,0x7e
    5665:	0f 84 8b db ff ff    	je     31f6 <node126>
    566b:	48 83 f8 62          	cmp    rax,0x62
    566f:	0f 84 1d d4 ff ff    	je     2a92 <node98>
    5675:	48 3d 56 01 00 00    	cmp    rax,0x156
    567b:	0f 84 a5 1a 00 00    	je     7126 <node342>
    5681:	48 3d f0 00 00 00    	cmp    rax,0xf0
    5687:	0f 84 e7 fc ff ff    	je     5374 <node240>
    568d:	48 3d c4 00 00 00    	cmp    rax,0xc4
    5693:	0f 84 73 ef ff ff    	je     460c <node196>
    5699:	48 3d 26 01 00 00    	cmp    rax,0x126
    569f:	0f 84 a5 0d 00 00    	je     644a <node294>
    56a5:	48 83 f8 48          	cmp    rax,0x48
    56a9:	0f 84 93 cd ff ff    	je     2442 <node72>
    56af:	48 83 f8 11          	cmp    rax,0x11
    56b3:	0f 84 b8 bf ff ff    	je     1671 <node17>
    56b9:	48 83 f8 45          	cmp    rax,0x45
    56bd:	0f 84 cc cc ff ff    	je     238f <node69>
    56c3:	48 83 f8 22          	cmp    rax,0x22
    56c7:	0f 84 13 c4 ff ff    	je     1ae0 <node34>
    56cd:	e9 7b 37 00 00       	jmp    8e4d <fail_code>

00000000000056d2 <node250>:
    56d2:	48 8d 05 f7 59 00 00 	lea    rax,[rip+0x59f7]        # b0d0 <__TMC_END__>
    56d9:	c6 04 18 74          	mov    BYTE PTR [rax+rbx*1],0x74
    56dd:	48 ff c3             	inc    rbx
    56e0:	48 8d 3d 29 59 00 00 	lea    rdi,[rip+0x5929]        # b010 <scanf_format>
    56e7:	48 89 e6             	mov    rsi,rsp
    56ea:	31 c0                	xor    eax,eax
    56ec:	ff 15 de 58 00 00    	call   QWORD PTR [rip+0x58de]        # afd0 <scanf@GLIBC_2.2.5>
    56f2:	48 8b 04 24          	mov    rax,QWORD PTR [rsp]
    56f6:	48 3d 3a 01 00 00    	cmp    rax,0x13a
    56fc:	0f 84 c4 12 00 00    	je     69c6 <node314>
    5702:	48 83 f8 17          	cmp    rax,0x17
    5706:	0f 84 c5 c0 ff ff    	je     17d1 <node23>
    570c:	48 3d 64 01 00 00    	cmp    rax,0x164
    5712:	0f 84 d4 1d 00 00    	je     74ec <node356>
    5718:	48 83 f8 38          	cmp    rax,0x38
    571c:	0f 84 f6 c8 ff ff    	je     2018 <node56>
    5722:	48 3d f3 00 00 00    	cmp    rax,0xf3
    5728:	0f 84 63 fd ff ff    	je     5491 <node243>
    572e:	48 3d 79 01 00 00    	cmp    rax,0x179
    5734:	0f 84 4b 23 00 00    	je     7a85 <node377>
    573a:	e9 0e 37 00 00       	jmp    8e4d <fail_code>

000000000000573f <node251>:
    573f:	48 8d 05 8a 59 00 00 	lea    rax,[rip+0x598a]        # b0d0 <__TMC_END__>
    5746:	c6 04 18 39          	mov    BYTE PTR [rax+rbx*1],0x39
    574a:	48 ff c3             	inc    rbx
    574d:	48 8d 3d bc 58 00 00 	lea    rdi,[rip+0x58bc]        # b010 <scanf_format>
    5754:	48 89 e6             	mov    rsi,rsp
    5757:	31 c0                	xor    eax,eax
    5759:	ff 15 71 58 00 00    	call   QWORD PTR [rip+0x5871]        # afd0 <scanf@GLIBC_2.2.5>
    575f:	48 8b 04 24          	mov    rax,QWORD PTR [rsp]
    5763:	48 3d ea 00 00 00    	cmp    rax,0xea
    5769:	0f 84 01 fa ff ff    	je     5170 <node234>
    576f:	48 3d c2 01 00 00    	cmp    rax,0x1c2
    5775:	0f 84 cf 35 00 00    	je     8d4a <node450>
    577b:	48 83 f8 7e          	cmp    rax,0x7e
    577f:	0f 84 71 da ff ff    	je     31f6 <node126>
    5785:	48 83 f8 72          	cmp    rax,0x72
    5789:	0f 84 9b d6 ff ff    	je     2e2a <node114>
    578f:	48 3d b0 01 00 00    	cmp    rax,0x1b0
    5795:	0f 84 e7 30 00 00    	je     8882 <node432>
    579b:	48 3d 60 01 00 00    	cmp    rax,0x160
    57a1:	0f 84 e9 1b 00 00    	je     7390 <node352>
    57a7:	48 3d da 00 00 00    	cmp    rax,0xda
    57ad:	0f 84 c9 f5 ff ff    	je     4d7c <node218>
    57b3:	48 83 f8 49          	cmp    rax,0x49
    57b7:	0f 84 dc cc ff ff    	je     2499 <node73>
    57bd:	48 3d 25 01 00 00    	cmp    rax,0x125
    57c3:	0f 84 6e 0c 00 00    	je     6437 <node293>
    57c9:	48 3d 11 01 00 00    	cmp    rax,0x111
    57cf:	0f 84 da 05 00 00    	je     5daf <node273>
    57d5:	48 3d a1 00 00 00    	cmp    rax,0xa1
    57db:	0f 84 74 e5 ff ff    	je     3d55 <node161>
    57e1:	48 3d 35 01 00 00    	cmp    rax,0x135
    57e7:	0f 84 40 10 00 00    	je     682d <node309>
    57ed:	48 3d 2d 01 00 00    	cmp    rax,0x12d
    57f3:	0f 84 12 0e 00 00    	je     660b <node301>
    57f9:	e9 4f 36 00 00       	jmp    8e4d <fail_code>

00000000000057fe <node252>:
    57fe:	48 8d 05 cb 58 00 00 	lea    rax,[rip+0x58cb]        # b0d0 <__TMC_END__>
    5805:	c6 04 18 33          	mov    BYTE PTR [rax+rbx*1],0x33
    5809:	48 ff c3             	inc    rbx
    580c:	48 8d 3d fd 57 00 00 	lea    rdi,[rip+0x57fd]        # b010 <scanf_format>
    5813:	48 89 e6             	mov    rsi,rsp
    5816:	31 c0                	xor    eax,eax
    5818:	ff 15 b2 57 00 00    	call   QWORD PTR [rip+0x57b2]        # afd0 <scanf@GLIBC_2.2.5>
    581e:	48 8b 04 24          	mov    rax,QWORD PTR [rsp]
    5822:	48 3d ec 00 00 00    	cmp    rax,0xec
    5828:	0f 84 fc f9 ff ff    	je     522a <node236>
    582e:	48 3d 10 01 00 00    	cmp    rax,0x110
    5834:	0f 84 36 05 00 00    	je     5d70 <node272>
    583a:	48 3d 2c 01 00 00    	cmp    rax,0x12c
    5840:	0f 84 84 0d 00 00    	je     65ca <node300>
    5846:	48 3d 57 01 00 00    	cmp    rax,0x157
    584c:	0f 84 13 19 00 00    	je     7165 <node343>
    5852:	48 3d ff 00 00 00    	cmp    rax,0xff
    5858:	74 7b                	je     58d5 <node255>
    585a:	e9 ee 35 00 00       	jmp    8e4d <fail_code>

000000000000585f <node253>:
    585f:	48 8d 05 6a 58 00 00 	lea    rax,[rip+0x586a]        # b0d0 <__TMC_END__>
    5866:	c6 04 18 56          	mov    BYTE PTR [rax+rbx*1],0x56
    586a:	48 ff c3             	inc    rbx
    586d:	48 8d 3d 9c 57 00 00 	lea    rdi,[rip+0x579c]        # b010 <scanf_format>
    5874:	48 89 e6             	mov    rsi,rsp
    5877:	31 c0                	xor    eax,eax
    5879:	ff 15 51 57 00 00    	call   QWORD PTR [rip+0x5751]        # afd0 <scanf@GLIBC_2.2.5>
    587f:	48 8b 04 24          	mov    rax,QWORD PTR [rsp]
    5883:	48 3d b9 00 00 00    	cmp    rax,0xb9
    5889:	0f 84 9e ea ff ff    	je     432d <node185>
    588f:	48 3d 75 01 00 00    	cmp    rax,0x175
    5895:	0f 84 3a 21 00 00    	je     79d5 <node373>
    589b:	e9 ad 35 00 00       	jmp    8e4d <fail_code>

00000000000058a0 <node254>:
    58a0:	48 8d 05 29 58 00 00 	lea    rax,[rip+0x5829]        # b0d0 <__TMC_END__>
    58a7:	c6 04 18 42          	mov    BYTE PTR [rax+rbx*1],0x42
    58ab:	48 ff c3             	inc    rbx
    58ae:	48 8d 3d 5b 57 00 00 	lea    rdi,[rip+0x575b]        # b010 <scanf_format>
    58b5:	48 89 e6             	mov    rsi,rsp
    58b8:	31 c0                	xor    eax,eax
    58ba:	ff 15 10 57 00 00    	call   QWORD PTR [rip+0x5710]        # afd0 <scanf@GLIBC_2.2.5>
    58c0:	48 8b 04 24          	mov    rax,QWORD PTR [rsp]
    58c4:	48 3d b3 01 00 00    	cmp    rax,0x1b3
    58ca:	0f 84 45 30 00 00    	je     8915 <node435>
    58d0:	e9 78 35 00 00       	jmp    8e4d <fail_code>

00000000000058d5 <node255>:
    58d5:	48 8d 05 f4 57 00 00 	lea    rax,[rip+0x57f4]        # b0d0 <__TMC_END__>
    58dc:	c6 04 18 4e          	mov    BYTE PTR [rax+rbx*1],0x4e
    58e0:	48 ff c3             	inc    rbx
    58e3:	48 8d 3d 26 57 00 00 	lea    rdi,[rip+0x5726]        # b010 <scanf_format>
    58ea:	48 89 e6             	mov    rsi,rsp
    58ed:	31 c0                	xor    eax,eax
    58ef:	ff 15 db 56 00 00    	call   QWORD PTR [rip+0x56db]        # afd0 <scanf@GLIBC_2.2.5>
    58f5:	48 8b 04 24          	mov    rax,QWORD PTR [rsp]
    58f9:	48 3d 0b 01 00 00    	cmp    rax,0x10b
    58ff:	0f 84 de 02 00 00    	je     5be3 <node267>
    5905:	48 83 f8 01          	cmp    rax,0x1
    5909:	0f 84 86 b8 ff ff    	je     1195 <node1>
    590f:	48 3d a2 00 00 00    	cmp    rax,0xa2
    5915:	0f 84 4d e4 ff ff    	je     3d68 <node162>
    591b:	e9 2d 35 00 00       	jmp    8e4d <fail_code>

0000000000005920 <node256>:
    5920:	48 8d 05 a9 57 00 00 	lea    rax,[rip+0x57a9]        # b0d0 <__TMC_END__>
    5927:	c6 04 18 3d          	mov    BYTE PTR [rax+rbx*1],0x3d
    592b:	48 ff c3             	inc    rbx
    592e:	e9 1a 35 00 00       	jmp    8e4d <fail_code>

0000000000005933 <node257>:
    5933:	48 8d 05 96 57 00 00 	lea    rax,[rip+0x5796]        # b0d0 <__TMC_END__>
    593a:	c6 04 18 64          	mov    BYTE PTR [rax+rbx*1],0x64
    593e:	48 ff c3             	inc    rbx
    5941:	e9 07 35 00 00       	jmp    8e4d <fail_code>

0000000000005946 <node258>:
    5946:	48 8d 05 83 57 00 00 	lea    rax,[rip+0x5783]        # b0d0 <__TMC_END__>
    594d:	c6 04 18 78          	mov    BYTE PTR [rax+rbx*1],0x78
    5951:	48 ff c3             	inc    rbx
    5954:	48 8d 3d b5 56 00 00 	lea    rdi,[rip+0x56b5]        # b010 <scanf_format>
    595b:	48 89 e6             	mov    rsi,rsp
    595e:	31 c0                	xor    eax,eax
    5960:	ff 15 6a 56 00 00    	call   QWORD PTR [rip+0x566a]        # afd0 <scanf@GLIBC_2.2.5>
    5966:	48 8b 04 24          	mov    rax,QWORD PTR [rsp]
    596a:	48 3d 5a 01 00 00    	cmp    rax,0x15a
    5970:	0f 84 00 19 00 00    	je     7276 <node346>
    5976:	48 3d 01 01 00 00    	cmp    rax,0x101
    597c:	74 b5                	je     5933 <node257>
    597e:	48 3d b7 00 00 00    	cmp    rax,0xb7
    5984:	0f 84 2f e9 ff ff    	je     42b9 <node183>
    598a:	48 3d 6e 01 00 00    	cmp    rax,0x16e
    5990:	0f 84 c6 1e 00 00    	je     785c <node366>
    5996:	e9 b2 34 00 00       	jmp    8e4d <fail_code>

000000000000599b <node259>:
    599b:	48 8d 05 2e 57 00 00 	lea    rax,[rip+0x572e]        # b0d0 <__TMC_END__>
    59a2:	c6 04 18 2e          	mov    BYTE PTR [rax+rbx*1],0x2e
    59a6:	48 ff c3             	inc    rbx
    59a9:	48 8d 3d 60 56 00 00 	lea    rdi,[rip+0x5660]        # b010 <scanf_format>
    59b0:	48 89 e6             	mov    rsi,rsp
    59b3:	31 c0                	xor    eax,eax
    59b5:	ff 15 15 56 00 00    	call   QWORD PTR [rip+0x5615]        # afd0 <scanf@GLIBC_2.2.5>
    59bb:	48 8b 04 24          	mov    rax,QWORD PTR [rsp]
    59bf:	48 83 f8 04          	cmp    rax,0x4
    59c3:	0f 84 bd b8 ff ff    	je     1286 <node4>
    59c9:	48 3d be 01 00 00    	cmp    rax,0x1be
    59cf:	0f 84 0f 32 00 00    	je     8be4 <node446>
    59d5:	48 3d 38 01 00 00    	cmp    rax,0x138
    59db:	0f 84 37 0f 00 00    	je     6918 <node312>
    59e1:	48 3d 41 01 00 00    	cmp    rax,0x141
    59e7:	0f 84 32 12 00 00    	je     6c1f <node321>
    59ed:	48 3d a7 00 00 00    	cmp    rax,0xa7
    59f3:	0f 84 9c e4 ff ff    	je     3e95 <node167>
    59f9:	48 3d 8f 01 00 00    	cmp    rax,0x18f
    59ff:	0f 84 c4 26 00 00    	je     80c9 <node399>
    5a05:	48 3d 35 01 00 00    	cmp    rax,0x135
    5a0b:	0f 84 1c 0e 00 00    	je     682d <node309>
    5a11:	e9 37 34 00 00       	jmp    8e4d <fail_code>

0000000000005a16 <node260>:
    5a16:	48 8d 05 b3 56 00 00 	lea    rax,[rip+0x56b3]        # b0d0 <__TMC_END__>
    5a1d:	c6 04 18 70          	mov    BYTE PTR [rax+rbx*1],0x70
    5a21:	48 ff c3             	inc    rbx
    5a24:	48 8d 3d e5 55 00 00 	lea    rdi,[rip+0x55e5]        # b010 <scanf_format>
    5a2b:	48 89 e6             	mov    rsi,rsp
    5a2e:	31 c0                	xor    eax,eax
    5a30:	ff 15 9a 55 00 00    	call   QWORD PTR [rip+0x559a]        # afd0 <scanf@GLIBC_2.2.5>
    5a36:	48 8b 04 24          	mov    rax,QWORD PTR [rsp]
    5a3a:	48 3d 02 01 00 00    	cmp    rax,0x102
    5a40:	0f 84 00 ff ff ff    	je     5946 <node258>
    5a46:	48 3d af 00 00 00    	cmp    rax,0xaf
    5a4c:	0f 84 61 e6 ff ff    	je     40b3 <node175>
    5a52:	e9 f6 33 00 00       	jmp    8e4d <fail_code>

0000000000005a57 <node261>:
    5a57:	48 8d 05 72 56 00 00 	lea    rax,[rip+0x5672]        # b0d0 <__TMC_END__>
    5a5e:	c6 04 18 70          	mov    BYTE PTR [rax+rbx*1],0x70
    5a62:	48 ff c3             	inc    rbx
    5a65:	48 8d 3d a4 55 00 00 	lea    rdi,[rip+0x55a4]        # b010 <scanf_format>
    5a6c:	48 89 e6             	mov    rsi,rsp
    5a6f:	31 c0                	xor    eax,eax
    5a71:	ff 15 59 55 00 00    	call   QWORD PTR [rip+0x5559]        # afd0 <scanf@GLIBC_2.2.5>
    5a77:	48 8b 04 24          	mov    rax,QWORD PTR [rsp]
    5a7b:	48 83 f8 0e          	cmp    rax,0xe
    5a7f:	0f 84 0b bb ff ff    	je     1590 <node14>
    5a85:	e9 c3 33 00 00       	jmp    8e4d <fail_code>

0000000000005a8a <node262>:
    5a8a:	48 8d 05 3f 56 00 00 	lea    rax,[rip+0x563f]        # b0d0 <__TMC_END__>
    5a91:	c6 04 18 56          	mov    BYTE PTR [rax+rbx*1],0x56
    5a95:	48 ff c3             	inc    rbx
    5a98:	e9 b0 33 00 00       	jmp    8e4d <fail_code>

0000000000005a9d <node263>:
    5a9d:	48 8d 05 2c 56 00 00 	lea    rax,[rip+0x562c]        # b0d0 <__TMC_END__>
    5aa4:	c6 04 18 38          	mov    BYTE PTR [rax+rbx*1],0x38
    5aa8:	48 ff c3             	inc    rbx
    5aab:	e9 9d 33 00 00       	jmp    8e4d <fail_code>

0000000000005ab0 <node264>:
    5ab0:	48 8d 05 19 56 00 00 	lea    rax,[rip+0x5619]        # b0d0 <__TMC_END__>
    5ab7:	c6 04 18 7a          	mov    BYTE PTR [rax+rbx*1],0x7a
    5abb:	48 ff c3             	inc    rbx
    5abe:	48 8d 3d 4b 55 00 00 	lea    rdi,[rip+0x554b]        # b010 <scanf_format>
    5ac5:	48 89 e6             	mov    rsi,rsp
    5ac8:	31 c0                	xor    eax,eax
    5aca:	ff 15 00 55 00 00    	call   QWORD PTR [rip+0x5500]        # afd0 <scanf@GLIBC_2.2.5>
    5ad0:	48 8b 04 24          	mov    rax,QWORD PTR [rsp]
    5ad4:	48 3d 9f 01 00 00    	cmp    rax,0x19f
    5ada:	0f 84 45 2a 00 00    	je     8525 <node415>
    5ae0:	48 3d 92 01 00 00    	cmp    rax,0x192
    5ae6:	0f 84 c2 26 00 00    	je     81ae <node402>
    5aec:	e9 5c 33 00 00       	jmp    8e4d <fail_code>

0000000000005af1 <node265>:
    5af1:	48 8d 05 d8 55 00 00 	lea    rax,[rip+0x55d8]        # b0d0 <__TMC_END__>
    5af8:	c6 04 18 72          	mov    BYTE PTR [rax+rbx*1],0x72
    5afc:	48 ff c3             	inc    rbx
    5aff:	48 8d 3d 0a 55 00 00 	lea    rdi,[rip+0x550a]        # b010 <scanf_format>
    5b06:	48 89 e6             	mov    rsi,rsp
    5b09:	31 c0                	xor    eax,eax
    5b0b:	ff 15 bf 54 00 00    	call   QWORD PTR [rip+0x54bf]        # afd0 <scanf@GLIBC_2.2.5>
    5b11:	48 8b 04 24          	mov    rax,QWORD PTR [rsp]
    5b15:	48 3d e0 00 00 00    	cmp    rax,0xe0
    5b1b:	0f 84 1f f4 ff ff    	je     4f40 <node224>
    5b21:	48 3d eb 00 00 00    	cmp    rax,0xeb
    5b27:	0f 84 90 f6 ff ff    	je     51bd <node235>
    5b2d:	48 83 f8 44          	cmp    rax,0x44
    5b31:	0f 84 0b c8 ff ff    	je     2342 <node68>
    5b37:	48 3d c9 00 00 00    	cmp    rax,0xc9
    5b3d:	0f 84 b4 ec ff ff    	je     47f7 <node201>
    5b43:	e9 05 33 00 00       	jmp    8e4d <fail_code>

0000000000005b48 <node266>:
    5b48:	48 8d 05 81 55 00 00 	lea    rax,[rip+0x5581]        # b0d0 <__TMC_END__>
    5b4f:	c6 04 18 73          	mov    BYTE PTR [rax+rbx*1],0x73
    5b53:	48 ff c3             	inc    rbx
    5b56:	48 8d 3d b3 54 00 00 	lea    rdi,[rip+0x54b3]        # b010 <scanf_format>
    5b5d:	48 89 e6             	mov    rsi,rsp
    5b60:	31 c0                	xor    eax,eax
    5b62:	ff 15 68 54 00 00    	call   QWORD PTR [rip+0x5468]        # afd0 <scanf@GLIBC_2.2.5>
    5b68:	48 8b 04 24          	mov    rax,QWORD PTR [rsp]
    5b6c:	48 3d 20 01 00 00    	cmp    rax,0x120
    5b72:	0f 84 44 07 00 00    	je     62bc <node288>
    5b78:	48 3d 24 01 00 00    	cmp    rax,0x124
    5b7e:	0f 84 80 08 00 00    	je     6404 <node292>
    5b84:	48 83 f8 38          	cmp    rax,0x38
    5b88:	0f 84 8a c4 ff ff    	je     2018 <node56>
    5b8e:	48 3d 48 01 00 00    	cmp    rax,0x148
    5b94:	0f 84 16 12 00 00    	je     6db0 <node328>
    5b9a:	48 3d 2e 01 00 00    	cmp    rax,0x12e
    5ba0:	0f 84 78 0a 00 00    	je     661e <node302>
    5ba6:	48 3d 8a 01 00 00    	cmp    rax,0x18a
    5bac:	0f 84 68 23 00 00    	je     7f1a <node394>
    5bb2:	48 3d 06 01 00 00    	cmp    rax,0x106
    5bb8:	0f 84 cc fe ff ff    	je     5a8a <node262>
    5bbe:	48 3d ac 00 00 00    	cmp    rax,0xac
    5bc4:	0f 84 fa e3 ff ff    	je     3fc4 <node172>
    5bca:	48 3d 0c 01 00 00    	cmp    rax,0x10c
    5bd0:	74 44                	je     5c16 <node268>
    5bd2:	48 3d 95 01 00 00    	cmp    rax,0x195
    5bd8:	0f 84 67 26 00 00    	je     8245 <node405>
    5bde:	e9 6a 32 00 00       	jmp    8e4d <fail_code>

0000000000005be3 <node267>:
    5be3:	48 8d 05 e6 54 00 00 	lea    rax,[rip+0x54e6]        # b0d0 <__TMC_END__>
    5bea:	c6 04 18 4e          	mov    BYTE PTR [rax+rbx*1],0x4e
    5bee:	48 ff c3             	inc    rbx
    5bf1:	48 8d 3d 18 54 00 00 	lea    rdi,[rip+0x5418]        # b010 <scanf_format>
    5bf8:	48 89 e6             	mov    rsi,rsp
    5bfb:	31 c0                	xor    eax,eax
    5bfd:	ff 15 cd 53 00 00    	call   QWORD PTR [rip+0x53cd]        # afd0 <scanf@GLIBC_2.2.5>
    5c03:	48 8b 04 24          	mov    rax,QWORD PTR [rsp]
    5c07:	48 83 f8 43          	cmp    rax,0x43
    5c0b:	0f 84 1e c7 ff ff    	je     232f <node67>
    5c11:	e9 37 32 00 00       	jmp    8e4d <fail_code>

0000000000005c16 <node268>:
    5c16:	48 8d 05 b3 54 00 00 	lea    rax,[rip+0x54b3]        # b0d0 <__TMC_END__>
    5c1d:	c6 04 18 4a          	mov    BYTE PTR [rax+rbx*1],0x4a
    5c21:	48 ff c3             	inc    rbx
    5c24:	48 8d 3d e5 53 00 00 	lea    rdi,[rip+0x53e5]        # b010 <scanf_format>
    5c2b:	48 89 e6             	mov    rsi,rsp
    5c2e:	31 c0                	xor    eax,eax
    5c30:	ff 15 9a 53 00 00    	call   QWORD PTR [rip+0x539a]        # afd0 <scanf@GLIBC_2.2.5>
    5c36:	48 8b 04 24          	mov    rax,QWORD PTR [rsp]
    5c3a:	48 3d 9e 01 00 00    	cmp    rax,0x19e
    5c40:	0f 84 a0 28 00 00    	je     84e6 <node414>
    5c46:	48 3d c0 00 00 00    	cmp    rax,0xc0
    5c4c:	0f 84 c6 e8 ff ff    	je     4518 <node192>
    5c52:	48 3d b2 00 00 00    	cmp    rax,0xb2
    5c58:	0f 84 28 e5 ff ff    	je     4186 <node178>
    5c5e:	48 83 f8 37          	cmp    rax,0x37
    5c62:	0f 84 9d c3 ff ff    	je     2005 <node55>
    5c68:	48 83 f8 75          	cmp    rax,0x75
    5c6c:	0f 84 f9 d2 ff ff    	je     2f6b <node117>
    5c72:	e9 d6 31 00 00       	jmp    8e4d <fail_code>

0000000000005c77 <node269>:
    5c77:	48 8d 05 52 54 00 00 	lea    rax,[rip+0x5452]        # b0d0 <__TMC_END__>
    5c7e:	c6 04 18 4c          	mov    BYTE PTR [rax+rbx*1],0x4c
    5c82:	48 ff c3             	inc    rbx
    5c85:	48 8d 3d 84 53 00 00 	lea    rdi,[rip+0x5384]        # b010 <scanf_format>
    5c8c:	48 89 e6             	mov    rsi,rsp
    5c8f:	31 c0                	xor    eax,eax
    5c91:	ff 15 39 53 00 00    	call   QWORD PTR [rip+0x5339]        # afd0 <scanf@GLIBC_2.2.5>
    5c97:	48 8b 04 24          	mov    rax,QWORD PTR [rsp]
    5c9b:	48 3d 2a 01 00 00    	cmp    rax,0x12a
    5ca1:	0f 84 dd 08 00 00    	je     6584 <node298>
    5ca7:	48 3d 56 01 00 00    	cmp    rax,0x156
    5cad:	0f 84 73 14 00 00    	je     7126 <node342>
    5cb3:	48 3d fd 00 00 00    	cmp    rax,0xfd
    5cb9:	0f 84 a0 fb ff ff    	je     585f <node253>
    5cbf:	e9 89 31 00 00       	jmp    8e4d <fail_code>

0000000000005cc4 <node270>:
    5cc4:	48 8d 05 05 54 00 00 	lea    rax,[rip+0x5405]        # b0d0 <__TMC_END__>
    5ccb:	c6 04 18 61          	mov    BYTE PTR [rax+rbx*1],0x61
    5ccf:	48 ff c3             	inc    rbx
    5cd2:	48 8d 3d 37 53 00 00 	lea    rdi,[rip+0x5337]        # b010 <scanf_format>
    5cd9:	48 89 e6             	mov    rsi,rsp
    5cdc:	31 c0                	xor    eax,eax
    5cde:	ff 15 ec 52 00 00    	call   QWORD PTR [rip+0x52ec]        # afd0 <scanf@GLIBC_2.2.5>
    5ce4:	48 8b 04 24          	mov    rax,QWORD PTR [rsp]
    5ce8:	48 83 f8 47          	cmp    rax,0x47
    5cec:	0f 84 3d c7 ff ff    	je     242f <node71>
    5cf2:	48 3d 9f 01 00 00    	cmp    rax,0x19f
    5cf8:	0f 84 27 28 00 00    	je     8525 <node415>
    5cfe:	48 83 f8 28          	cmp    rax,0x28
    5d02:	0f 84 dc bf ff ff    	je     1ce4 <node40>
    5d08:	e9 40 31 00 00       	jmp    8e4d <fail_code>

0000000000005d0d <node271>:
    5d0d:	48 8d 05 bc 53 00 00 	lea    rax,[rip+0x53bc]        # b0d0 <__TMC_END__>
    5d14:	c6 04 18 72          	mov    BYTE PTR [rax+rbx*1],0x72
    5d18:	48 ff c3             	inc    rbx
    5d1b:	48 8d 3d ee 52 00 00 	lea    rdi,[rip+0x52ee]        # b010 <scanf_format>
    5d22:	48 89 e6             	mov    rsi,rsp
    5d25:	31 c0                	xor    eax,eax
    5d27:	ff 15 a3 52 00 00    	call   QWORD PTR [rip+0x52a3]        # afd0 <scanf@GLIBC_2.2.5>
    5d2d:	48 8b 04 24          	mov    rax,QWORD PTR [rsp]
    5d31:	48 3d 86 01 00 00    	cmp    rax,0x186
    5d37:	0f 84 a3 20 00 00    	je     7de0 <node390>
    5d3d:	48 3d c5 00 00 00    	cmp    rax,0xc5
    5d43:	0f 84 10 e9 ff ff    	je     4659 <node197>
    5d49:	48 3d 65 01 00 00    	cmp    rax,0x165
    5d4f:	0f 84 ec 17 00 00    	je     7541 <node357>
    5d55:	48 83 f8 3d          	cmp    rax,0x3d
    5d59:	0f 84 82 c4 ff ff    	je     21e1 <node61>
    5d5f:	48 3d b1 01 00 00    	cmp    rax,0x1b1
    5d65:	0f 84 2a 2b 00 00    	je     8895 <node433>
    5d6b:	e9 dd 30 00 00       	jmp    8e4d <fail_code>

0000000000005d70 <node272>:
    5d70:	48 8d 05 59 53 00 00 	lea    rax,[rip+0x5359]        # b0d0 <__TMC_END__>
    5d77:	c6 04 18 6f          	mov    BYTE PTR [rax+rbx*1],0x6f
    5d7b:	48 ff c3             	inc    rbx
    5d7e:	48 8d 3d 8b 52 00 00 	lea    rdi,[rip+0x528b]        # b010 <scanf_format>
    5d85:	48 89 e6             	mov    rsi,rsp
    5d88:	31 c0                	xor    eax,eax
    5d8a:	ff 15 40 52 00 00    	call   QWORD PTR [rip+0x5240]        # afd0 <scanf@GLIBC_2.2.5>
    5d90:	48 8b 04 24          	mov    rax,QWORD PTR [rsp]
    5d94:	48 3d 08 01 00 00    	cmp    rax,0x108
    5d9a:	0f 84 10 fd ff ff    	je     5ab0 <node264>
    5da0:	48 83 f8 67          	cmp    rax,0x67
    5da4:	0f 84 ef cd ff ff    	je     2b99 <node103>
    5daa:	e9 9e 30 00 00       	jmp    8e4d <fail_code>

0000000000005daf <node273>:
    5daf:	48 8d 05 1a 53 00 00 	lea    rax,[rip+0x531a]        # b0d0 <__TMC_END__>
    5db6:	c6 04 18 0a          	mov    BYTE PTR [rax+rbx*1],0xa
    5dba:	48 ff c3             	inc    rbx
    5dbd:	48 8d 3d 4c 52 00 00 	lea    rdi,[rip+0x524c]        # b010 <scanf_format>
    5dc4:	48 89 e6             	mov    rsi,rsp
    5dc7:	31 c0                	xor    eax,eax
    5dc9:	ff 15 01 52 00 00    	call   QWORD PTR [rip+0x5201]        # afd0 <scanf@GLIBC_2.2.5>
    5dcf:	48 8b 04 24          	mov    rax,QWORD PTR [rsp]
    5dd3:	48 83 f8 08          	cmp    rax,0x8
    5dd7:	0f 84 cb b5 ff ff    	je     13a8 <node8>
    5ddd:	48 3d 74 01 00 00    	cmp    rax,0x174
    5de3:	0f 84 d9 1b 00 00    	je     79c2 <node372>
    5de9:	48 3d 2e 01 00 00    	cmp    rax,0x12e
    5def:	0f 84 29 08 00 00    	je     661e <node302>
    5df5:	48 3d be 00 00 00    	cmp    rax,0xbe
    5dfb:	0f 84 75 e6 ff ff    	je     4476 <node190>
    5e01:	48 83 f8 58          	cmp    rax,0x58
    5e05:	0f 84 63 ca ff ff    	je     286e <node88>
    5e0b:	48 3d 25 01 00 00    	cmp    rax,0x125
    5e11:	0f 84 20 06 00 00    	je     6437 <node293>
    5e17:	48 3d 39 01 00 00    	cmp    rax,0x139
    5e1d:	0f 84 4c 0b 00 00    	je     696f <node313>
    5e23:	48 3d b9 00 00 00    	cmp    rax,0xb9
    5e29:	0f 84 fe e4 ff ff    	je     432d <node185>
    5e2f:	48 3d 37 01 00 00    	cmp    rax,0x137
    5e35:	0f 84 90 0a 00 00    	je     68cb <node311>
    5e3b:	48 3d af 01 00 00    	cmp    rax,0x1af
    5e41:	0f 84 e6 29 00 00    	je     882d <node431>
    5e47:	48 3d 0d 01 00 00    	cmp    rax,0x10d
    5e4d:	0f 84 24 fe ff ff    	je     5c77 <node269>
    5e53:	e9 f5 2f 00 00       	jmp    8e4d <fail_code>

0000000000005e58 <node274>:
    5e58:	48 8d 05 71 52 00 00 	lea    rax,[rip+0x5271]        # b0d0 <__TMC_END__>
    5e5f:	c6 04 18 6b          	mov    BYTE PTR [rax+rbx*1],0x6b
    5e63:	48 ff c3             	inc    rbx
    5e66:	48 8d 3d a3 51 00 00 	lea    rdi,[rip+0x51a3]        # b010 <scanf_format>
    5e6d:	48 89 e6             	mov    rsi,rsp
    5e70:	31 c0                	xor    eax,eax
    5e72:	ff 15 58 51 00 00    	call   QWORD PTR [rip+0x5158]        # afd0 <scanf@GLIBC_2.2.5>
    5e78:	48 8b 04 24          	mov    rax,QWORD PTR [rsp]
    5e7c:	48 3d 32 01 00 00    	cmp    rax,0x132
    5e82:	0f 84 b0 08 00 00    	je     6738 <node306>
    5e88:	48 83 f8 48          	cmp    rax,0x48
    5e8c:	0f 84 b0 c5 ff ff    	je     2442 <node72>
    5e92:	48 3d 74 01 00 00    	cmp    rax,0x174
    5e98:	0f 84 24 1b 00 00    	je     79c2 <node372>
    5e9e:	48 3d ce 00 00 00    	cmp    rax,0xce
    5ea4:	0f 84 ae ea ff ff    	je     4958 <node206>
    5eaa:	48 3d 38 01 00 00    	cmp    rax,0x138
    5eb0:	0f 84 62 0a 00 00    	je     6918 <node312>
    5eb6:	48 83 f8 6f          	cmp    rax,0x6f
    5eba:	0f 84 c1 ce ff ff    	je     2d81 <node111>
    5ec0:	48 3d f3 00 00 00    	cmp    rax,0xf3
    5ec6:	0f 84 c5 f5 ff ff    	je     5491 <node243>
    5ecc:	e9 7c 2f 00 00       	jmp    8e4d <fail_code>

0000000000005ed1 <node275>:
    5ed1:	48 8d 05 f8 51 00 00 	lea    rax,[rip+0x51f8]        # b0d0 <__TMC_END__>
    5ed8:	c6 04 18 7c          	mov    BYTE PTR [rax+rbx*1],0x7c
    5edc:	48 ff c3             	inc    rbx
    5edf:	e9 69 2f 00 00       	jmp    8e4d <fail_code>

0000000000005ee4 <node276>:
    5ee4:	48 8d 05 e5 51 00 00 	lea    rax,[rip+0x51e5]        # b0d0 <__TMC_END__>
    5eeb:	c6 04 18 3e          	mov    BYTE PTR [rax+rbx*1],0x3e
    5eef:	48 ff c3             	inc    rbx
    5ef2:	e9 56 2f 00 00       	jmp    8e4d <fail_code>

0000000000005ef7 <node277>:
    5ef7:	48 8d 05 d2 51 00 00 	lea    rax,[rip+0x51d2]        # b0d0 <__TMC_END__>
    5efe:	c6 04 18 34          	mov    BYTE PTR [rax+rbx*1],0x34
    5f02:	48 ff c3             	inc    rbx
    5f05:	48 8d 3d 04 51 00 00 	lea    rdi,[rip+0x5104]        # b010 <scanf_format>
    5f0c:	48 89 e6             	mov    rsi,rsp
    5f0f:	31 c0                	xor    eax,eax
    5f11:	ff 15 b9 50 00 00    	call   QWORD PTR [rip+0x50b9]        # afd0 <scanf@GLIBC_2.2.5>
    5f17:	48 8b 04 24          	mov    rax,QWORD PTR [rsp]
    5f1b:	48 3d a3 00 00 00    	cmp    rax,0xa3
    5f21:	0f 84 54 de ff ff    	je     3d7b <node163>
    5f27:	48 3d d1 00 00 00    	cmp    rax,0xd1
    5f2d:	0f 84 20 eb ff ff    	je     4a53 <node209>
    5f33:	48 3d 8d 01 00 00    	cmp    rax,0x18d
    5f39:	0f 84 f8 20 00 00    	je     8037 <node397>
    5f3f:	e9 09 2f 00 00       	jmp    8e4d <fail_code>

0000000000005f44 <node278>:
    5f44:	48 8d 05 85 51 00 00 	lea    rax,[rip+0x5185]        # b0d0 <__TMC_END__>
    5f4b:	c6 04 18 6d          	mov    BYTE PTR [rax+rbx*1],0x6d
    5f4f:	48 ff c3             	inc    rbx
    5f52:	48 8d 3d b7 50 00 00 	lea    rdi,[rip+0x50b7]        # b010 <scanf_format>
    5f59:	48 89 e6             	mov    rsi,rsp
    5f5c:	31 c0                	xor    eax,eax
    5f5e:	ff 15 6c 50 00 00    	call   QWORD PTR [rip+0x506c]        # afd0 <scanf@GLIBC_2.2.5>
    5f64:	48 8b 04 24          	mov    rax,QWORD PTR [rsp]
    5f68:	48 83 f8 3d          	cmp    rax,0x3d
    5f6c:	0f 84 6f c2 ff ff    	je     21e1 <node61>
    5f72:	48 3d c5 01 00 00    	cmp    rax,0x1c5
    5f78:	0f 84 50 2e 00 00    	je     8dce <node453>
    5f7e:	48 3d e3 00 00 00    	cmp    rax,0xe3
    5f84:	0f 84 7f f0 ff ff    	je     5009 <node227>
    5f8a:	e9 be 2e 00 00       	jmp    8e4d <fail_code>

0000000000005f8f <node279>:
    5f8f:	48 8d 05 3a 51 00 00 	lea    rax,[rip+0x513a]        # b0d0 <__TMC_END__>
    5f96:	c6 04 18 5b          	mov    BYTE PTR [rax+rbx*1],0x5b
    5f9a:	48 ff c3             	inc    rbx
    5f9d:	48 8d 3d 6c 50 00 00 	lea    rdi,[rip+0x506c]        # b010 <scanf_format>
    5fa4:	48 89 e6             	mov    rsi,rsp
    5fa7:	31 c0                	xor    eax,eax
    5fa9:	ff 15 21 50 00 00    	call   QWORD PTR [rip+0x5021]        # afd0 <scanf@GLIBC_2.2.5>
    5faf:	48 8b 04 24          	mov    rax,QWORD PTR [rsp]
    5fb3:	48 83 f8 24          	cmp    rax,0x24
    5fb7:	0f 84 07 bc ff ff    	je     1bc4 <node36>
    5fbd:	48 83 f8 17          	cmp    rax,0x17
    5fc1:	0f 84 0a b8 ff ff    	je     17d1 <node23>
    5fc7:	48 83 f8 51          	cmp    rax,0x51
    5fcb:	0f 84 9e c6 ff ff    	je     266f <node81>
    5fd1:	48 3d ed 00 00 00    	cmp    rax,0xed
    5fd7:	0f 84 9a f2 ff ff    	je     5277 <node237>
    5fdd:	48 83 f8 55          	cmp    rax,0x55
    5fe1:	0f 84 8e c7 ff ff    	je     2775 <node85>
    5fe7:	48 83 f8 22          	cmp    rax,0x22
    5feb:	0f 84 ef ba ff ff    	je     1ae0 <node34>
    5ff1:	e9 57 2e 00 00       	jmp    8e4d <fail_code>

0000000000005ff6 <node280>:
    5ff6:	48 8d 05 d3 50 00 00 	lea    rax,[rip+0x50d3]        # b0d0 <__TMC_END__>
    5ffd:	c6 04 18 26          	mov    BYTE PTR [rax+rbx*1],0x26
    6001:	48 ff c3             	inc    rbx
    6004:	48 8d 3d 05 50 00 00 	lea    rdi,[rip+0x5005]        # b010 <scanf_format>
    600b:	48 89 e6             	mov    rsi,rsp
    600e:	31 c0                	xor    eax,eax
    6010:	ff 15 ba 4f 00 00    	call   QWORD PTR [rip+0x4fba]        # afd0 <scanf@GLIBC_2.2.5>
    6016:	48 8b 04 24          	mov    rax,QWORD PTR [rsp]
    601a:	48 3d b2 01 00 00    	cmp    rax,0x1b2
    6020:	0f 84 ae 28 00 00    	je     88d4 <node434>
    6026:	48 3d ac 01 00 00    	cmp    rax,0x1ac
    602c:	0f 84 c2 27 00 00    	je     87f4 <node428>
    6032:	48 3d 78 01 00 00    	cmp    rax,0x178
    6038:	0f 84 34 1a 00 00    	je     7a72 <node376>
    603e:	48 3d 38 01 00 00    	cmp    rax,0x138
    6044:	0f 84 ce 08 00 00    	je     6918 <node312>
    604a:	48 3d 61 01 00 00    	cmp    rax,0x161
    6050:	0f 84 91 13 00 00    	je     73e7 <node353>
    6056:	48 3d 19 01 00 00    	cmp    rax,0x119
    605c:	74 3d                	je     609b <node281>
    605e:	48 3d 49 01 00 00    	cmp    rax,0x149
    6064:	0f 84 7b 0d 00 00    	je     6de5 <node329>
    606a:	48 83 f8 12          	cmp    rax,0x12
    606e:	0f 84 10 b6 ff ff    	je     1684 <node18>
    6074:	48 3d 29 01 00 00    	cmp    rax,0x129
    607a:	0f 84 cf 04 00 00    	je     654f <node297>
    6080:	48 3d b5 01 00 00    	cmp    rax,0x1b5
    6086:	0f 84 0b 29 00 00    	je     8997 <node437>
    608c:	48 83 f8 5b          	cmp    rax,0x5b
    6090:	0f 84 33 c8 ff ff    	je     28c9 <node91>
    6096:	e9 b2 2d 00 00       	jmp    8e4d <fail_code>

000000000000609b <node281>:
    609b:	48 8d 05 2e 50 00 00 	lea    rax,[rip+0x502e]        # b0d0 <__TMC_END__>
    60a2:	c6 04 18 7a          	mov    BYTE PTR [rax+rbx*1],0x7a
    60a6:	48 ff c3             	inc    rbx
    60a9:	48 8d 3d 60 4f 00 00 	lea    rdi,[rip+0x4f60]        # b010 <scanf_format>
    60b0:	48 89 e6             	mov    rsi,rsp
    60b3:	31 c0                	xor    eax,eax
    60b5:	ff 15 15 4f 00 00    	call   QWORD PTR [rip+0x4f15]        # afd0 <scanf@GLIBC_2.2.5>
    60bb:	48 8b 04 24          	mov    rax,QWORD PTR [rsp]
    60bf:	48 3d d7 00 00 00    	cmp    rax,0xd7
    60c5:	0f 84 da eb ff ff    	je     4ca5 <node215>
    60cb:	48 3d 7a 01 00 00    	cmp    rax,0x17a
    60d1:	0f 84 fb 19 00 00    	je     7ad2 <node378>
    60d7:	48 3d a4 00 00 00    	cmp    rax,0xa4
    60dd:	0f 84 09 dd ff ff    	je     3dec <node164>
    60e3:	48 3d bd 01 00 00    	cmp    rax,0x1bd
    60e9:	0f 84 88 2a 00 00    	je     8b77 <node445>
    60ef:	e9 59 2d 00 00       	jmp    8e4d <fail_code>

00000000000060f4 <node282>:
    60f4:	48 8d 05 d5 4f 00 00 	lea    rax,[rip+0x4fd5]        # b0d0 <__TMC_END__>
    60fb:	c6 04 18 2c          	mov    BYTE PTR [rax+rbx*1],0x2c
    60ff:	48 ff c3             	inc    rbx
    6102:	48 8d 3d 07 4f 00 00 	lea    rdi,[rip+0x4f07]        # b010 <scanf_format>
    6109:	48 89 e6             	mov    rsi,rsp
    610c:	31 c0                	xor    eax,eax
    610e:	ff 15 bc 4e 00 00    	call   QWORD PTR [rip+0x4ebc]        # afd0 <scanf@GLIBC_2.2.5>
    6114:	48 8b 04 24          	mov    rax,QWORD PTR [rsp]
    6118:	48 3d 78 01 00 00    	cmp    rax,0x178
    611e:	0f 84 4e 19 00 00    	je     7a72 <node376>
    6124:	48 3d be 01 00 00    	cmp    rax,0x1be
    612a:	0f 84 b4 2a 00 00    	je     8be4 <node446>
    6130:	48 3d 8b 00 00 00    	cmp    rax,0x8b
    6136:	0f 84 95 d4 ff ff    	je     35d1 <node139>
    613c:	48 3d ac 01 00 00    	cmp    rax,0x1ac
    6142:	0f 84 ac 26 00 00    	je     87f4 <node428>
    6148:	e9 00 2d 00 00       	jmp    8e4d <fail_code>

000000000000614d <node283>:
    614d:	48 8d 05 7c 4f 00 00 	lea    rax,[rip+0x4f7c]        # b0d0 <__TMC_END__>
    6154:	c6 04 18 37          	mov    BYTE PTR [rax+rbx*1],0x37
    6158:	48 ff c3             	inc    rbx
    615b:	48 8d 3d ae 4e 00 00 	lea    rdi,[rip+0x4eae]        # b010 <scanf_format>
    6162:	48 89 e6             	mov    rsi,rsp
    6165:	31 c0                	xor    eax,eax
    6167:	ff 15 63 4e 00 00    	call   QWORD PTR [rip+0x4e63]        # afd0 <scanf@GLIBC_2.2.5>
    616d:	48 8b 04 24          	mov    rax,QWORD PTR [rsp]
    6171:	48 3d ed 00 00 00    	cmp    rax,0xed
    6177:	0f 84 fa f0 ff ff    	je     5277 <node237>
    617d:	48 3d 3e 01 00 00    	cmp    rax,0x13e
    6183:	0f 84 53 09 00 00    	je     6adc <node318>
    6189:	e9 bf 2c 00 00       	jmp    8e4d <fail_code>

000000000000618e <node284>:
    618e:	48 8d 05 3b 4f 00 00 	lea    rax,[rip+0x4f3b]        # b0d0 <__TMC_END__>
    6195:	c6 04 18 38          	mov    BYTE PTR [rax+rbx*1],0x38
    6199:	48 ff c3             	inc    rbx
    619c:	48 8d 3d 6d 4e 00 00 	lea    rdi,[rip+0x4e6d]        # b010 <scanf_format>
    61a3:	48 89 e6             	mov    rsi,rsp
    61a6:	31 c0                	xor    eax,eax
    61a8:	ff 15 22 4e 00 00    	call   QWORD PTR [rip+0x4e22]        # afd0 <scanf@GLIBC_2.2.5>
    61ae:	48 8b 04 24          	mov    rax,QWORD PTR [rsp]
    61b2:	48 3d 84 00 00 00    	cmp    rax,0x84
    61b8:	0f 84 d6 d1 ff ff    	je     3394 <node132>
    61be:	48 83 f8 30          	cmp    rax,0x30
    61c2:	0f 84 68 bc ff ff    	je     1e30 <node48>
    61c8:	e9 80 2c 00 00       	jmp    8e4d <fail_code>

00000000000061cd <node285>:
    61cd:	48 8d 05 fc 4e 00 00 	lea    rax,[rip+0x4efc]        # b0d0 <__TMC_END__>
    61d4:	c6 04 18 77          	mov    BYTE PTR [rax+rbx*1],0x77
    61d8:	48 ff c3             	inc    rbx
    61db:	48 8d 3d 2e 4e 00 00 	lea    rdi,[rip+0x4e2e]        # b010 <scanf_format>
    61e2:	48 89 e6             	mov    rsi,rsp
    61e5:	31 c0                	xor    eax,eax
    61e7:	ff 15 e3 4d 00 00    	call   QWORD PTR [rip+0x4de3]        # afd0 <scanf@GLIBC_2.2.5>
    61ed:	48 8b 04 24          	mov    rax,QWORD PTR [rsp]
    61f1:	48 3d c4 01 00 00    	cmp    rax,0x1c4
    61f7:	0f 84 c1 2b 00 00    	je     8dbe <node452>
    61fd:	48 83 f8 2d          	cmp    rax,0x2d
    6201:	0f 84 9a bb ff ff    	je     1da1 <node45>
    6207:	e9 41 2c 00 00       	jmp    8e4d <fail_code>

000000000000620c <node286>:
    620c:	48 8d 05 bd 4e 00 00 	lea    rax,[rip+0x4ebd]        # b0d0 <__TMC_END__>
    6213:	c6 04 18 43          	mov    BYTE PTR [rax+rbx*1],0x43
    6217:	48 ff c3             	inc    rbx
    621a:	48 8d 3d ef 4d 00 00 	lea    rdi,[rip+0x4def]        # b010 <scanf_format>
    6221:	48 89 e6             	mov    rsi,rsp
    6224:	31 c0                	xor    eax,eax
    6226:	ff 15 a4 4d 00 00    	call   QWORD PTR [rip+0x4da4]        # afd0 <scanf@GLIBC_2.2.5>
    622c:	48 8b 04 24          	mov    rax,QWORD PTR [rsp]
    6230:	48 83 f8 2c          	cmp    rax,0x2c
    6234:	0f 84 24 bb ff ff    	je     1d5e <node44>
    623a:	48 3d 20 01 00 00    	cmp    rax,0x120
    6240:	74 7a                	je     62bc <node288>
    6242:	48 83 f8 7a          	cmp    rax,0x7a
    6246:	0f 84 66 ce ff ff    	je     30b2 <node122>
    624c:	48 83 f8 58          	cmp    rax,0x58
    6250:	0f 84 18 c6 ff ff    	je     286e <node88>
    6256:	48 3d 46 01 00 00    	cmp    rax,0x146
    625c:	0f 84 08 0b 00 00    	je     6d6a <node326>
    6262:	48 3d bb 01 00 00    	cmp    rax,0x1bb
    6268:	0f 84 9f 28 00 00    	je     8b0d <node443>
    626e:	48 3d 2b 01 00 00    	cmp    rax,0x12b
    6274:	0f 84 3d 03 00 00    	je     65b7 <node299>
    627a:	48 83 f8 09          	cmp    rax,0x9
    627e:	0f 84 65 b1 ff ff    	je     13e9 <node9>
    6284:	e9 c4 2b 00 00       	jmp    8e4d <fail_code>

0000000000006289 <node287>:
    6289:	48 8d 05 40 4e 00 00 	lea    rax,[rip+0x4e40]        # b0d0 <__TMC_END__>
    6290:	c6 04 18 78          	mov    BYTE PTR [rax+rbx*1],0x78
    6294:	48 ff c3             	inc    rbx
    6297:	48 8d 3d 72 4d 00 00 	lea    rdi,[rip+0x4d72]        # b010 <scanf_format>
    629e:	48 89 e6             	mov    rsi,rsp
    62a1:	31 c0                	xor    eax,eax
    62a3:	ff 15 27 4d 00 00    	call   QWORD PTR [rip+0x4d27]        # afd0 <scanf@GLIBC_2.2.5>
    62a9:	48 8b 04 24          	mov    rax,QWORD PTR [rsp]
    62ad:	48 83 f8 76          	cmp    rax,0x76
    62b1:	0f 84 e7 cc ff ff    	je     2f9e <node118>
    62b7:	e9 91 2b 00 00       	jmp    8e4d <fail_code>

00000000000062bc <node288>:
    62bc:	48 8d 05 0d 4e 00 00 	lea    rax,[rip+0x4e0d]        # b0d0 <__TMC_END__>
    62c3:	c6 04 18 30          	mov    BYTE PTR [rax+rbx*1],0x30
    62c7:	48 ff c3             	inc    rbx
    62ca:	48 8d 3d 3f 4d 00 00 	lea    rdi,[rip+0x4d3f]        # b010 <scanf_format>
    62d1:	48 89 e6             	mov    rsi,rsp
    62d4:	31 c0                	xor    eax,eax
    62d6:	ff 15 f4 4c 00 00    	call   QWORD PTR [rip+0x4cf4]        # afd0 <scanf@GLIBC_2.2.5>
    62dc:	48 8b 04 24          	mov    rax,QWORD PTR [rsp]
    62e0:	48 3d f4 00 00 00    	cmp    rax,0xf4
    62e6:	0f 84 06 f2 ff ff    	je     54f2 <node244>
    62ec:	48 83 f8 29          	cmp    rax,0x29
    62f0:	0f 84 01 ba ff ff    	je     1cf7 <node41>
    62f6:	48 83 f8 4e          	cmp    rax,0x4e
    62fa:	0f 84 d6 c2 ff ff    	je     25d6 <node78>
    6300:	48 3d 08 01 00 00    	cmp    rax,0x108
    6306:	0f 84 a4 f7 ff ff    	je     5ab0 <node264>
    630c:	e9 3c 2b 00 00       	jmp    8e4d <fail_code>

0000000000006311 <node289>:
    6311:	48 8d 05 b8 4d 00 00 	lea    rax,[rip+0x4db8]        # b0d0 <__TMC_END__>
    6318:	c6 04 18 6b          	mov    BYTE PTR [rax+rbx*1],0x6b
    631c:	48 ff c3             	inc    rbx
    631f:	48 8d 3d ea 4c 00 00 	lea    rdi,[rip+0x4cea]        # b010 <scanf_format>
    6326:	48 89 e6             	mov    rsi,rsp
    6329:	31 c0                	xor    eax,eax
    632b:	ff 15 9f 4c 00 00    	call   QWORD PTR [rip+0x4c9f]        # afd0 <scanf@GLIBC_2.2.5>
    6331:	48 8b 04 24          	mov    rax,QWORD PTR [rsp]
    6335:	48 83 f8 2b          	cmp    rax,0x2b
    6339:	0f 84 0c ba ff ff    	je     1d4b <node43>
    633f:	48 3d 45 01 00 00    	cmp    rax,0x145
    6345:	0f 84 0c 0a 00 00    	je     6d57 <node325>
    634b:	48 83 f8 62          	cmp    rax,0x62
    634f:	0f 84 3d c7 ff ff    	je     2a92 <node98>
    6355:	48 83 f8 1a          	cmp    rax,0x1a
    6359:	0f 84 53 b5 ff ff    	je     18b2 <node26>
    635f:	e9 e9 2a 00 00       	jmp    8e4d <fail_code>

0000000000006364 <node290>:
    6364:	48 8d 05 65 4d 00 00 	lea    rax,[rip+0x4d65]        # b0d0 <__TMC_END__>
    636b:	c6 04 18 3a          	mov    BYTE PTR [rax+rbx*1],0x3a
    636f:	48 ff c3             	inc    rbx
    6372:	48 8d 3d 97 4c 00 00 	lea    rdi,[rip+0x4c97]        # b010 <scanf_format>
    6379:	48 89 e6             	mov    rsi,rsp
    637c:	31 c0                	xor    eax,eax
    637e:	ff 15 4c 4c 00 00    	call   QWORD PTR [rip+0x4c4c]        # afd0 <scanf@GLIBC_2.2.5>
    6384:	48 8b 04 24          	mov    rax,QWORD PTR [rsp]
    6388:	48 83 f8 17          	cmp    rax,0x17
    638c:	0f 84 3f b4 ff ff    	je     17d1 <node23>
    6392:	48 3d 07 01 00 00    	cmp    rax,0x107
    6398:	0f 84 ff f6 ff ff    	je     5a9d <node263>
    639e:	48 83 f8 06          	cmp    rax,0x6
    63a2:	0f 84 5c af ff ff    	je     1304 <node6>
    63a8:	48 3d 89 01 00 00    	cmp    rax,0x189
    63ae:	0f 84 1b 1b 00 00    	je     7ecf <node393>
    63b4:	e9 94 2a 00 00       	jmp    8e4d <fail_code>

00000000000063b9 <node291>:
    63b9:	48 8d 05 10 4d 00 00 	lea    rax,[rip+0x4d10]        # b0d0 <__TMC_END__>
    63c0:	c6 04 18 33          	mov    BYTE PTR [rax+rbx*1],0x33
    63c4:	48 ff c3             	inc    rbx
    63c7:	48 8d 3d 42 4c 00 00 	lea    rdi,[rip+0x4c42]        # b010 <scanf_format>
    63ce:	48 89 e6             	mov    rsi,rsp
    63d1:	31 c0                	xor    eax,eax
    63d3:	ff 15 f7 4b 00 00    	call   QWORD PTR [rip+0x4bf7]        # afd0 <scanf@GLIBC_2.2.5>
    63d9:	48 8b 04 24          	mov    rax,QWORD PTR [rsp]
    63dd:	48 3d 49 01 00 00    	cmp    rax,0x149
    63e3:	0f 84 fc 09 00 00    	je     6de5 <node329>
    63e9:	48 83 f8 58          	cmp    rax,0x58
    63ed:	0f 84 7b c4 ff ff    	je     286e <node88>
    63f3:	48 3d 6f 01 00 00    	cmp    rax,0x16f
    63f9:	0f 84 9c 14 00 00    	je     789b <node367>
    63ff:	e9 49 2a 00 00       	jmp    8e4d <fail_code>

0000000000006404 <node292>:
    6404:	48 8d 05 c5 4c 00 00 	lea    rax,[rip+0x4cc5]        # b0d0 <__TMC_END__>
    640b:	c6 04 18 77          	mov    BYTE PTR [rax+rbx*1],0x77
    640f:	48 ff c3             	inc    rbx
    6412:	48 8d 3d f7 4b 00 00 	lea    rdi,[rip+0x4bf7]        # b010 <scanf_format>
    6419:	48 89 e6             	mov    rsi,rsp
    641c:	31 c0                	xor    eax,eax
    641e:	ff 15 ac 4b 00 00    	call   QWORD PTR [rip+0x4bac]        # afd0 <scanf@GLIBC_2.2.5>
    6424:	48 8b 04 24          	mov    rax,QWORD PTR [rsp]
    6428:	48 83 f8 22          	cmp    rax,0x22
    642c:	0f 84 ae b6 ff ff    	je     1ae0 <node34>
    6432:	e9 16 2a 00 00       	jmp    8e4d <fail_code>

0000000000006437 <node293>:
    6437:	48 8d 05 92 4c 00 00 	lea    rax,[rip+0x4c92]        # b0d0 <__TMC_END__>
    643e:	c6 04 18 40          	mov    BYTE PTR [rax+rbx*1],0x40
    6442:	48 ff c3             	inc    rbx
    6445:	e9 03 2a 00 00       	jmp    8e4d <fail_code>

000000000000644a <node294>:
    644a:	48 8d 05 7f 4c 00 00 	lea    rax,[rip+0x4c7f]        # b0d0 <__TMC_END__>
    6451:	c6 04 18 47          	mov    BYTE PTR [rax+rbx*1],0x47
    6455:	48 ff c3             	inc    rbx
    6458:	48 8d 3d b1 4b 00 00 	lea    rdi,[rip+0x4bb1]        # b010 <scanf_format>
    645f:	48 89 e6             	mov    rsi,rsp
    6462:	31 c0                	xor    eax,eax
    6464:	ff 15 66 4b 00 00    	call   QWORD PTR [rip+0x4b66]        # afd0 <scanf@GLIBC_2.2.5>
    646a:	48 8b 04 24          	mov    rax,QWORD PTR [rsp]
    646e:	48 3d 89 01 00 00    	cmp    rax,0x189
    6474:	0f 84 55 1a 00 00    	je     7ecf <node393>
    647a:	48 83 f8 78          	cmp    rax,0x78
    647e:	0f 84 ae cb ff ff    	je     3032 <node120>
    6484:	48 83 f8 2f          	cmp    rax,0x2f
    6488:	0f 84 6d b9 ff ff    	je     1dfb <node47>
    648e:	48 3d bd 00 00 00    	cmp    rax,0xbd
    6494:	0f 84 9b df ff ff    	je     4435 <node189>
    649a:	e9 ae 29 00 00       	jmp    8e4d <fail_code>

000000000000649f <node295>:
    649f:	48 8d 05 2a 4c 00 00 	lea    rax,[rip+0x4c2a]        # b0d0 <__TMC_END__>
    64a6:	c6 04 18 3c          	mov    BYTE PTR [rax+rbx*1],0x3c
    64aa:	48 ff c3             	inc    rbx
    64ad:	48 8d 3d 5c 4b 00 00 	lea    rdi,[rip+0x4b5c]        # b010 <scanf_format>
    64b4:	48 89 e6             	mov    rsi,rsp
    64b7:	31 c0                	xor    eax,eax
    64b9:	ff 15 11 4b 00 00    	call   QWORD PTR [rip+0x4b11]        # afd0 <scanf@GLIBC_2.2.5>
    64bf:	48 8b 04 24          	mov    rax,QWORD PTR [rsp]
    64c3:	48 3d 5f 01 00 00    	cmp    rax,0x15f
    64c9:	0f 84 ae 0e 00 00    	je     737d <node351>
    64cf:	48 3d 9f 01 00 00    	cmp    rax,0x19f
    64d5:	0f 84 4a 20 00 00    	je     8525 <node415>
    64db:	48 3d 79 01 00 00    	cmp    rax,0x179
    64e1:	0f 84 9e 15 00 00    	je     7a85 <node377>
    64e7:	e9 61 29 00 00       	jmp    8e4d <fail_code>

00000000000064ec <node296>:
    64ec:	48 8d 05 dd 4b 00 00 	lea    rax,[rip+0x4bdd]        # b0d0 <__TMC_END__>
    64f3:	c6 04 18 2f          	mov    BYTE PTR [rax+rbx*1],0x2f
    64f7:	48 ff c3             	inc    rbx
    64fa:	48 8d 3d 0f 4b 00 00 	lea    rdi,[rip+0x4b0f]        # b010 <scanf_format>
    6501:	48 89 e6             	mov    rsi,rsp
    6504:	31 c0                	xor    eax,eax
    6506:	ff 15 c4 4a 00 00    	call   QWORD PTR [rip+0x4ac4]        # afd0 <scanf@GLIBC_2.2.5>
    650c:	48 8b 04 24          	mov    rax,QWORD PTR [rsp]
    6510:	48 3d d6 00 00 00    	cmp    rax,0xd6
    6516:	0f 84 3c e7 ff ff    	je     4c58 <node214>
    651c:	48 3d 82 01 00 00    	cmp    rax,0x182
    6522:	0f 84 d2 17 00 00    	je     7cfa <node386>
    6528:	48 3d b6 01 00 00    	cmp    rax,0x1b6
    652e:	0f 84 98 24 00 00    	je     89cc <node438>
    6534:	48 3d b5 00 00 00    	cmp    rax,0xb5
    653a:	0f 84 05 dd ff ff    	je     4245 <node181>
    6540:	48 83 f8 53          	cmp    rax,0x53
    6544:	0f 84 a7 c1 ff ff    	je     26f1 <node83>
    654a:	e9 fe 28 00 00       	jmp    8e4d <fail_code>

000000000000654f <node297>:
    654f:	48 8d 05 7a 4b 00 00 	lea    rax,[rip+0x4b7a]        # b0d0 <__TMC_END__>
    6556:	c6 04 18 34          	mov    BYTE PTR [rax+rbx*1],0x34
    655a:	48 ff c3             	inc    rbx
    655d:	48 8d 3d ac 4a 00 00 	lea    rdi,[rip+0x4aac]        # b010 <scanf_format>
    6564:	48 89 e6             	mov    rsi,rsp
    6567:	31 c0                	xor    eax,eax
    6569:	ff 15 61 4a 00 00    	call   QWORD PTR [rip+0x4a61]        # afd0 <scanf@GLIBC_2.2.5>
    656f:	48 8b 04 24          	mov    rax,QWORD PTR [rsp]
    6573:	48 3d fe 00 00 00    	cmp    rax,0xfe
    6579:	0f 84 21 f3 ff ff    	je     58a0 <node254>
    657f:	e9 c9 28 00 00       	jmp    8e4d <fail_code>

0000000000006584 <node298>:
    6584:	48 8d 05 45 4b 00 00 	lea    rax,[rip+0x4b45]        # b0d0 <__TMC_END__>
    658b:	c6 04 18 4e          	mov    BYTE PTR [rax+rbx*1],0x4e
    658f:	48 ff c3             	inc    rbx
    6592:	48 8d 3d 77 4a 00 00 	lea    rdi,[rip+0x4a77]        # b010 <scanf_format>
    6599:	48 89 e6             	mov    rsi,rsp
    659c:	31 c0                	xor    eax,eax
    659e:	ff 15 2c 4a 00 00    	call   QWORD PTR [rip+0x4a2c]        # afd0 <scanf@GLIBC_2.2.5>
    65a4:	48 8b 04 24          	mov    rax,QWORD PTR [rsp]
    65a8:	48 83 f8 47          	cmp    rax,0x47
    65ac:	0f 84 7d be ff ff    	je     242f <node71>
    65b2:	e9 96 28 00 00       	jmp    8e4d <fail_code>

00000000000065b7 <node299>:
    65b7:	48 8d 05 12 4b 00 00 	lea    rax,[rip+0x4b12]        # b0d0 <__TMC_END__>
    65be:	c6 04 18 7c          	mov    BYTE PTR [rax+rbx*1],0x7c
    65c2:	48 ff c3             	inc    rbx
    65c5:	e9 83 28 00 00       	jmp    8e4d <fail_code>

00000000000065ca <node300>:
    65ca:	48 8d 05 ff 4a 00 00 	lea    rax,[rip+0x4aff]        # b0d0 <__TMC_END__>
    65d1:	c6 04 18 0c          	mov    BYTE PTR [rax+rbx*1],0xc
    65d5:	48 ff c3             	inc    rbx
    65d8:	48 8d 3d 31 4a 00 00 	lea    rdi,[rip+0x4a31]        # b010 <scanf_format>
    65df:	48 89 e6             	mov    rsi,rsp
    65e2:	31 c0                	xor    eax,eax
    65e4:	ff 15 e6 49 00 00    	call   QWORD PTR [rip+0x49e6]        # afd0 <scanf@GLIBC_2.2.5>
    65ea:	48 8b 04 24          	mov    rax,QWORD PTR [rsp]
    65ee:	48 3d a0 01 00 00    	cmp    rax,0x1a0
    65f4:	0f 84 3e 1f 00 00    	je     8538 <node416>
    65fa:	48 3d 05 01 00 00    	cmp    rax,0x105
    6600:	0f 84 51 f4 ff ff    	je     5a57 <node261>
    6606:	e9 42 28 00 00       	jmp    8e4d <fail_code>

000000000000660b <node301>:
    660b:	48 8d 05 be 4a 00 00 	lea    rax,[rip+0x4abe]        # b0d0 <__TMC_END__>
    6612:	c6 04 18 54          	mov    BYTE PTR [rax+rbx*1],0x54
    6616:	48 ff c3             	inc    rbx
    6619:	e9 2f 28 00 00       	jmp    8e4d <fail_code>

000000000000661e <node302>:
    661e:	48 8d 05 ab 4a 00 00 	lea    rax,[rip+0x4aab]        # b0d0 <__TMC_END__>
    6625:	c6 04 18 30          	mov    BYTE PTR [rax+rbx*1],0x30
    6629:	48 ff c3             	inc    rbx
    662c:	e9 1c 28 00 00       	jmp    8e4d <fail_code>

0000000000006631 <node303>:
    6631:	48 8d 05 98 4a 00 00 	lea    rax,[rip+0x4a98]        # b0d0 <__TMC_END__>
    6638:	c6 04 18 79          	mov    BYTE PTR [rax+rbx*1],0x79
    663c:	48 ff c3             	inc    rbx
    663f:	48 8d 3d ca 49 00 00 	lea    rdi,[rip+0x49ca]        # b010 <scanf_format>
    6646:	48 89 e6             	mov    rsi,rsp
    6649:	31 c0                	xor    eax,eax
    664b:	ff 15 7f 49 00 00    	call   QWORD PTR [rip+0x497f]        # afd0 <scanf@GLIBC_2.2.5>
    6651:	48 8b 04 24          	mov    rax,QWORD PTR [rsp]
    6655:	48 3d b0 01 00 00    	cmp    rax,0x1b0
    665b:	0f 84 21 22 00 00    	je     8882 <node432>
    6661:	48 3d ab 00 00 00    	cmp    rax,0xab
    6667:	0f 84 44 d9 ff ff    	je     3fb1 <node171>
    666d:	e9 db 27 00 00       	jmp    8e4d <fail_code>

0000000000006672 <node304>:
    6672:	48 8d 05 57 4a 00 00 	lea    rax,[rip+0x4a57]        # b0d0 <__TMC_END__>
    6679:	c6 04 18 42          	mov    BYTE PTR [rax+rbx*1],0x42
    667d:	48 ff c3             	inc    rbx
    6680:	48 8d 3d 89 49 00 00 	lea    rdi,[rip+0x4989]        # b010 <scanf_format>
    6687:	48 89 e6             	mov    rsi,rsp
    668a:	31 c0                	xor    eax,eax
    668c:	ff 15 3e 49 00 00    	call   QWORD PTR [rip+0x493e]        # afd0 <scanf@GLIBC_2.2.5>
    6692:	48 8b 04 24          	mov    rax,QWORD PTR [rsp]
    6696:	48 3d 96 01 00 00    	cmp    rax,0x196
    669c:	0f 84 08 1c 00 00    	je     82aa <node406>
    66a2:	48 83 f8 38          	cmp    rax,0x38
    66a6:	0f 84 6c b9 ff ff    	je     2018 <node56>
    66ac:	48 3d 44 01 00 00    	cmp    rax,0x144
    66b2:	0f 84 6a 06 00 00    	je     6d22 <node324>
    66b8:	48 83 f8 52          	cmp    rax,0x52
    66bc:	0f 84 e2 bf ff ff    	je     26a4 <node82>
    66c2:	48 3d be 00 00 00    	cmp    rax,0xbe
    66c8:	0f 84 a8 dd ff ff    	je     4476 <node190>
    66ce:	48 3d 23 01 00 00    	cmp    rax,0x123
    66d4:	0f 84 df fc ff ff    	je     63b9 <node291>
    66da:	48 3d 9f 01 00 00    	cmp    rax,0x19f
    66e0:	0f 84 3f 1e 00 00    	je     8525 <node415>
    66e6:	48 3d bd 00 00 00    	cmp    rax,0xbd
    66ec:	0f 84 43 dd ff ff    	je     4435 <node189>
    66f2:	e9 56 27 00 00       	jmp    8e4d <fail_code>

00000000000066f7 <node305>:
    66f7:	48 8d 05 d2 49 00 00 	lea    rax,[rip+0x49d2]        # b0d0 <__TMC_END__>
    66fe:	c6 04 18 61          	mov    BYTE PTR [rax+rbx*1],0x61
    6702:	48 ff c3             	inc    rbx
    6705:	48 8d 3d 04 49 00 00 	lea    rdi,[rip+0x4904]        # b010 <scanf_format>
    670c:	48 89 e6             	mov    rsi,rsp
    670f:	31 c0                	xor    eax,eax
    6711:	ff 15 b9 48 00 00    	call   QWORD PTR [rip+0x48b9]        # afd0 <scanf@GLIBC_2.2.5>
    6717:	48 8b 04 24          	mov    rax,QWORD PTR [rsp]
    671b:	48 3d 84 00 00 00    	cmp    rax,0x84
    6721:	0f 84 6d cc ff ff    	je     3394 <node132>
    6727:	48 3d 00 01 00 00    	cmp    rax,0x100
    672d:	0f 84 ed f1 ff ff    	je     5920 <node256>
    6733:	e9 15 27 00 00       	jmp    8e4d <fail_code>

0000000000006738 <node306>:
    6738:	48 8d 05 91 49 00 00 	lea    rax,[rip+0x4991]        # b0d0 <__TMC_END__>
    673f:	c6 04 18 2b          	mov    BYTE PTR [rax+rbx*1],0x2b
    6743:	48 ff c3             	inc    rbx
    6746:	48 8d 3d c3 48 00 00 	lea    rdi,[rip+0x48c3]        # b010 <scanf_format>
    674d:	48 89 e6             	mov    rsi,rsp
    6750:	31 c0                	xor    eax,eax
    6752:	ff 15 78 48 00 00    	call   QWORD PTR [rip+0x4878]        # afd0 <scanf@GLIBC_2.2.5>
    6758:	48 8b 04 24          	mov    rax,QWORD PTR [rsp]
    675c:	48 3d ba 01 00 00    	cmp    rax,0x1ba
    6762:	0f 84 92 23 00 00    	je     8afa <node442>
    6768:	48 83 f8 7a          	cmp    rax,0x7a
    676c:	0f 84 40 c9 ff ff    	je     30b2 <node122>
    6772:	48 3d d8 00 00 00    	cmp    rax,0xd8
    6778:	0f 84 5c e5 ff ff    	je     4cda <node216>
    677e:	48 83 f8 4a          	cmp    rax,0x4a
    6782:	0f 84 70 bd ff ff    	je     24f8 <node74>
    6788:	e9 c0 26 00 00       	jmp    8e4d <fail_code>

000000000000678d <node307>:
    678d:	48 8d 05 3c 49 00 00 	lea    rax,[rip+0x493c]        # b0d0 <__TMC_END__>
    6794:	c6 04 18 78          	mov    BYTE PTR [rax+rbx*1],0x78
    6798:	48 ff c3             	inc    rbx
    679b:	48 8d 3d 6e 48 00 00 	lea    rdi,[rip+0x486e]        # b010 <scanf_format>
    67a2:	48 89 e6             	mov    rsi,rsp
    67a5:	31 c0                	xor    eax,eax
    67a7:	ff 15 23 48 00 00    	call   QWORD PTR [rip+0x4823]        # afd0 <scanf@GLIBC_2.2.5>
    67ad:	48 8b 04 24          	mov    rax,QWORD PTR [rsp]
    67b1:	48 3d 24 01 00 00    	cmp    rax,0x124
    67b7:	0f 84 47 fc ff ff    	je     6404 <node292>
    67bd:	48 3d 56 01 00 00    	cmp    rax,0x156
    67c3:	0f 84 5d 09 00 00    	je     7126 <node342>
    67c9:	48 3d 32 01 00 00    	cmp    rax,0x132
    67cf:	0f 84 63 ff ff ff    	je     6738 <node306>
    67d5:	48 83 f8 72          	cmp    rax,0x72
    67d9:	0f 84 4b c6 ff ff    	je     2e2a <node114>
    67df:	48 3d af 01 00 00    	cmp    rax,0x1af
    67e5:	0f 84 42 20 00 00    	je     882d <node431>
    67eb:	48 83 f8 3b          	cmp    rax,0x3b
    67ef:	0f 84 42 b9 ff ff    	je     2137 <node59>
    67f5:	e9 53 26 00 00       	jmp    8e4d <fail_code>

00000000000067fa <node308>:
    67fa:	48 8d 05 cf 48 00 00 	lea    rax,[rip+0x48cf]        # b0d0 <__TMC_END__>
    6801:	c6 04 18 0b          	mov    BYTE PTR [rax+rbx*1],0xb
    6805:	48 ff c3             	inc    rbx
    6808:	48 8d 3d 01 48 00 00 	lea    rdi,[rip+0x4801]        # b010 <scanf_format>
    680f:	48 89 e6             	mov    rsi,rsp
    6812:	31 c0                	xor    eax,eax
    6814:	ff 15 b6 47 00 00    	call   QWORD PTR [rip+0x47b6]        # afd0 <scanf@GLIBC_2.2.5>
    681a:	48 8b 04 24          	mov    rax,QWORD PTR [rsp]
    681e:	48 83 f8 1d          	cmp    rax,0x1d
    6822:	0f 84 43 b1 ff ff    	je     196b <node29>
    6828:	e9 20 26 00 00       	jmp    8e4d <fail_code>

000000000000682d <node309>:
    682d:	48 8d 05 9c 48 00 00 	lea    rax,[rip+0x489c]        # b0d0 <__TMC_END__>
    6834:	c6 04 18 67          	mov    BYTE PTR [rax+rbx*1],0x67
    6838:	48 ff c3             	inc    rbx
    683b:	48 8d 3d ce 47 00 00 	lea    rdi,[rip+0x47ce]        # b010 <scanf_format>
    6842:	48 89 e6             	mov    rsi,rsp
    6845:	31 c0                	xor    eax,eax
    6847:	ff 15 83 47 00 00    	call   QWORD PTR [rip+0x4783]        # afd0 <scanf@GLIBC_2.2.5>
    684d:	48 8b 04 24          	mov    rax,QWORD PTR [rsp]
    6851:	48 3d 72 01 00 00    	cmp    rax,0x172
    6857:	0f 84 1d 11 00 00    	je     797a <node370>
    685d:	48 83 f8 64          	cmp    rax,0x64
    6861:	0f 84 8b c2 ff ff    	je     2af2 <node100>
    6867:	48 83 f8 17          	cmp    rax,0x17
    686b:	0f 84 60 af ff ff    	je     17d1 <node23>
    6871:	48 3d dd 00 00 00    	cmp    rax,0xdd
    6877:	0f 84 00 e6 ff ff    	je     4e7d <node221>
    687d:	48 83 f8 2f          	cmp    rax,0x2f
    6881:	0f 84 74 b5 ff ff    	je     1dfb <node47>
    6887:	e9 c1 25 00 00       	jmp    8e4d <fail_code>

000000000000688c <node310>:
    688c:	48 8d 05 3d 48 00 00 	lea    rax,[rip+0x483d]        # b0d0 <__TMC_END__>
    6893:	c6 04 18 0b          	mov    BYTE PTR [rax+rbx*1],0xb
    6897:	48 ff c3             	inc    rbx
    689a:	48 8d 3d 6f 47 00 00 	lea    rdi,[rip+0x476f]        # b010 <scanf_format>
    68a1:	48 89 e6             	mov    rsi,rsp
    68a4:	31 c0                	xor    eax,eax
    68a6:	ff 15 24 47 00 00    	call   QWORD PTR [rip+0x4724]        # afd0 <scanf@GLIBC_2.2.5>
    68ac:	48 8b 04 24          	mov    rax,QWORD PTR [rsp]
    68b0:	48 3d a4 00 00 00    	cmp    rax,0xa4
    68b6:	0f 84 30 d5 ff ff    	je     3dec <node164>
    68bc:	48 83 f8 11          	cmp    rax,0x11
    68c0:	0f 84 ab ad ff ff    	je     1671 <node17>
    68c6:	e9 82 25 00 00       	jmp    8e4d <fail_code>

00000000000068cb <node311>:
    68cb:	48 8d 05 fe 47 00 00 	lea    rax,[rip+0x47fe]        # b0d0 <__TMC_END__>
    68d2:	c6 04 18 3a          	mov    BYTE PTR [rax+rbx*1],0x3a
    68d6:	48 ff c3             	inc    rbx
    68d9:	48 8d 3d 30 47 00 00 	lea    rdi,[rip+0x4730]        # b010 <scanf_format>
    68e0:	48 89 e6             	mov    rsi,rsp
    68e3:	31 c0                	xor    eax,eax
    68e5:	ff 15 e5 46 00 00    	call   QWORD PTR [rip+0x46e5]        # afd0 <scanf@GLIBC_2.2.5>
    68eb:	48 8b 04 24          	mov    rax,QWORD PTR [rsp]
    68ef:	48 3d a6 01 00 00    	cmp    rax,0x1a6
    68f5:	0f 84 85 1d 00 00    	je     8680 <node422>
    68fb:	48 3d a0 01 00 00    	cmp    rax,0x1a0
    6901:	0f 84 31 1c 00 00    	je     8538 <node416>
    6907:	48 3d bc 01 00 00    	cmp    rax,0x1bc
    690d:	0f 84 2f 22 00 00    	je     8b42 <node444>
    6913:	e9 35 25 00 00       	jmp    8e4d <fail_code>

0000000000006918 <node312>:
    6918:	48 8d 05 b1 47 00 00 	lea    rax,[rip+0x47b1]        # b0d0 <__TMC_END__>
    691f:	c6 04 18 5d          	mov    BYTE PTR [rax+rbx*1],0x5d
    6923:	48 ff c3             	inc    rbx
    6926:	48 8d 3d e3 46 00 00 	lea    rdi,[rip+0x46e3]        # b010 <scanf_format>
    692d:	48 89 e6             	mov    rsi,rsp
    6930:	31 c0                	xor    eax,eax
    6932:	ff 15 98 46 00 00    	call   QWORD PTR [rip+0x4698]        # afd0 <scanf@GLIBC_2.2.5>
    6938:	48 8b 04 24          	mov    rax,QWORD PTR [rsp]
    693c:	48 83 f8 24          	cmp    rax,0x24
    6940:	0f 84 7e b2 ff ff    	je     1bc4 <node36>
    6946:	48 3d 6e 01 00 00    	cmp    rax,0x16e
    694c:	0f 84 0a 0f 00 00    	je     785c <node366>
    6952:	48 3d cd 00 00 00    	cmp    rax,0xcd
    6958:	0f 84 c5 df ff ff    	je     4923 <node205>
    695e:	48 3d c2 01 00 00    	cmp    rax,0x1c2
    6964:	0f 84 e0 23 00 00    	je     8d4a <node450>
    696a:	e9 de 24 00 00       	jmp    8e4d <fail_code>

000000000000696f <node313>:
    696f:	48 8d 05 5a 47 00 00 	lea    rax,[rip+0x475a]        # b0d0 <__TMC_END__>
    6976:	c6 04 18 70          	mov    BYTE PTR [rax+rbx*1],0x70
    697a:	48 ff c3             	inc    rbx
    697d:	48 8d 3d 8c 46 00 00 	lea    rdi,[rip+0x468c]        # b010 <scanf_format>
    6984:	48 89 e6             	mov    rsi,rsp
    6987:	31 c0                	xor    eax,eax
    6989:	ff 15 41 46 00 00    	call   QWORD PTR [rip+0x4641]        # afd0 <scanf@GLIBC_2.2.5>
    698f:	48 8b 04 24          	mov    rax,QWORD PTR [rsp]
    6993:	48 83 f8 2b          	cmp    rax,0x2b
    6997:	0f 84 ae b3 ff ff    	je     1d4b <node43>
    699d:	48 3d 36 01 00 00    	cmp    rax,0x136
    69a3:	0f 84 e3 fe ff ff    	je     688c <node310>
    69a9:	48 3d 47 01 00 00    	cmp    rax,0x147
    69af:	0f 84 e8 03 00 00    	je     6d9d <node327>
    69b5:	48 3d 84 01 00 00    	cmp    rax,0x184
    69bb:	0f 84 95 13 00 00    	je     7d56 <node388>
    69c1:	e9 87 24 00 00       	jmp    8e4d <fail_code>

00000000000069c6 <node314>:
    69c6:	48 8d 05 03 47 00 00 	lea    rax,[rip+0x4703]        # b0d0 <__TMC_END__>
    69cd:	c6 04 18 49          	mov    BYTE PTR [rax+rbx*1],0x49
    69d1:	48 ff c3             	inc    rbx
    69d4:	e9 74 24 00 00       	jmp    8e4d <fail_code>

00000000000069d9 <node315>:
    69d9:	48 8d 05 f0 46 00 00 	lea    rax,[rip+0x46f0]        # b0d0 <__TMC_END__>
    69e0:	c6 04 18 38          	mov    BYTE PTR [rax+rbx*1],0x38
    69e4:	48 ff c3             	inc    rbx
    69e7:	48 8d 3d 22 46 00 00 	lea    rdi,[rip+0x4622]        # b010 <scanf_format>
    69ee:	48 89 e6             	mov    rsi,rsp
    69f1:	31 c0                	xor    eax,eax
    69f3:	ff 15 d7 45 00 00    	call   QWORD PTR [rip+0x45d7]        # afd0 <scanf@GLIBC_2.2.5>
    69f9:	48 8b 04 24          	mov    rax,QWORD PTR [rsp]
    69fd:	48 83 f8 26          	cmp    rax,0x26
    6a01:	0f 84 47 b2 ff ff    	je     1c4e <node38>
    6a07:	48 3d c2 00 00 00    	cmp    rax,0xc2
    6a0d:	0f 84 6d db ff ff    	je     4580 <node194>
    6a13:	48 83 f8 70          	cmp    rax,0x70
    6a17:	0f 84 bb c3 ff ff    	je     2dd8 <node112>
    6a1d:	e9 2b 24 00 00       	jmp    8e4d <fail_code>

0000000000006a22 <node316>:
    6a22:	48 8d 05 a7 46 00 00 	lea    rax,[rip+0x46a7]        # b0d0 <__TMC_END__>
    6a29:	c6 04 18 31          	mov    BYTE PTR [rax+rbx*1],0x31
    6a2d:	48 ff c3             	inc    rbx
    6a30:	48 8d 3d d9 45 00 00 	lea    rdi,[rip+0x45d9]        # b010 <scanf_format>
    6a37:	48 89 e6             	mov    rsi,rsp
    6a3a:	31 c0                	xor    eax,eax
    6a3c:	ff 15 8e 45 00 00    	call   QWORD PTR [rip+0x458e]        # afd0 <scanf@GLIBC_2.2.5>
    6a42:	48 8b 04 24          	mov    rax,QWORD PTR [rsp]
    6a46:	48 3d ca 00 00 00    	cmp    rax,0xca
    6a4c:	0f 84 08 de ff ff    	je     485a <node202>
    6a52:	48 3d 8e 00 00 00    	cmp    rax,0x8e
    6a58:	0f 84 4e cc ff ff    	je     36ac <node142>
    6a5e:	48 83 f8 0c          	cmp    rax,0xc
    6a62:	0f 84 34 aa ff ff    	je     149c <node12>
    6a68:	48 83 f8 15          	cmp    rax,0x15
    6a6c:	0f 84 e1 ac ff ff    	je     1753 <node21>
    6a72:	48 3d 57 01 00 00    	cmp    rax,0x157
    6a78:	0f 84 e7 06 00 00    	je     7165 <node343>
    6a7e:	48 3d c5 01 00 00    	cmp    rax,0x1c5
    6a84:	0f 84 44 23 00 00    	je     8dce <node453>
    6a8a:	e9 be 23 00 00       	jmp    8e4d <fail_code>

0000000000006a8f <node317>:
    6a8f:	48 8d 05 3a 46 00 00 	lea    rax,[rip+0x463a]        # b0d0 <__TMC_END__>
    6a96:	c6 04 18 34          	mov    BYTE PTR [rax+rbx*1],0x34
    6a9a:	48 ff c3             	inc    rbx
    6a9d:	48 8d 3d 6c 45 00 00 	lea    rdi,[rip+0x456c]        # b010 <scanf_format>
    6aa4:	48 89 e6             	mov    rsi,rsp
    6aa7:	31 c0                	xor    eax,eax
    6aa9:	ff 15 21 45 00 00    	call   QWORD PTR [rip+0x4521]        # afd0 <scanf@GLIBC_2.2.5>
    6aaf:	48 8b 04 24          	mov    rax,QWORD PTR [rsp]
    6ab3:	48 3d 71 01 00 00    	cmp    rax,0x171
    6ab9:	0f 84 64 0e 00 00    	je     7923 <node369>
    6abf:	48 3d d0 00 00 00    	cmp    rax,0xd0
    6ac5:	0f 84 25 df ff ff    	je     49f0 <node208>
    6acb:	48 3d 80 01 00 00    	cmp    rax,0x180
    6ad1:	0f 84 ad 11 00 00    	je     7c84 <node384>
    6ad7:	e9 71 23 00 00       	jmp    8e4d <fail_code>

0000000000006adc <node318>:
    6adc:	48 8d 05 ed 45 00 00 	lea    rax,[rip+0x45ed]        # b0d0 <__TMC_END__>
    6ae3:	c6 04 18 4c          	mov    BYTE PTR [rax+rbx*1],0x4c
    6ae7:	48 ff c3             	inc    rbx
    6aea:	48 8d 3d 1f 45 00 00 	lea    rdi,[rip+0x451f]        # b010 <scanf_format>
    6af1:	48 89 e6             	mov    rsi,rsp
    6af4:	31 c0                	xor    eax,eax
    6af6:	ff 15 d4 44 00 00    	call   QWORD PTR [rip+0x44d4]        # afd0 <scanf@GLIBC_2.2.5>
    6afc:	48 8b 04 24          	mov    rax,QWORD PTR [rsp]
    6b00:	48 3d 2b 01 00 00    	cmp    rax,0x12b
    6b06:	0f 84 ab fa ff ff    	je     65b7 <node299>
    6b0c:	48 3d 78 01 00 00    	cmp    rax,0x178
    6b12:	0f 84 5a 0f 00 00    	je     7a72 <node376>
    6b18:	e9 30 23 00 00       	jmp    8e4d <fail_code>

0000000000006b1d <node319>:
    6b1d:	48 8d 05 ac 45 00 00 	lea    rax,[rip+0x45ac]        # b0d0 <__TMC_END__>
    6b24:	c6 04 18 73          	mov    BYTE PTR [rax+rbx*1],0x73
    6b28:	48 ff c3             	inc    rbx
    6b2b:	48 8d 3d de 44 00 00 	lea    rdi,[rip+0x44de]        # b010 <scanf_format>
    6b32:	48 89 e6             	mov    rsi,rsp
    6b35:	31 c0                	xor    eax,eax
    6b37:	ff 15 93 44 00 00    	call   QWORD PTR [rip+0x4493]        # afd0 <scanf@GLIBC_2.2.5>
    6b3d:	48 8b 04 24          	mov    rax,QWORD PTR [rsp]
    6b41:	48 3d 60 01 00 00    	cmp    rax,0x160
    6b47:	0f 84 43 08 00 00    	je     7390 <node352>
    6b4d:	48 83 f8 7e          	cmp    rax,0x7e
    6b51:	0f 84 9f c6 ff ff    	je     31f6 <node126>
    6b57:	48 3d 86 00 00 00    	cmp    rax,0x86
    6b5d:	0f 84 d7 c8 ff ff    	je     343a <node134>
    6b63:	48 3d c7 00 00 00    	cmp    rax,0xc7
    6b69:	0f 84 ae db ff ff    	je     471d <node199>
    6b6f:	48 3d bf 00 00 00    	cmp    rax,0xbf
    6b75:	0f 84 48 d9 ff ff    	je     44c3 <node191>
    6b7b:	48 3d 35 01 00 00    	cmp    rax,0x135
    6b81:	0f 84 a6 fc ff ff    	je     682d <node309>
    6b87:	48 3d 8d 00 00 00    	cmp    rax,0x8d
    6b8d:	0f 84 b4 ca ff ff    	je     3647 <node141>
    6b93:	e9 b5 22 00 00       	jmp    8e4d <fail_code>

0000000000006b98 <node320>:
    6b98:	48 8d 05 31 45 00 00 	lea    rax,[rip+0x4531]        # b0d0 <__TMC_END__>
    6b9f:	c6 04 18 27          	mov    BYTE PTR [rax+rbx*1],0x27
    6ba3:	48 ff c3             	inc    rbx
    6ba6:	48 8d 3d 63 44 00 00 	lea    rdi,[rip+0x4463]        # b010 <scanf_format>
    6bad:	48 89 e6             	mov    rsi,rsp
    6bb0:	31 c0                	xor    eax,eax
    6bb2:	ff 15 18 44 00 00    	call   QWORD PTR [rip+0x4418]        # afd0 <scanf@GLIBC_2.2.5>
    6bb8:	48 8b 04 24          	mov    rax,QWORD PTR [rsp]
    6bbc:	48 3d cc 00 00 00    	cmp    rax,0xcc
    6bc2:	0f 84 1e dd ff ff    	je     48e6 <node204>
    6bc8:	48 3d c6 00 00 00    	cmp    rax,0xc6
    6bce:	0f 84 ea da ff ff    	je     46be <node198>
    6bd4:	48 3d 86 01 00 00    	cmp    rax,0x186
    6bda:	0f 84 00 12 00 00    	je     7de0 <node390>
    6be0:	48 3d 52 01 00 00    	cmp    rax,0x152
    6be6:	0f 84 16 04 00 00    	je     7002 <node338>
    6bec:	48 3d 75 01 00 00    	cmp    rax,0x175
    6bf2:	0f 84 dd 0d 00 00    	je     79d5 <node373>
    6bf8:	48 3d bf 01 00 00    	cmp    rax,0x1bf
    6bfe:	0f 84 15 20 00 00    	je     8c19 <node447>
    6c04:	48 83 f8 61          	cmp    rax,0x61
    6c08:	0f 84 4f be ff ff    	je     2a5d <node97>
    6c0e:	48 3d fd 00 00 00    	cmp    rax,0xfd
    6c14:	0f 84 45 ec ff ff    	je     585f <node253>
    6c1a:	e9 2e 22 00 00       	jmp    8e4d <fail_code>

0000000000006c1f <node321>:
    6c1f:	48 8d 05 aa 44 00 00 	lea    rax,[rip+0x44aa]        # b0d0 <__TMC_END__>
    6c26:	c6 04 18 4e          	mov    BYTE PTR [rax+rbx*1],0x4e
    6c2a:	48 ff c3             	inc    rbx
    6c2d:	48 8d 3d dc 43 00 00 	lea    rdi,[rip+0x43dc]        # b010 <scanf_format>
    6c34:	48 89 e6             	mov    rsi,rsp
    6c37:	31 c0                	xor    eax,eax
    6c39:	ff 15 91 43 00 00    	call   QWORD PTR [rip+0x4391]        # afd0 <scanf@GLIBC_2.2.5>
    6c3f:	48 8b 04 24          	mov    rax,QWORD PTR [rsp]
    6c43:	48 3d 67 01 00 00    	cmp    rax,0x167
    6c49:	0f 84 d8 09 00 00    	je     7627 <node359>
    6c4f:	e9 f9 21 00 00       	jmp    8e4d <fail_code>

0000000000006c54 <node322>:
    6c54:	48 8d 05 75 44 00 00 	lea    rax,[rip+0x4475]        # b0d0 <__TMC_END__>
    6c5b:	c6 04 18 76          	mov    BYTE PTR [rax+rbx*1],0x76
    6c5f:	48 ff c3             	inc    rbx
    6c62:	48 8d 3d a7 43 00 00 	lea    rdi,[rip+0x43a7]        # b010 <scanf_format>
    6c69:	48 89 e6             	mov    rsi,rsp
    6c6c:	31 c0                	xor    eax,eax
    6c6e:	ff 15 5c 43 00 00    	call   QWORD PTR [rip+0x435c]        # afd0 <scanf@GLIBC_2.2.5>
    6c74:	48 8b 04 24          	mov    rax,QWORD PTR [rsp]
    6c78:	48 3d c6 00 00 00    	cmp    rax,0xc6
    6c7e:	0f 84 3a da ff ff    	je     46be <node198>
    6c84:	48 3d 8c 01 00 00    	cmp    rax,0x18c
    6c8a:	0f 84 66 13 00 00    	je     7ff6 <node396>
    6c90:	48 3d 2e 01 00 00    	cmp    rax,0x12e
    6c96:	0f 84 82 f9 ff ff    	je     661e <node302>
    6c9c:	48 83 f8 38          	cmp    rax,0x38
    6ca0:	0f 84 72 b3 ff ff    	je     2018 <node56>
    6ca6:	48 3d 97 01 00 00    	cmp    rax,0x197
    6cac:	0f 84 0b 16 00 00    	je     82bd <node407>
    6cb2:	48 83 f8 7d          	cmp    rax,0x7d
    6cb6:	0f 84 ef c4 ff ff    	je     31ab <node125>
    6cbc:	48 3d ab 01 00 00    	cmp    rax,0x1ab
    6cc2:	0f 84 eb 1a 00 00    	je     87b3 <node427>
    6cc8:	e9 80 21 00 00       	jmp    8e4d <fail_code>

0000000000006ccd <node323>:
    6ccd:	48 8d 05 fc 43 00 00 	lea    rax,[rip+0x43fc]        # b0d0 <__TMC_END__>
    6cd4:	c6 04 18 62          	mov    BYTE PTR [rax+rbx*1],0x62
    6cd8:	48 ff c3             	inc    rbx
    6cdb:	48 8d 3d 2e 43 00 00 	lea    rdi,[rip+0x432e]        # b010 <scanf_format>
    6ce2:	48 89 e6             	mov    rsi,rsp
    6ce5:	31 c0                	xor    eax,eax
    6ce7:	ff 15 e3 42 00 00    	call   QWORD PTR [rip+0x42e3]        # afd0 <scanf@GLIBC_2.2.5>
    6ced:	48 8b 04 24          	mov    rax,QWORD PTR [rsp]
    6cf1:	48 3d 33 01 00 00    	cmp    rax,0x133
    6cf7:	0f 84 90 fa ff ff    	je     678d <node307>
    6cfd:	48 83 f8 77          	cmp    rax,0x77
    6d01:	0f 84 cc c2 ff ff    	je     2fd3 <node119>
    6d07:	48 3d 6a 01 00 00    	cmp    rax,0x16a
    6d0d:	0f 84 19 0a 00 00    	je     772c <node362>
    6d13:	48 83 f8 65          	cmp    rax,0x65
    6d17:	0f 84 e8 bd ff ff    	je     2b05 <node101>
    6d1d:	e9 2b 21 00 00       	jmp    8e4d <fail_code>

0000000000006d22 <node324>:
    6d22:	48 8d 05 a7 43 00 00 	lea    rax,[rip+0x43a7]        # b0d0 <__TMC_END__>
    6d29:	c6 04 18 21          	mov    BYTE PTR [rax+rbx*1],0x21
    6d2d:	48 ff c3             	inc    rbx
    6d30:	48 8d 3d d9 42 00 00 	lea    rdi,[rip+0x42d9]        # b010 <scanf_format>
    6d37:	48 89 e6             	mov    rsi,rsp
    6d3a:	31 c0                	xor    eax,eax
    6d3c:	ff 15 8e 42 00 00    	call   QWORD PTR [rip+0x428e]        # afd0 <scanf@GLIBC_2.2.5>
    6d42:	48 8b 04 24          	mov    rax,QWORD PTR [rsp]
    6d46:	48 3d 88 01 00 00    	cmp    rax,0x188
    6d4c:	0f 84 48 11 00 00    	je     7e9a <node392>
    6d52:	e9 f6 20 00 00       	jmp    8e4d <fail_code>

0000000000006d57 <node325>:
    6d57:	48 8d 05 72 43 00 00 	lea    rax,[rip+0x4372]        # b0d0 <__TMC_END__>
    6d5e:	c6 04 18 20          	mov    BYTE PTR [rax+rbx*1],0x20
    6d62:	48 ff c3             	inc    rbx
    6d65:	e9 e3 20 00 00       	jmp    8e4d <fail_code>

0000000000006d6a <node326>:
    6d6a:	48 8d 05 5f 43 00 00 	lea    rax,[rip+0x435f]        # b0d0 <__TMC_END__>
    6d71:	c6 04 18 20          	mov    BYTE PTR [rax+rbx*1],0x20
    6d75:	48 ff c3             	inc    rbx
    6d78:	48 8d 3d 91 42 00 00 	lea    rdi,[rip+0x4291]        # b010 <scanf_format>
    6d7f:	48 89 e6             	mov    rsi,rsp
    6d82:	31 c0                	xor    eax,eax
    6d84:	ff 15 46 42 00 00    	call   QWORD PTR [rip+0x4246]        # afd0 <scanf@GLIBC_2.2.5>
    6d8a:	48 8b 04 24          	mov    rax,QWORD PTR [rsp]
    6d8e:	48 83 f8 75          	cmp    rax,0x75
    6d92:	0f 84 d3 c1 ff ff    	je     2f6b <node117>
    6d98:	e9 b0 20 00 00       	jmp    8e4d <fail_code>

0000000000006d9d <node327>:
    6d9d:	48 8d 05 2c 43 00 00 	lea    rax,[rip+0x432c]        # b0d0 <__TMC_END__>
    6da4:	c6 04 18 3a          	mov    BYTE PTR [rax+rbx*1],0x3a
    6da8:	48 ff c3             	inc    rbx
    6dab:	e9 9d 20 00 00       	jmp    8e4d <fail_code>

0000000000006db0 <node328>:
    6db0:	48 8d 05 19 43 00 00 	lea    rax,[rip+0x4319]        # b0d0 <__TMC_END__>
    6db7:	c6 04 18 53          	mov    BYTE PTR [rax+rbx*1],0x53
    6dbb:	48 ff c3             	inc    rbx
    6dbe:	48 8d 3d 4b 42 00 00 	lea    rdi,[rip+0x424b]        # b010 <scanf_format>
    6dc5:	48 89 e6             	mov    rsi,rsp
    6dc8:	31 c0                	xor    eax,eax
    6dca:	ff 15 00 42 00 00    	call   QWORD PTR [rip+0x4200]        # afd0 <scanf@GLIBC_2.2.5>
    6dd0:	48 8b 04 24          	mov    rax,QWORD PTR [rsp]
    6dd4:	48 3d 25 01 00 00    	cmp    rax,0x125
    6dda:	0f 84 57 f6 ff ff    	je     6437 <node293>
    6de0:	e9 68 20 00 00       	jmp    8e4d <fail_code>

0000000000006de5 <node329>:
    6de5:	48 8d 05 e4 42 00 00 	lea    rax,[rip+0x42e4]        # b0d0 <__TMC_END__>
    6dec:	c6 04 18 36          	mov    BYTE PTR [rax+rbx*1],0x36
    6df0:	48 ff c3             	inc    rbx
    6df3:	48 8d 3d 16 42 00 00 	lea    rdi,[rip+0x4216]        # b010 <scanf_format>
    6dfa:	48 89 e6             	mov    rsi,rsp
    6dfd:	31 c0                	xor    eax,eax
    6dff:	ff 15 cb 41 00 00    	call   QWORD PTR [rip+0x41cb]        # afd0 <scanf@GLIBC_2.2.5>
    6e05:	48 8b 04 24          	mov    rax,QWORD PTR [rsp]
    6e09:	48 3d 3a 01 00 00    	cmp    rax,0x13a
    6e0f:	0f 84 b1 fb ff ff    	je     69c6 <node314>
    6e15:	48 3d 5e 01 00 00    	cmp    rax,0x15e
    6e1b:	0f 84 49 05 00 00    	je     736a <node350>
    6e21:	e9 27 20 00 00       	jmp    8e4d <fail_code>

0000000000006e26 <node330>:
    6e26:	48 8d 05 a3 42 00 00 	lea    rax,[rip+0x42a3]        # b0d0 <__TMC_END__>
    6e2d:	c6 04 18 62          	mov    BYTE PTR [rax+rbx*1],0x62
    6e31:	48 ff c3             	inc    rbx
    6e34:	48 8d 3d d5 41 00 00 	lea    rdi,[rip+0x41d5]        # b010 <scanf_format>
    6e3b:	48 89 e6             	mov    rsi,rsp
    6e3e:	31 c0                	xor    eax,eax
    6e40:	ff 15 8a 41 00 00    	call   QWORD PTR [rip+0x418a]        # afd0 <scanf@GLIBC_2.2.5>
    6e46:	48 8b 04 24          	mov    rax,QWORD PTR [rsp]
    6e4a:	48 3d 18 01 00 00    	cmp    rax,0x118
    6e50:	0f 84 a0 f1 ff ff    	je     5ff6 <node280>
    6e56:	48 3d 9a 00 00 00    	cmp    rax,0x9a
    6e5c:	0f 84 70 cc ff ff    	je     3ad2 <node154>
    6e62:	48 3d 12 01 00 00    	cmp    rax,0x112
    6e68:	0f 84 ea ef ff ff    	je     5e58 <node274>
    6e6e:	48 3d df 00 00 00    	cmp    rax,0xdf
    6e74:	0f 84 79 e0 ff ff    	je     4ef3 <node223>
    6e7a:	e9 ce 1f 00 00       	jmp    8e4d <fail_code>

0000000000006e7f <node331>:
    6e7f:	48 8d 05 4a 42 00 00 	lea    rax,[rip+0x424a]        # b0d0 <__TMC_END__>
    6e86:	c6 04 18 24          	mov    BYTE PTR [rax+rbx*1],0x24
    6e8a:	48 ff c3             	inc    rbx
    6e8d:	48 8d 3d 7c 41 00 00 	lea    rdi,[rip+0x417c]        # b010 <scanf_format>
    6e94:	48 89 e6             	mov    rsi,rsp
    6e97:	31 c0                	xor    eax,eax
    6e99:	ff 15 31 41 00 00    	call   QWORD PTR [rip+0x4131]        # afd0 <scanf@GLIBC_2.2.5>
    6e9f:	48 8b 04 24          	mov    rax,QWORD PTR [rsp]
    6ea3:	48 3d ee 00 00 00    	cmp    rax,0xee
    6ea9:	0f 84 fd e3 ff ff    	je     52ac <node238>
    6eaf:	48 83 f8 63          	cmp    rax,0x63
    6eb3:	0f 84 ec bb ff ff    	je     2aa5 <node99>
    6eb9:	48 83 f8 3f          	cmp    rax,0x3f
    6ebd:	0f 84 a6 b3 ff ff    	je     2269 <node63>
    6ec3:	48 83 f8 1d          	cmp    rax,0x1d
    6ec7:	0f 84 9e aa ff ff    	je     196b <node29>
    6ecd:	e9 7b 1f 00 00       	jmp    8e4d <fail_code>

0000000000006ed2 <node332>:
    6ed2:	48 8d 05 f7 41 00 00 	lea    rax,[rip+0x41f7]        # b0d0 <__TMC_END__>
    6ed9:	c6 04 18 23          	mov    BYTE PTR [rax+rbx*1],0x23
    6edd:	48 ff c3             	inc    rbx
    6ee0:	48 8d 3d 29 41 00 00 	lea    rdi,[rip+0x4129]        # b010 <scanf_format>
    6ee7:	48 89 e6             	mov    rsi,rsp
    6eea:	31 c0                	xor    eax,eax
    6eec:	ff 15 de 40 00 00    	call   QWORD PTR [rip+0x40de]        # afd0 <scanf@GLIBC_2.2.5>
    6ef2:	48 8b 04 24          	mov    rax,QWORD PTR [rsp]
    6ef6:	48 83 f8 0b          	cmp    rax,0xb
    6efa:	0f 84 89 a5 ff ff    	je     1489 <node11>
    6f00:	e9 48 1f 00 00       	jmp    8e4d <fail_code>

0000000000006f05 <node333>:
    6f05:	48 8d 05 c4 41 00 00 	lea    rax,[rip+0x41c4]        # b0d0 <__TMC_END__>
    6f0c:	c6 04 18 41          	mov    BYTE PTR [rax+rbx*1],0x41
    6f10:	48 ff c3             	inc    rbx
    6f13:	48 8d 3d f6 40 00 00 	lea    rdi,[rip+0x40f6]        # b010 <scanf_format>
    6f1a:	48 89 e6             	mov    rsi,rsp
    6f1d:	31 c0                	xor    eax,eax
    6f1f:	ff 15 ab 40 00 00    	call   QWORD PTR [rip+0x40ab]        # afd0 <scanf@GLIBC_2.2.5>
    6f25:	48 8b 04 24          	mov    rax,QWORD PTR [rsp]
    6f29:	48 3d a9 01 00 00    	cmp    rax,0x1a9
    6f2f:	0f 84 f2 17 00 00    	je     8727 <node425>
    6f35:	48 3d 49 01 00 00    	cmp    rax,0x149
    6f3b:	0f 84 a4 fe ff ff    	je     6de5 <node329>
    6f41:	e9 07 1f 00 00       	jmp    8e4d <fail_code>

0000000000006f46 <node334>:
    6f46:	48 8d 05 83 41 00 00 	lea    rax,[rip+0x4183]        # b0d0 <__TMC_END__>
    6f4d:	c6 04 18 3d          	mov    BYTE PTR [rax+rbx*1],0x3d
    6f51:	48 ff c3             	inc    rbx
    6f54:	48 8d 3d b5 40 00 00 	lea    rdi,[rip+0x40b5]        # b010 <scanf_format>
    6f5b:	48 89 e6             	mov    rsi,rsp
    6f5e:	31 c0                	xor    eax,eax
    6f60:	ff 15 6a 40 00 00    	call   QWORD PTR [rip+0x406a]        # afd0 <scanf@GLIBC_2.2.5>
    6f66:	48 8b 04 24          	mov    rax,QWORD PTR [rsp]
    6f6a:	48 3d 45 01 00 00    	cmp    rax,0x145
    6f70:	0f 84 e1 fd ff ff    	je     6d57 <node325>
    6f76:	48 83 f8 50          	cmp    rax,0x50
    6f7a:	0f 84 dc b6 ff ff    	je     265c <node80>
    6f80:	e9 c8 1e 00 00       	jmp    8e4d <fail_code>

0000000000006f85 <node335>:
    6f85:	48 8d 05 44 41 00 00 	lea    rax,[rip+0x4144]        # b0d0 <__TMC_END__>
    6f8c:	c6 04 18 39          	mov    BYTE PTR [rax+rbx*1],0x39
    6f90:	48 ff c3             	inc    rbx
    6f93:	48 8d 3d 76 40 00 00 	lea    rdi,[rip+0x4076]        # b010 <scanf_format>
    6f9a:	48 89 e6             	mov    rsi,rsp
    6f9d:	31 c0                	xor    eax,eax
    6f9f:	ff 15 2b 40 00 00    	call   QWORD PTR [rip+0x402b]        # afd0 <scanf@GLIBC_2.2.5>
    6fa5:	48 8b 04 24          	mov    rax,QWORD PTR [rsp]
    6fa9:	48 3d 53 01 00 00    	cmp    rax,0x153
    6faf:	0f 84 ba 00 00 00    	je     706f <node339>
    6fb5:	48 3d 90 00 00 00    	cmp    rax,0x90
    6fbb:	0f 84 81 c7 ff ff    	je     3742 <node144>
    6fc1:	48 3d b7 00 00 00    	cmp    rax,0xb7
    6fc7:	0f 84 ec d2 ff ff    	je     42b9 <node183>
    6fcd:	48 83 f8 2e          	cmp    rax,0x2e
    6fd1:	0f 84 dd ad ff ff    	je     1db4 <node46>
    6fd7:	e9 71 1e 00 00       	jmp    8e4d <fail_code>

0000000000006fdc <node336>:
    6fdc:	48 8d 05 ed 40 00 00 	lea    rax,[rip+0x40ed]        # b0d0 <__TMC_END__>
    6fe3:	c6 04 18 7c          	mov    BYTE PTR [rax+rbx*1],0x7c
    6fe7:	48 ff c3             	inc    rbx
    6fea:	e9 5e 1e 00 00       	jmp    8e4d <fail_code>

0000000000006fef <node337>:
    6fef:	48 8d 05 da 40 00 00 	lea    rax,[rip+0x40da]        # b0d0 <__TMC_END__>
    6ff6:	c6 04 18 2e          	mov    BYTE PTR [rax+rbx*1],0x2e
    6ffa:	48 ff c3             	inc    rbx
    6ffd:	e9 4b 1e 00 00       	jmp    8e4d <fail_code>

0000000000007002 <node338>:
    7002:	48 8d 05 c7 40 00 00 	lea    rax,[rip+0x40c7]        # b0d0 <__TMC_END__>
    7009:	c6 04 18 25          	mov    BYTE PTR [rax+rbx*1],0x25
    700d:	48 ff c3             	inc    rbx
    7010:	48 8d 3d f9 3f 00 00 	lea    rdi,[rip+0x3ff9]        # b010 <scanf_format>
    7017:	48 89 e6             	mov    rsi,rsp
    701a:	31 c0                	xor    eax,eax
    701c:	ff 15 ae 3f 00 00    	call   QWORD PTR [rip+0x3fae]        # afd0 <scanf@GLIBC_2.2.5>
    7022:	48 8b 04 24          	mov    rax,QWORD PTR [rsp]
    7026:	48 3d a0 01 00 00    	cmp    rax,0x1a0
    702c:	0f 84 06 15 00 00    	je     8538 <node416>
    7032:	48 3d e6 00 00 00    	cmp    rax,0xe6
    7038:	0f 84 98 e0 ff ff    	je     50d6 <node230>
    703e:	48 83 f8 0f          	cmp    rax,0xf
    7042:	0f 84 5b a5 ff ff    	je     15a3 <node15>
    7048:	48 3d 81 00 00 00    	cmp    rax,0x81
    704e:	0f 84 59 c2 ff ff    	je     32ad <node129>
    7054:	48 3d a3 01 00 00    	cmp    rax,0x1a3
    705a:	0f 84 bb 15 00 00    	je     861b <node419>
    7060:	48 83 f8 1e          	cmp    rax,0x1e
    7064:	0f 84 34 a9 ff ff    	je     199e <node30>
    706a:	e9 de 1d 00 00       	jmp    8e4d <fail_code>

000000000000706f <node339>:
    706f:	48 8d 05 5a 40 00 00 	lea    rax,[rip+0x405a]        # b0d0 <__TMC_END__>
    7076:	c6 04 18 4c          	mov    BYTE PTR [rax+rbx*1],0x4c
    707a:	48 ff c3             	inc    rbx
    707d:	48 8d 3d 8c 3f 00 00 	lea    rdi,[rip+0x3f8c]        # b010 <scanf_format>
    7084:	48 89 e6             	mov    rsi,rsp
    7087:	31 c0                	xor    eax,eax
    7089:	ff 15 41 3f 00 00    	call   QWORD PTR [rip+0x3f41]        # afd0 <scanf@GLIBC_2.2.5>
    708f:	48 8b 04 24          	mov    rax,QWORD PTR [rsp]
    7093:	48 3d c6 00 00 00    	cmp    rax,0xc6
    7099:	0f 84 1f d6 ff ff    	je     46be <node198>
    709f:	48 3d b0 01 00 00    	cmp    rax,0x1b0
    70a5:	0f 84 d7 17 00 00    	je     8882 <node432>
    70ab:	48 3d 9f 00 00 00    	cmp    rax,0x9f
    70b1:	0f 84 12 cc ff ff    	je     3cc9 <node159>
    70b7:	48 83 f8 01          	cmp    rax,0x1
    70bb:	0f 84 d4 a0 ff ff    	je     1195 <node1>
    70c1:	48 3d 1d 01 00 00    	cmp    rax,0x11d
    70c7:	0f 84 00 f1 ff ff    	je     61cd <node285>
    70cd:	e9 7b 1d 00 00       	jmp    8e4d <fail_code>

00000000000070d2 <node340>:
    70d2:	48 8d 05 f7 3f 00 00 	lea    rax,[rip+0x3ff7]        # b0d0 <__TMC_END__>
    70d9:	c6 04 18 2c          	mov    BYTE PTR [rax+rbx*1],0x2c
    70dd:	48 ff c3             	inc    rbx
    70e0:	e9 68 1d 00 00       	jmp    8e4d <fail_code>

00000000000070e5 <node341>:
    70e5:	48 8d 05 e4 3f 00 00 	lea    rax,[rip+0x3fe4]        # b0d0 <__TMC_END__>
    70ec:	c6 04 18 68          	mov    BYTE PTR [rax+rbx*1],0x68
    70f0:	48 ff c3             	inc    rbx
    70f3:	48 8d 3d 16 3f 00 00 	lea    rdi,[rip+0x3f16]        # b010 <scanf_format>
    70fa:	48 89 e6             	mov    rsi,rsp
    70fd:	31 c0                	xor    eax,eax
    70ff:	ff 15 cb 3e 00 00    	call   QWORD PTR [rip+0x3ecb]        # afd0 <scanf@GLIBC_2.2.5>
    7105:	48 8b 04 24          	mov    rax,QWORD PTR [rsp]
    7109:	48 3d fd 00 00 00    	cmp    rax,0xfd
    710f:	0f 84 4a e7 ff ff    	je     585f <node253>
    7115:	48 3d b2 00 00 00    	cmp    rax,0xb2
    711b:	0f 84 65 d0 ff ff    	je     4186 <node178>
    7121:	e9 27 1d 00 00       	jmp    8e4d <fail_code>

0000000000007126 <node342>:
    7126:	48 8d 05 a3 3f 00 00 	lea    rax,[rip+0x3fa3]        # b0d0 <__TMC_END__>
    712d:	c6 04 18 2f          	mov    BYTE PTR [rax+rbx*1],0x2f
    7131:	48 ff c3             	inc    rbx
    7134:	48 8d 3d d5 3e 00 00 	lea    rdi,[rip+0x3ed5]        # b010 <scanf_format>
    713b:	48 89 e6             	mov    rsi,rsp
    713e:	31 c0                	xor    eax,eax
    7140:	ff 15 8a 3e 00 00    	call   QWORD PTR [rip+0x3e8a]        # afd0 <scanf@GLIBC_2.2.5>
    7146:	48 8b 04 24          	mov    rax,QWORD PTR [rsp]
    714a:	48 3d 81 00 00 00    	cmp    rax,0x81
    7150:	0f 84 57 c1 ff ff    	je     32ad <node129>
    7156:	48 83 f8 62          	cmp    rax,0x62
    715a:	0f 84 32 b9 ff ff    	je     2a92 <node98>
    7160:	e9 e8 1c 00 00       	jmp    8e4d <fail_code>

0000000000007165 <node343>:
    7165:	48 8d 05 64 3f 00 00 	lea    rax,[rip+0x3f64]        # b0d0 <__TMC_END__>
    716c:	c6 04 18 7c          	mov    BYTE PTR [rax+rbx*1],0x7c
    7170:	48 ff c3             	inc    rbx
    7173:	48 8d 3d 96 3e 00 00 	lea    rdi,[rip+0x3e96]        # b010 <scanf_format>
    717a:	48 89 e6             	mov    rsi,rsp
    717d:	31 c0                	xor    eax,eax
    717f:	ff 15 4b 3e 00 00    	call   QWORD PTR [rip+0x3e4b]        # afd0 <scanf@GLIBC_2.2.5>
    7185:	48 8b 04 24          	mov    rax,QWORD PTR [rsp]
    7189:	48 3d 1f 01 00 00    	cmp    rax,0x11f
    718f:	0f 84 f4 f0 ff ff    	je     6289 <node287>
    7195:	48 83 f8 0f          	cmp    rax,0xf
    7199:	0f 84 04 a4 ff ff    	je     15a3 <node15>
    719f:	48 3d 89 01 00 00    	cmp    rax,0x189
    71a5:	0f 84 24 0d 00 00    	je     7ecf <node393>
    71ab:	e9 9d 1c 00 00       	jmp    8e4d <fail_code>

00000000000071b0 <node344>:
    71b0:	48 8d 05 19 3f 00 00 	lea    rax,[rip+0x3f19]        # b0d0 <__TMC_END__>
    71b7:	c6 04 18 65          	mov    BYTE PTR [rax+rbx*1],0x65
    71bb:	48 ff c3             	inc    rbx
    71be:	48 8d 3d 4b 3e 00 00 	lea    rdi,[rip+0x3e4b]        # b010 <scanf_format>
    71c5:	48 89 e6             	mov    rsi,rsp
    71c8:	31 c0                	xor    eax,eax
    71ca:	ff 15 00 3e 00 00    	call   QWORD PTR [rip+0x3e00]        # afd0 <scanf@GLIBC_2.2.5>
    71d0:	48 8b 04 24          	mov    rax,QWORD PTR [rsp]
    71d4:	48 3d fe 00 00 00    	cmp    rax,0xfe
    71da:	0f 84 c0 e6 ff ff    	je     58a0 <node254>
    71e0:	48 3d 60 01 00 00    	cmp    rax,0x160
    71e6:	0f 84 a4 01 00 00    	je     7390 <node352>
    71ec:	48 83 f8 45          	cmp    rax,0x45
    71f0:	0f 84 99 b1 ff ff    	je     238f <node69>
    71f6:	e9 52 1c 00 00       	jmp    8e4d <fail_code>

00000000000071fb <node345>:
    71fb:	48 8d 05 ce 3e 00 00 	lea    rax,[rip+0x3ece]        # b0d0 <__TMC_END__>
    7202:	c6 04 18 23          	mov    BYTE PTR [rax+rbx*1],0x23
    7206:	48 ff c3             	inc    rbx
    7209:	48 8d 3d 00 3e 00 00 	lea    rdi,[rip+0x3e00]        # b010 <scanf_format>
    7210:	48 89 e6             	mov    rsi,rsp
    7213:	31 c0                	xor    eax,eax
    7215:	ff 15 b5 3d 00 00    	call   QWORD PTR [rip+0x3db5]        # afd0 <scanf@GLIBC_2.2.5>
    721b:	48 8b 04 24          	mov    rax,QWORD PTR [rsp]
    721f:	48 3d ba 00 00 00    	cmp    rax,0xba
    7225:	0f 84 15 d1 ff ff    	je     4340 <node186>
    722b:	48 3d ee 00 00 00    	cmp    rax,0xee
    7231:	0f 84 75 e0 ff ff    	je     52ac <node238>
    7237:	48 3d 16 01 00 00    	cmp    rax,0x116
    723d:	0f 84 01 ed ff ff    	je     5f44 <node278>
    7243:	48 3d 17 01 00 00    	cmp    rax,0x117
    7249:	0f 84 40 ed ff ff    	je     5f8f <node279>
    724f:	48 83 f8 09          	cmp    rax,0x9
    7253:	0f 84 90 a1 ff ff    	je     13e9 <node9>
    7259:	48 3d e7 00 00 00    	cmp    rax,0xe7
    725f:	0f 84 b2 de ff ff    	je     5117 <node231>
    7265:	48 3d 3b 01 00 00    	cmp    rax,0x13b
    726b:	0f 84 68 f7 ff ff    	je     69d9 <node315>
    7271:	e9 d7 1b 00 00       	jmp    8e4d <fail_code>

0000000000007276 <node346>:
    7276:	48 8d 05 53 3e 00 00 	lea    rax,[rip+0x3e53]        # b0d0 <__TMC_END__>
    727d:	c6 04 18 2b          	mov    BYTE PTR [rax+rbx*1],0x2b
    7281:	48 ff c3             	inc    rbx
    7284:	48 8d 3d 85 3d 00 00 	lea    rdi,[rip+0x3d85]        # b010 <scanf_format>
    728b:	48 89 e6             	mov    rsi,rsp
    728e:	31 c0                	xor    eax,eax
    7290:	ff 15 3a 3d 00 00    	call   QWORD PTR [rip+0x3d3a]        # afd0 <scanf@GLIBC_2.2.5>
    7296:	48 8b 04 24          	mov    rax,QWORD PTR [rsp]
    729a:	48 83 f8 6c          	cmp    rax,0x6c
    729e:	0f 84 0e ba ff ff    	je     2cb2 <node108>
    72a4:	48 83 f8 59          	cmp    rax,0x59
    72a8:	0f 84 f5 b5 ff ff    	je     28a3 <node89>
    72ae:	e9 9a 1b 00 00       	jmp    8e4d <fail_code>

00000000000072b3 <node347>:
    72b3:	48 8d 05 16 3e 00 00 	lea    rax,[rip+0x3e16]        # b0d0 <__TMC_END__>
    72ba:	c6 04 18 28          	mov    BYTE PTR [rax+rbx*1],0x28
    72be:	48 ff c3             	inc    rbx
    72c1:	e9 87 1b 00 00       	jmp    8e4d <fail_code>

00000000000072c6 <node348>:
    72c6:	48 8d 05 03 3e 00 00 	lea    rax,[rip+0x3e03]        # b0d0 <__TMC_END__>
    72cd:	c6 04 18 7a          	mov    BYTE PTR [rax+rbx*1],0x7a
    72d1:	48 ff c3             	inc    rbx
    72d4:	48 8d 3d 35 3d 00 00 	lea    rdi,[rip+0x3d35]        # b010 <scanf_format>
    72db:	48 89 e6             	mov    rsi,rsp
    72de:	31 c0                	xor    eax,eax
    72e0:	ff 15 ea 3c 00 00    	call   QWORD PTR [rip+0x3cea]        # afd0 <scanf@GLIBC_2.2.5>
    72e6:	48 8b 04 24          	mov    rax,QWORD PTR [rsp]
    72ea:	48 83 f8 42          	cmp    rax,0x42
    72ee:	0f 84 d0 af ff ff    	je     22c4 <node66>
    72f4:	48 3d 79 01 00 00    	cmp    rax,0x179
    72fa:	0f 84 85 07 00 00    	je     7a85 <node377>
    7300:	48 3d 95 01 00 00    	cmp    rax,0x195
    7306:	0f 84 39 0f 00 00    	je     8245 <node405>
    730c:	48 3d 87 01 00 00    	cmp    rax,0x187
    7312:	0f 84 21 0b 00 00    	je     7e39 <node391>
    7318:	48 3d 17 01 00 00    	cmp    rax,0x117
    731e:	0f 84 6b ec ff ff    	je     5f8f <node279>
    7324:	48 3d 61 01 00 00    	cmp    rax,0x161
    732a:	0f 84 b7 00 00 00    	je     73e7 <node353>
    7330:	e9 18 1b 00 00       	jmp    8e4d <fail_code>

0000000000007335 <node349>:
    7335:	48 8d 05 94 3d 00 00 	lea    rax,[rip+0x3d94]        # b0d0 <__TMC_END__>
    733c:	c6 04 18 77          	mov    BYTE PTR [rax+rbx*1],0x77
    7340:	48 ff c3             	inc    rbx
    7343:	48 8d 3d c6 3c 00 00 	lea    rdi,[rip+0x3cc6]        # b010 <scanf_format>
    734a:	48 89 e6             	mov    rsi,rsp
    734d:	31 c0                	xor    eax,eax
    734f:	ff 15 7b 3c 00 00    	call   QWORD PTR [rip+0x3c7b]        # afd0 <scanf@GLIBC_2.2.5>
    7355:	48 8b 04 24          	mov    rax,QWORD PTR [rsp]
    7359:	48 3d 88 00 00 00    	cmp    rax,0x88
    735f:	0f 84 47 c1 ff ff    	je     34ac <node136>
    7365:	e9 e3 1a 00 00       	jmp    8e4d <fail_code>

000000000000736a <node350>:
    736a:	48 8d 05 5f 3d 00 00 	lea    rax,[rip+0x3d5f]        # b0d0 <__TMC_END__>
    7371:	c6 04 18 0a          	mov    BYTE PTR [rax+rbx*1],0xa
    7375:	48 ff c3             	inc    rbx
    7378:	e9 d0 1a 00 00       	jmp    8e4d <fail_code>

000000000000737d <node351>:
    737d:	48 8d 05 4c 3d 00 00 	lea    rax,[rip+0x3d4c]        # b0d0 <__TMC_END__>
    7384:	c6 04 18 73          	mov    BYTE PTR [rax+rbx*1],0x73
    7388:	48 ff c3             	inc    rbx
    738b:	e9 bd 1a 00 00       	jmp    8e4d <fail_code>

0000000000007390 <node352>:
    7390:	48 8d 05 39 3d 00 00 	lea    rax,[rip+0x3d39]        # b0d0 <__TMC_END__>
    7397:	c6 04 18 5b          	mov    BYTE PTR [rax+rbx*1],0x5b
    739b:	48 ff c3             	inc    rbx
    739e:	48 8d 3d 6b 3c 00 00 	lea    rdi,[rip+0x3c6b]        # b010 <scanf_format>
    73a5:	48 89 e6             	mov    rsi,rsp
    73a8:	31 c0                	xor    eax,eax
    73aa:	ff 15 20 3c 00 00    	call   QWORD PTR [rip+0x3c20]        # afd0 <scanf@GLIBC_2.2.5>
    73b0:	48 8b 04 24          	mov    rax,QWORD PTR [rsp]
    73b4:	48 83 f8 2a          	cmp    rax,0x2a
    73b8:	0f 84 7a a9 ff ff    	je     1d38 <node42>
    73be:	48 3d e5 00 00 00    	cmp    rax,0xe5
    73c4:	0f 84 c1 dc ff ff    	je     508b <node229>
    73ca:	48 3d 3b 01 00 00    	cmp    rax,0x13b
    73d0:	0f 84 03 f6 ff ff    	je     69d9 <node315>
    73d6:	48 3d 5a 01 00 00    	cmp    rax,0x15a
    73dc:	0f 84 94 fe ff ff    	je     7276 <node346>
    73e2:	e9 66 1a 00 00       	jmp    8e4d <fail_code>

00000000000073e7 <node353>:
    73e7:	48 8d 05 e2 3c 00 00 	lea    rax,[rip+0x3ce2]        # b0d0 <__TMC_END__>
    73ee:	c6 04 18 39          	mov    BYTE PTR [rax+rbx*1],0x39
    73f2:	48 ff c3             	inc    rbx
    73f5:	48 8d 3d 14 3c 00 00 	lea    rdi,[rip+0x3c14]        # b010 <scanf_format>
    73fc:	48 89 e6             	mov    rsi,rsp
    73ff:	31 c0                	xor    eax,eax
    7401:	ff 15 c9 3b 00 00    	call   QWORD PTR [rip+0x3bc9]        # afd0 <scanf@GLIBC_2.2.5>
    7407:	48 8b 04 24          	mov    rax,QWORD PTR [rsp]
    740b:	48 3d 29 01 00 00    	cmp    rax,0x129
    7411:	0f 84 38 f1 ff ff    	je     654f <node297>
    7417:	48 3d 97 01 00 00    	cmp    rax,0x197
    741d:	0f 84 9a 0e 00 00    	je     82bd <node407>
    7423:	48 3d a8 00 00 00    	cmp    rax,0xa8
    7429:	0f 84 99 ca ff ff    	je     3ec8 <node168>
    742f:	e9 19 1a 00 00       	jmp    8e4d <fail_code>

0000000000007434 <node354>:
    7434:	48 8d 05 95 3c 00 00 	lea    rax,[rip+0x3c95]        # b0d0 <__TMC_END__>
    743b:	c6 04 18 2b          	mov    BYTE PTR [rax+rbx*1],0x2b
    743f:	48 ff c3             	inc    rbx
    7442:	48 8d 3d c7 3b 00 00 	lea    rdi,[rip+0x3bc7]        # b010 <scanf_format>
    7449:	48 89 e6             	mov    rsi,rsp
    744c:	31 c0                	xor    eax,eax
    744e:	ff 15 7c 3b 00 00    	call   QWORD PTR [rip+0x3b7c]        # afd0 <scanf@GLIBC_2.2.5>
    7454:	48 8b 04 24          	mov    rax,QWORD PTR [rsp]
    7458:	48 83 f8 0f          	cmp    rax,0xf
    745c:	0f 84 41 a1 ff ff    	je     15a3 <node15>
    7462:	48 83 f8 16          	cmp    rax,0x16
    7466:	0f 84 30 a3 ff ff    	je     179c <node22>
    746c:	48 3d 37 01 00 00    	cmp    rax,0x137
    7472:	0f 84 53 f4 ff ff    	je     68cb <node311>
    7478:	48 3d 6d 01 00 00    	cmp    rax,0x16d
    747e:	0f 84 7f 03 00 00    	je     7803 <node365>
    7484:	48 83 f8 5b          	cmp    rax,0x5b
    7488:	0f 84 3b b4 ff ff    	je     28c9 <node91>
    748e:	e9 ba 19 00 00       	jmp    8e4d <fail_code>

0000000000007493 <node355>:
    7493:	48 8d 05 36 3c 00 00 	lea    rax,[rip+0x3c36]        # b0d0 <__TMC_END__>
    749a:	c6 04 18 3c          	mov    BYTE PTR [rax+rbx*1],0x3c
    749e:	48 ff c3             	inc    rbx
    74a1:	48 8d 3d 68 3b 00 00 	lea    rdi,[rip+0x3b68]        # b010 <scanf_format>
    74a8:	48 89 e6             	mov    rsi,rsp
    74ab:	31 c0                	xor    eax,eax
    74ad:	ff 15 1d 3b 00 00    	call   QWORD PTR [rip+0x3b1d]        # afd0 <scanf@GLIBC_2.2.5>
    74b3:	48 8b 04 24          	mov    rax,QWORD PTR [rsp]
    74b7:	48 3d b1 00 00 00    	cmp    rax,0xb1
    74bd:	0f 84 84 cc ff ff    	je     4147 <node177>
    74c3:	48 3d 6c 01 00 00    	cmp    rax,0x16c
    74c9:	0f 84 f3 02 00 00    	je     77c2 <node364>
    74cf:	48 3d 1c 01 00 00    	cmp    rax,0x11c
    74d5:	0f 84 b3 ec ff ff    	je     618e <node284>
    74db:	48 3d 2c 01 00 00    	cmp    rax,0x12c
    74e1:	0f 84 e3 f0 ff ff    	je     65ca <node300>
    74e7:	e9 61 19 00 00       	jmp    8e4d <fail_code>

00000000000074ec <node356>:
    74ec:	48 8d 05 dd 3b 00 00 	lea    rax,[rip+0x3bdd]        # b0d0 <__TMC_END__>
    74f3:	c6 04 18 2e          	mov    BYTE PTR [rax+rbx*1],0x2e
    74f7:	48 ff c3             	inc    rbx
    74fa:	48 8d 3d 0f 3b 00 00 	lea    rdi,[rip+0x3b0f]        # b010 <scanf_format>
    7501:	48 89 e6             	mov    rsi,rsp
    7504:	31 c0                	xor    eax,eax
    7506:	ff 15 c4 3a 00 00    	call   QWORD PTR [rip+0x3ac4]        # afd0 <scanf@GLIBC_2.2.5>
    750c:	48 8b 04 24          	mov    rax,QWORD PTR [rsp]
    7510:	48 83 f8 3b          	cmp    rax,0x3b
    7514:	0f 84 1d ac ff ff    	je     2137 <node59>
    751a:	48 3d b0 01 00 00    	cmp    rax,0x1b0
    7520:	0f 84 5c 13 00 00    	je     8882 <node432>
    7526:	48 83 f8 6b          	cmp    rax,0x6b
    752a:	0f 84 2b b7 ff ff    	je     2c5b <node107>
    7530:	48 3d ad 01 00 00    	cmp    rax,0x1ad
    7536:	0f 84 cb 12 00 00    	je     8807 <node429>
    753c:	e9 0c 19 00 00       	jmp    8e4d <fail_code>

0000000000007541 <node357>:
    7541:	48 8d 05 88 3b 00 00 	lea    rax,[rip+0x3b88]        # b0d0 <__TMC_END__>
    7548:	c6 04 18 39          	mov    BYTE PTR [rax+rbx*1],0x39
    754c:	48 ff c3             	inc    rbx
    754f:	48 8d 3d ba 3a 00 00 	lea    rdi,[rip+0x3aba]        # b010 <scanf_format>
    7556:	48 89 e6             	mov    rsi,rsp
    7559:	31 c0                	xor    eax,eax
    755b:	ff 15 6f 3a 00 00    	call   QWORD PTR [rip+0x3a6f]        # afd0 <scanf@GLIBC_2.2.5>
    7561:	48 8b 04 24          	mov    rax,QWORD PTR [rsp]
    7565:	48 3d 9c 00 00 00    	cmp    rax,0x9c
    756b:	0f 84 53 c6 ff ff    	je     3bc4 <node156>
    7571:	48 3d 73 01 00 00    	cmp    rax,0x173
    7577:	0f 84 32 04 00 00    	je     79af <node371>
    757d:	48 83 f8 2b          	cmp    rax,0x2b
    7581:	0f 84 c4 a7 ff ff    	je     1d4b <node43>
    7587:	e9 c1 18 00 00       	jmp    8e4d <fail_code>

000000000000758c <node358>:
    758c:	48 8d 05 3d 3b 00 00 	lea    rax,[rip+0x3b3d]        # b0d0 <__TMC_END__>
    7593:	c6 04 18 3c          	mov    BYTE PTR [rax+rbx*1],0x3c
    7597:	48 ff c3             	inc    rbx
    759a:	48 8d 3d 6f 3a 00 00 	lea    rdi,[rip+0x3a6f]        # b010 <scanf_format>
    75a1:	48 89 e6             	mov    rsi,rsp
    75a4:	31 c0                	xor    eax,eax
    75a6:	ff 15 24 3a 00 00    	call   QWORD PTR [rip+0x3a24]        # afd0 <scanf@GLIBC_2.2.5>
    75ac:	48 8b 04 24          	mov    rax,QWORD PTR [rsp]
    75b0:	48 3d a0 00 00 00    	cmp    rax,0xa0
    75b6:	0f 84 4c c7 ff ff    	je     3d08 <node160>
    75bc:	48 3d 1c 01 00 00    	cmp    rax,0x11c
    75c2:	0f 84 c6 eb ff ff    	je     618e <node284>
    75c8:	48 83 f8 34          	cmp    rax,0x34
    75cc:	0f 84 70 a9 ff ff    	je     1f42 <node52>
    75d2:	48 3d 88 01 00 00    	cmp    rax,0x188
    75d8:	0f 84 bc 08 00 00    	je     7e9a <node392>
    75de:	48 3d ff 00 00 00    	cmp    rax,0xff
    75e4:	0f 84 eb e2 ff ff    	je     58d5 <node255>
    75ea:	48 3d a5 00 00 00    	cmp    rax,0xa5
    75f0:	0f 84 09 c8 ff ff    	je     3dff <node165>
    75f6:	48 83 f8 6f          	cmp    rax,0x6f
    75fa:	0f 84 81 b7 ff ff    	je     2d81 <node111>
    7600:	48 83 f8 49          	cmp    rax,0x49
    7604:	0f 84 8f ae ff ff    	je     2499 <node73>
    760a:	48 3d 8f 00 00 00    	cmp    rax,0x8f
    7610:	0f 84 e1 c0 ff ff    	je     36f7 <node143>
    7616:	48 3d 6d 01 00 00    	cmp    rax,0x16d
    761c:	0f 84 e1 01 00 00    	je     7803 <node365>
    7622:	e9 26 18 00 00       	jmp    8e4d <fail_code>

0000000000007627 <node359>:
    7627:	48 8d 05 a2 3a 00 00 	lea    rax,[rip+0x3aa2]        # b0d0 <__TMC_END__>
    762e:	c6 04 18 35          	mov    BYTE PTR [rax+rbx*1],0x35
    7632:	48 ff c3             	inc    rbx
    7635:	48 8d 3d d4 39 00 00 	lea    rdi,[rip+0x39d4]        # b010 <scanf_format>
    763c:	48 89 e6             	mov    rsi,rsp
    763f:	31 c0                	xor    eax,eax
    7641:	ff 15 89 39 00 00    	call   QWORD PTR [rip+0x3989]        # afd0 <scanf@GLIBC_2.2.5>
    7647:	48 8b 04 24          	mov    rax,QWORD PTR [rsp]
    764b:	48 3d 82 01 00 00    	cmp    rax,0x182
    7651:	0f 84 a3 06 00 00    	je     7cfa <node386>
    7657:	48 3d e1 00 00 00    	cmp    rax,0xe1
    765d:	0f 84 4a d9 ff ff    	je     4fad <node225>
    7663:	e9 e5 17 00 00       	jmp    8e4d <fail_code>

0000000000007668 <node360>:
    7668:	48 8d 05 61 3a 00 00 	lea    rax,[rip+0x3a61]        # b0d0 <__TMC_END__>
    766f:	c6 04 18 35          	mov    BYTE PTR [rax+rbx*1],0x35
    7673:	48 ff c3             	inc    rbx
    7676:	48 8d 3d 93 39 00 00 	lea    rdi,[rip+0x3993]        # b010 <scanf_format>
    767d:	48 89 e6             	mov    rsi,rsp
    7680:	31 c0                	xor    eax,eax
    7682:	ff 15 48 39 00 00    	call   QWORD PTR [rip+0x3948]        # afd0 <scanf@GLIBC_2.2.5>
    7688:	48 8b 04 24          	mov    rax,QWORD PTR [rsp]
    768c:	48 3d a4 01 00 00    	cmp    rax,0x1a4
    7692:	0f 84 96 0f 00 00    	je     862e <node420>
    7698:	e9 b0 17 00 00       	jmp    8e4d <fail_code>

000000000000769d <node361>:
    769d:	48 8d 05 2c 3a 00 00 	lea    rax,[rip+0x3a2c]        # b0d0 <__TMC_END__>
    76a4:	c6 04 18 57          	mov    BYTE PTR [rax+rbx*1],0x57
    76a8:	48 ff c3             	inc    rbx
    76ab:	48 8d 3d 5e 39 00 00 	lea    rdi,[rip+0x395e]        # b010 <scanf_format>
    76b2:	48 89 e6             	mov    rsi,rsp
    76b5:	31 c0                	xor    eax,eax
    76b7:	ff 15 13 39 00 00    	call   QWORD PTR [rip+0x3913]        # afd0 <scanf@GLIBC_2.2.5>
    76bd:	48 8b 04 24          	mov    rax,QWORD PTR [rsp]
    76c1:	48 83 f8 15          	cmp    rax,0x15
    76c5:	0f 84 88 a0 ff ff    	je     1753 <node21>
    76cb:	48 83 f8 2c          	cmp    rax,0x2c
    76cf:	0f 84 89 a6 ff ff    	je     1d5e <node44>
    76d5:	48 3d b8 00 00 00    	cmp    rax,0xb8
    76db:	0f 84 0d cc ff ff    	je     42ee <node184>
    76e1:	48 3d 2a 01 00 00    	cmp    rax,0x12a
    76e7:	0f 84 97 ee ff ff    	je     6584 <node298>
    76ed:	48 3d 1b 01 00 00    	cmp    rax,0x11b
    76f3:	0f 84 54 ea ff ff    	je     614d <node283>
    76f9:	48 3d 85 01 00 00    	cmp    rax,0x185
    76ff:	0f 84 84 06 00 00    	je     7d89 <node389>
    7705:	48 83 f8 5b          	cmp    rax,0x5b
    7709:	0f 84 ba b1 ff ff    	je     28c9 <node91>
    770f:	48 3d 11 01 00 00    	cmp    rax,0x111
    7715:	0f 84 94 e6 ff ff    	je     5daf <node273>
    771b:	48 3d 53 01 00 00    	cmp    rax,0x153
    7721:	0f 84 48 f9 ff ff    	je     706f <node339>
    7727:	e9 21 17 00 00       	jmp    8e4d <fail_code>

000000000000772c <node362>:
    772c:	48 8d 05 9d 39 00 00 	lea    rax,[rip+0x399d]        # b0d0 <__TMC_END__>
    7733:	c6 04 18 6c          	mov    BYTE PTR [rax+rbx*1],0x6c
    7737:	48 ff c3             	inc    rbx
    773a:	48 8d 3d cf 38 00 00 	lea    rdi,[rip+0x38cf]        # b010 <scanf_format>
    7741:	48 89 e6             	mov    rsi,rsp
    7744:	31 c0                	xor    eax,eax
    7746:	ff 15 84 38 00 00    	call   QWORD PTR [rip+0x3884]        # afd0 <scanf@GLIBC_2.2.5>
    774c:	48 8b 04 24          	mov    rax,QWORD PTR [rsp]
    7750:	48 3d 58 01 00 00    	cmp    rax,0x158
    7756:	0f 84 54 fa ff ff    	je     71b0 <node344>
    775c:	48 3d a4 01 00 00    	cmp    rax,0x1a4
    7762:	0f 84 c6 0e 00 00    	je     862e <node420>
    7768:	e9 e0 16 00 00       	jmp    8e4d <fail_code>

000000000000776d <node363>:
    776d:	48 8d 05 5c 39 00 00 	lea    rax,[rip+0x395c]        # b0d0 <__TMC_END__>
    7774:	c6 04 18 77          	mov    BYTE PTR [rax+rbx*1],0x77
    7778:	48 ff c3             	inc    rbx
    777b:	48 8d 3d 8e 38 00 00 	lea    rdi,[rip+0x388e]        # b010 <scanf_format>
    7782:	48 89 e6             	mov    rsi,rsp
    7785:	31 c0                	xor    eax,eax
    7787:	ff 15 43 38 00 00    	call   QWORD PTR [rip+0x3843]        # afd0 <scanf@GLIBC_2.2.5>
    778d:	48 8b 04 24          	mov    rax,QWORD PTR [rsp]
    7791:	48 83 f8 42          	cmp    rax,0x42
    7795:	0f 84 29 ab ff ff    	je     22c4 <node66>
    779b:	48 83 f8 41          	cmp    rax,0x41
    779f:	0f 84 ea aa ff ff    	je     228f <node65>
    77a5:	48 3d 84 00 00 00    	cmp    rax,0x84
    77ab:	0f 84 e3 bb ff ff    	je     3394 <node132>
    77b1:	48 3d 80 00 00 00    	cmp    rax,0x80
    77b7:	0f 84 dd ba ff ff    	je     329a <node128>
    77bd:	e9 8b 16 00 00       	jmp    8e4d <fail_code>

00000000000077c2 <node364>:
    77c2:	48 8d 05 07 39 00 00 	lea    rax,[rip+0x3907]        # b0d0 <__TMC_END__>
    77c9:	c6 04 18 0b          	mov    BYTE PTR [rax+rbx*1],0xb
    77cd:	48 ff c3             	inc    rbx
    77d0:	48 8d 3d 39 38 00 00 	lea    rdi,[rip+0x3839]        # b010 <scanf_format>
    77d7:	48 89 e6             	mov    rsi,rsp
    77da:	31 c0                	xor    eax,eax
    77dc:	ff 15 ee 37 00 00    	call   QWORD PTR [rip+0x37ee]        # afd0 <scanf@GLIBC_2.2.5>
    77e2:	48 8b 04 24          	mov    rax,QWORD PTR [rsp]
    77e6:	48 3d 49 01 00 00    	cmp    rax,0x149
    77ec:	0f 84 f3 f5 ff ff    	je     6de5 <node329>
    77f2:	48 3d 0b 01 00 00    	cmp    rax,0x10b
    77f8:	0f 84 e5 e3 ff ff    	je     5be3 <node267>
    77fe:	e9 4a 16 00 00       	jmp    8e4d <fail_code>

0000000000007803 <node365>:
    7803:	48 8d 05 c6 38 00 00 	lea    rax,[rip+0x38c6]        # b0d0 <__TMC_END__>
    780a:	c6 04 18 7c          	mov    BYTE PTR [rax+rbx*1],0x7c
    780e:	48 ff c3             	inc    rbx
    7811:	48 8d 3d f8 37 00 00 	lea    rdi,[rip+0x37f8]        # b010 <scanf_format>
    7818:	48 89 e6             	mov    rsi,rsp
    781b:	31 c0                	xor    eax,eax
    781d:	ff 15 ad 37 00 00    	call   QWORD PTR [rip+0x37ad]        # afd0 <scanf@GLIBC_2.2.5>
    7823:	48 8b 04 24          	mov    rax,QWORD PTR [rsp]
    7827:	48 3d ab 00 00 00    	cmp    rax,0xab
    782d:	0f 84 7e c7 ff ff    	je     3fb1 <node171>
    7833:	48 3d c0 00 00 00    	cmp    rax,0xc0
    7839:	0f 84 d9 cc ff ff    	je     4518 <node192>
    783f:	48 3d 97 01 00 00    	cmp    rax,0x197
    7845:	0f 84 72 0a 00 00    	je     82bd <node407>
    784b:	48 3d a2 00 00 00    	cmp    rax,0xa2
    7851:	0f 84 11 c5 ff ff    	je     3d68 <node162>
    7857:	e9 f1 15 00 00       	jmp    8e4d <fail_code>

000000000000785c <node366>:
    785c:	48 8d 05 6d 38 00 00 	lea    rax,[rip+0x386d]        # b0d0 <__TMC_END__>
    7863:	c6 04 18 68          	mov    BYTE PTR [rax+rbx*1],0x68
    7867:	48 ff c3             	inc    rbx
    786a:	48 8d 3d 9f 37 00 00 	lea    rdi,[rip+0x379f]        # b010 <scanf_format>
    7871:	48 89 e6             	mov    rsi,rsp
    7874:	31 c0                	xor    eax,eax
    7876:	ff 15 54 37 00 00    	call   QWORD PTR [rip+0x3754]        # afd0 <scanf@GLIBC_2.2.5>
    787c:	48 8b 04 24          	mov    rax,QWORD PTR [rsp]
    7880:	48 3d 34 01 00 00    	cmp    rax,0x134
    7886:	0f 84 6e ef ff ff    	je     67fa <node308>
    788c:	48 83 f8 3f          	cmp    rax,0x3f
    7890:	0f 84 d3 a9 ff ff    	je     2269 <node63>
    7896:	e9 b2 15 00 00       	jmp    8e4d <fail_code>

000000000000789b <node367>:
    789b:	48 8d 05 2e 38 00 00 	lea    rax,[rip+0x382e]        # b0d0 <__TMC_END__>
    78a2:	c6 04 18 6b          	mov    BYTE PTR [rax+rbx*1],0x6b
    78a6:	48 ff c3             	inc    rbx
    78a9:	48 8d 3d 60 37 00 00 	lea    rdi,[rip+0x3760]        # b010 <scanf_format>
    78b0:	48 89 e6             	mov    rsi,rsp
    78b3:	31 c0                	xor    eax,eax
    78b5:	ff 15 15 37 00 00    	call   QWORD PTR [rip+0x3715]        # afd0 <scanf@GLIBC_2.2.5>
    78bb:	48 8b 04 24          	mov    rax,QWORD PTR [rsp]
    78bf:	48 83 f8 40          	cmp    rax,0x40
    78c3:	0f 84 b3 a9 ff ff    	je     227c <node64>
    78c9:	48 83 f8 53          	cmp    rax,0x53
    78cd:	0f 84 1e ae ff ff    	je     26f1 <node83>
    78d3:	48 3d 51 01 00 00    	cmp    rax,0x151
    78d9:	0f 84 10 f7 ff ff    	je     6fef <node337>
    78df:	e9 69 15 00 00       	jmp    8e4d <fail_code>

00000000000078e4 <node368>:
    78e4:	48 8d 05 e5 37 00 00 	lea    rax,[rip+0x37e5]        # b0d0 <__TMC_END__>
    78eb:	c6 04 18 66          	mov    BYTE PTR [rax+rbx*1],0x66
    78ef:	48 ff c3             	inc    rbx
    78f2:	48 8d 3d 17 37 00 00 	lea    rdi,[rip+0x3717]        # b010 <scanf_format>
    78f9:	48 89 e6             	mov    rsi,rsp
    78fc:	31 c0                	xor    eax,eax
    78fe:	ff 15 cc 36 00 00    	call   QWORD PTR [rip+0x36cc]        # afd0 <scanf@GLIBC_2.2.5>
    7904:	48 8b 04 24          	mov    rax,QWORD PTR [rsp]
    7908:	48 3d a0 01 00 00    	cmp    rax,0x1a0
    790e:	0f 84 24 0c 00 00    	je     8538 <node416>
    7914:	48 83 f8 66          	cmp    rax,0x66
    7918:	0f 84 46 b2 ff ff    	je     2b64 <node102>
    791e:	e9 2a 15 00 00       	jmp    8e4d <fail_code>

0000000000007923 <node369>:
    7923:	48 8d 05 a6 37 00 00 	lea    rax,[rip+0x37a6]        # b0d0 <__TMC_END__>
    792a:	c6 04 18 23          	mov    BYTE PTR [rax+rbx*1],0x23
    792e:	48 ff c3             	inc    rbx
    7931:	48 8d 3d d8 36 00 00 	lea    rdi,[rip+0x36d8]        # b010 <scanf_format>
    7938:	48 89 e6             	mov    rsi,rsp
    793b:	31 c0                	xor    eax,eax
    793d:	ff 15 8d 36 00 00    	call   QWORD PTR [rip+0x368d]        # afd0 <scanf@GLIBC_2.2.5>
    7943:	48 8b 04 24          	mov    rax,QWORD PTR [rsp]
    7947:	48 3d cc 00 00 00    	cmp    rax,0xcc
    794d:	0f 84 93 cf ff ff    	je     48e6 <node204>
    7953:	48 3d c6 00 00 00    	cmp    rax,0xc6
    7959:	0f 84 5f cd ff ff    	je     46be <node198>
    795f:	48 83 f8 49          	cmp    rax,0x49
    7963:	0f 84 30 ab ff ff    	je     2499 <node73>
    7969:	48 3d b1 01 00 00    	cmp    rax,0x1b1
    796f:	0f 84 20 0f 00 00    	je     8895 <node433>
    7975:	e9 d3 14 00 00       	jmp    8e4d <fail_code>

000000000000797a <node370>:
    797a:	48 8d 05 4f 37 00 00 	lea    rax,[rip+0x374f]        # b0d0 <__TMC_END__>
    7981:	c6 04 18 7d          	mov    BYTE PTR [rax+rbx*1],0x7d
    7985:	48 ff c3             	inc    rbx
    7988:	48 8d 3d 81 36 00 00 	lea    rdi,[rip+0x3681]        # b010 <scanf_format>
    798f:	48 89 e6             	mov    rsi,rsp
    7992:	31 c0                	xor    eax,eax
    7994:	ff 15 36 36 00 00    	call   QWORD PTR [rip+0x3636]        # afd0 <scanf@GLIBC_2.2.5>
    799a:	48 8b 04 24          	mov    rax,QWORD PTR [rsp]
    799e:	48 3d e6 00 00 00    	cmp    rax,0xe6
    79a4:	0f 84 2c d7 ff ff    	je     50d6 <node230>
    79aa:	e9 9e 14 00 00       	jmp    8e4d <fail_code>

00000000000079af <node371>:
    79af:	48 8d 05 1a 37 00 00 	lea    rax,[rip+0x371a]        # b0d0 <__TMC_END__>
    79b6:	c6 04 18 50          	mov    BYTE PTR [rax+rbx*1],0x50
    79ba:	48 ff c3             	inc    rbx
    79bd:	e9 8b 14 00 00       	jmp    8e4d <fail_code>

00000000000079c2 <node372>:
    79c2:	48 8d 05 07 37 00 00 	lea    rax,[rip+0x3707]        # b0d0 <__TMC_END__>
    79c9:	c6 04 18 57          	mov    BYTE PTR [rax+rbx*1],0x57
    79cd:	48 ff c3             	inc    rbx
    79d0:	e9 78 14 00 00       	jmp    8e4d <fail_code>

00000000000079d5 <node373>:
    79d5:	48 8d 05 f4 36 00 00 	lea    rax,[rip+0x36f4]        # b0d0 <__TMC_END__>
    79dc:	c6 04 18 28          	mov    BYTE PTR [rax+rbx*1],0x28
    79e0:	48 ff c3             	inc    rbx
    79e3:	e9 65 14 00 00       	jmp    8e4d <fail_code>

00000000000079e8 <node374>:
    79e8:	48 8d 05 e1 36 00 00 	lea    rax,[rip+0x36e1]        # b0d0 <__TMC_END__>
    79ef:	c6 04 18 45          	mov    BYTE PTR [rax+rbx*1],0x45
    79f3:	48 ff c3             	inc    rbx
    79f6:	48 8d 3d 13 36 00 00 	lea    rdi,[rip+0x3613]        # b010 <scanf_format>
    79fd:	48 89 e6             	mov    rsi,rsp
    7a00:	31 c0                	xor    eax,eax
    7a02:	ff 15 c8 35 00 00    	call   QWORD PTR [rip+0x35c8]        # afd0 <scanf@GLIBC_2.2.5>
    7a08:	48 8b 04 24          	mov    rax,QWORD PTR [rsp]
    7a0c:	48 83 f8 55          	cmp    rax,0x55
    7a10:	0f 84 5f ad ff ff    	je     2775 <node85>
    7a16:	48 3d ff 00 00 00    	cmp    rax,0xff
    7a1c:	0f 84 b3 de ff ff    	je     58d5 <node255>
    7a22:	48 3d 6d 01 00 00    	cmp    rax,0x16d
    7a28:	0f 84 d5 fd ff ff    	je     7803 <node365>
    7a2e:	48 3d 81 00 00 00    	cmp    rax,0x81
    7a34:	0f 84 73 b8 ff ff    	je     32ad <node129>
    7a3a:	e9 0e 14 00 00       	jmp    8e4d <fail_code>

0000000000007a3f <node375>:
    7a3f:	48 8d 05 8a 36 00 00 	lea    rax,[rip+0x368a]        # b0d0 <__TMC_END__>
    7a46:	c6 04 18 30          	mov    BYTE PTR [rax+rbx*1],0x30
    7a4a:	48 ff c3             	inc    rbx
    7a4d:	48 8d 3d bc 35 00 00 	lea    rdi,[rip+0x35bc]        # b010 <scanf_format>
    7a54:	48 89 e6             	mov    rsi,rsp
    7a57:	31 c0                	xor    eax,eax
    7a59:	ff 15 71 35 00 00    	call   QWORD PTR [rip+0x3571]        # afd0 <scanf@GLIBC_2.2.5>
    7a5f:	48 8b 04 24          	mov    rax,QWORD PTR [rsp]
    7a63:	48 83 f8 58          	cmp    rax,0x58
    7a67:	0f 84 01 ae ff ff    	je     286e <node88>
    7a6d:	e9 db 13 00 00       	jmp    8e4d <fail_code>

0000000000007a72 <node376>:
    7a72:	48 8d 05 57 36 00 00 	lea    rax,[rip+0x3657]        # b0d0 <__TMC_END__>
    7a79:	c6 04 18 30          	mov    BYTE PTR [rax+rbx*1],0x30
    7a7d:	48 ff c3             	inc    rbx
    7a80:	e9 c8 13 00 00       	jmp    8e4d <fail_code>

0000000000007a85 <node377>:
    7a85:	48 8d 05 44 36 00 00 	lea    rax,[rip+0x3644]        # b0d0 <__TMC_END__>
    7a8c:	c6 04 18 09          	mov    BYTE PTR [rax+rbx*1],0x9
    7a90:	48 ff c3             	inc    rbx
    7a93:	48 8d 3d 76 35 00 00 	lea    rdi,[rip+0x3576]        # b010 <scanf_format>
    7a9a:	48 89 e6             	mov    rsi,rsp
    7a9d:	31 c0                	xor    eax,eax
    7a9f:	ff 15 2b 35 00 00    	call   QWORD PTR [rip+0x352b]        # afd0 <scanf@GLIBC_2.2.5>
    7aa5:	48 8b 04 24          	mov    rax,QWORD PTR [rsp]
    7aa9:	48 3d 55 01 00 00    	cmp    rax,0x155
    7aaf:	0f 84 30 f6 ff ff    	je     70e5 <node341>
    7ab5:	48 3d dc 00 00 00    	cmp    rax,0xdc
    7abb:	0f 84 71 d3 ff ff    	je     4e32 <node220>
    7ac1:	48 3d e3 00 00 00    	cmp    rax,0xe3
    7ac7:	0f 84 3c d5 ff ff    	je     5009 <node227>
    7acd:	e9 7b 13 00 00       	jmp    8e4d <fail_code>

0000000000007ad2 <node378>:
    7ad2:	48 8d 05 f7 35 00 00 	lea    rax,[rip+0x35f7]        # b0d0 <__TMC_END__>
    7ad9:	c6 04 18 21          	mov    BYTE PTR [rax+rbx*1],0x21
    7add:	48 ff c3             	inc    rbx
    7ae0:	48 8d 3d 29 35 00 00 	lea    rdi,[rip+0x3529]        # b010 <scanf_format>
    7ae7:	48 89 e6             	mov    rsi,rsp
    7aea:	31 c0                	xor    eax,eax
    7aec:	ff 15 de 34 00 00    	call   QWORD PTR [rip+0x34de]        # afd0 <scanf@GLIBC_2.2.5>
    7af2:	48 8b 04 24          	mov    rax,QWORD PTR [rsp]
    7af6:	48 83 f8 59          	cmp    rax,0x59
    7afa:	0f 84 a3 ad ff ff    	je     28a3 <node89>
    7b00:	48 83 f8 3f          	cmp    rax,0x3f
    7b04:	0f 84 5f a7 ff ff    	je     2269 <node63>
    7b0a:	e9 3e 13 00 00       	jmp    8e4d <fail_code>

0000000000007b0f <node379>:
    7b0f:	48 8d 05 ba 35 00 00 	lea    rax,[rip+0x35ba]        # b0d0 <__TMC_END__>
    7b16:	c6 04 18 66          	mov    BYTE PTR [rax+rbx*1],0x66
    7b1a:	48 ff c3             	inc    rbx
    7b1d:	48 8d 3d ec 34 00 00 	lea    rdi,[rip+0x34ec]        # b010 <scanf_format>
    7b24:	48 89 e6             	mov    rsi,rsp
    7b27:	31 c0                	xor    eax,eax
    7b29:	ff 15 a1 34 00 00    	call   QWORD PTR [rip+0x34a1]        # afd0 <scanf@GLIBC_2.2.5>
    7b2f:	48 8b 04 24          	mov    rax,QWORD PTR [rsp]
    7b33:	48 3d 03 01 00 00    	cmp    rax,0x103
    7b39:	0f 84 5c de ff ff    	je     599b <node259>
    7b3f:	48 3d 7d 01 00 00    	cmp    rax,0x17d
    7b45:	74 42                	je     7b89 <node381>
    7b47:	e9 01 13 00 00       	jmp    8e4d <fail_code>

0000000000007b4c <node380>:
    7b4c:	48 8d 05 7d 35 00 00 	lea    rax,[rip+0x357d]        # b0d0 <__TMC_END__>
    7b53:	c6 04 18 51          	mov    BYTE PTR [rax+rbx*1],0x51
    7b57:	48 ff c3             	inc    rbx
    7b5a:	48 8d 3d af 34 00 00 	lea    rdi,[rip+0x34af]        # b010 <scanf_format>
    7b61:	48 89 e6             	mov    rsi,rsp
    7b64:	31 c0                	xor    eax,eax
    7b66:	ff 15 64 34 00 00    	call   QWORD PTR [rip+0x3464]        # afd0 <scanf@GLIBC_2.2.5>
    7b6c:	48 8b 04 24          	mov    rax,QWORD PTR [rsp]
    7b70:	48 83 f8 5a          	cmp    rax,0x5a
    7b74:	0f 84 3c ad ff ff    	je     28b6 <node90>
    7b7a:	48 83 f8 1a          	cmp    rax,0x1a
    7b7e:	0f 84 2e 9d ff ff    	je     18b2 <node26>
    7b84:	e9 c4 12 00 00       	jmp    8e4d <fail_code>

0000000000007b89 <node381>:
    7b89:	48 8d 05 40 35 00 00 	lea    rax,[rip+0x3540]        # b0d0 <__TMC_END__>
    7b90:	c6 04 18 75          	mov    BYTE PTR [rax+rbx*1],0x75
    7b94:	48 ff c3             	inc    rbx
    7b97:	48 8d 3d 72 34 00 00 	lea    rdi,[rip+0x3472]        # b010 <scanf_format>
    7b9e:	48 89 e6             	mov    rsi,rsp
    7ba1:	31 c0                	xor    eax,eax
    7ba3:	ff 15 27 34 00 00    	call   QWORD PTR [rip+0x3427]        # afd0 <scanf@GLIBC_2.2.5>
    7ba9:	48 8b 04 24          	mov    rax,QWORD PTR [rsp]
    7bad:	48 83 f8 1f          	cmp    rax,0x1f
    7bb1:	0f 84 fa 9d ff ff    	je     19b1 <node31>
    7bb7:	48 3d f9 00 00 00    	cmp    rax,0xf9
    7bbd:	0f 84 7a da ff ff    	je     563d <node249>
    7bc3:	48 3d 3f 01 00 00    	cmp    rax,0x13f
    7bc9:	0f 84 4e ef ff ff    	je     6b1d <node319>
    7bcf:	48 3d 8f 01 00 00    	cmp    rax,0x18f
    7bd5:	0f 84 ee 04 00 00    	je     80c9 <node399>
    7bdb:	e9 6d 12 00 00       	jmp    8e4d <fail_code>

0000000000007be0 <node382>:
    7be0:	48 8d 05 e9 34 00 00 	lea    rax,[rip+0x34e9]        # b0d0 <__TMC_END__>
    7be7:	c6 04 18 6d          	mov    BYTE PTR [rax+rbx*1],0x6d
    7beb:	48 ff c3             	inc    rbx
    7bee:	48 8d 3d 1b 34 00 00 	lea    rdi,[rip+0x341b]        # b010 <scanf_format>
    7bf5:	48 89 e6             	mov    rsi,rsp
    7bf8:	31 c0                	xor    eax,eax
    7bfa:	ff 15 d0 33 00 00    	call   QWORD PTR [rip+0x33d0]        # afd0 <scanf@GLIBC_2.2.5>
    7c00:	48 8b 04 24          	mov    rax,QWORD PTR [rsp]
    7c04:	48 3d cf 00 00 00    	cmp    rax,0xcf
    7c0a:	0f 84 95 cd ff ff    	je     49a5 <node207>
    7c10:	48 3d b4 01 00 00    	cmp    rax,0x1b4
    7c16:	0f 84 0c 0d 00 00    	je     8928 <node436>
    7c1c:	e9 2c 12 00 00       	jmp    8e4d <fail_code>

0000000000007c21 <node383>:
    7c21:	48 8d 05 a8 34 00 00 	lea    rax,[rip+0x34a8]        # b0d0 <__TMC_END__>
    7c28:	c6 04 18 3f          	mov    BYTE PTR [rax+rbx*1],0x3f
    7c2c:	48 ff c3             	inc    rbx
    7c2f:	48 8d 3d da 33 00 00 	lea    rdi,[rip+0x33da]        # b010 <scanf_format>
    7c36:	48 89 e6             	mov    rsi,rsp
    7c39:	31 c0                	xor    eax,eax
    7c3b:	ff 15 8f 33 00 00    	call   QWORD PTR [rip+0x338f]        # afd0 <scanf@GLIBC_2.2.5>
    7c41:	48 8b 04 24          	mov    rax,QWORD PTR [rsp]
    7c45:	48 3d 50 01 00 00    	cmp    rax,0x150
    7c4b:	0f 84 8b f3 ff ff    	je     6fdc <node336>
    7c51:	48 83 f8 76          	cmp    rax,0x76
    7c55:	0f 84 43 b3 ff ff    	je     2f9e <node118>
    7c5b:	48 3d 81 00 00 00    	cmp    rax,0x81
    7c61:	0f 84 46 b6 ff ff    	je     32ad <node129>
    7c67:	48 3d b3 01 00 00    	cmp    rax,0x1b3
    7c6d:	0f 84 a2 0c 00 00    	je     8915 <node435>
    7c73:	48 3d f7 00 00 00    	cmp    rax,0xf7
    7c79:	0f 84 34 d9 ff ff    	je     55b3 <node247>
    7c7f:	e9 c9 11 00 00       	jmp    8e4d <fail_code>

0000000000007c84 <node384>:
    7c84:	48 8d 05 45 34 00 00 	lea    rax,[rip+0x3445]        # b0d0 <__TMC_END__>
    7c8b:	c6 04 18 79          	mov    BYTE PTR [rax+rbx*1],0x79
    7c8f:	48 ff c3             	inc    rbx
    7c92:	48 8d 3d 77 33 00 00 	lea    rdi,[rip+0x3377]        # b010 <scanf_format>
    7c99:	48 89 e6             	mov    rsi,rsp
    7c9c:	31 c0                	xor    eax,eax
    7c9e:	ff 15 2c 33 00 00    	call   QWORD PTR [rip+0x332c]        # afd0 <scanf@GLIBC_2.2.5>
    7ca4:	48 8b 04 24          	mov    rax,QWORD PTR [rsp]
    7ca8:	48 3d 90 01 00 00    	cmp    rax,0x190
    7cae:	0f 84 68 04 00 00    	je     811c <node400>
    7cb4:	48 3d b6 00 00 00    	cmp    rax,0xb6
    7cba:	0f 84 b8 c5 ff ff    	je     4278 <node182>
    7cc0:	48 3d 9c 01 00 00    	cmp    rax,0x19c
    7cc6:	0f 84 7a 07 00 00    	je     8446 <node412>
    7ccc:	48 83 f8 04          	cmp    rax,0x4
    7cd0:	0f 84 b0 95 ff ff    	je     1286 <node4>
    7cd6:	48 3d 5b 01 00 00    	cmp    rax,0x15b
    7cdc:	0f 84 d1 f5 ff ff    	je     72b3 <node347>
    7ce2:	e9 66 11 00 00       	jmp    8e4d <fail_code>

0000000000007ce7 <node385>:
    7ce7:	48 8d 05 e2 33 00 00 	lea    rax,[rip+0x33e2]        # b0d0 <__TMC_END__>
    7cee:	c6 04 18 52          	mov    BYTE PTR [rax+rbx*1],0x52
    7cf2:	48 ff c3             	inc    rbx
    7cf5:	e9 53 11 00 00       	jmp    8e4d <fail_code>

0000000000007cfa <node386>:
    7cfa:	48 8d 05 cf 33 00 00 	lea    rax,[rip+0x33cf]        # b0d0 <__TMC_END__>
    7d01:	c6 04 18 34          	mov    BYTE PTR [rax+rbx*1],0x34
    7d05:	48 ff c3             	inc    rbx
    7d08:	e9 40 11 00 00       	jmp    8e4d <fail_code>

0000000000007d0d <node387>:
    7d0d:	48 8d 05 bc 33 00 00 	lea    rax,[rip+0x33bc]        # b0d0 <__TMC_END__>
    7d14:	c6 04 18 6d          	mov    BYTE PTR [rax+rbx*1],0x6d
    7d18:	48 ff c3             	inc    rbx
    7d1b:	48 8d 3d ee 32 00 00 	lea    rdi,[rip+0x32ee]        # b010 <scanf_format>
    7d22:	48 89 e6             	mov    rsi,rsp
    7d25:	31 c0                	xor    eax,eax
    7d27:	ff 15 a3 32 00 00    	call   QWORD PTR [rip+0x32a3]        # afd0 <scanf@GLIBC_2.2.5>
    7d2d:	48 8b 04 24          	mov    rax,QWORD PTR [rsp]
    7d31:	48 83 f8 5d          	cmp    rax,0x5d
    7d35:	0f 84 5a ac ff ff    	je     2995 <node93>
    7d3b:	48 83 f8 74          	cmp    rax,0x74
    7d3f:	0f 84 a1 b1 ff ff    	je     2ee6 <node116>
    7d45:	48 3d 43 01 00 00    	cmp    rax,0x143
    7d4b:	0f 84 7c ef ff ff    	je     6ccd <node323>
    7d51:	e9 f7 10 00 00       	jmp    8e4d <fail_code>

0000000000007d56 <node388>:
    7d56:	48 8d 05 73 33 00 00 	lea    rax,[rip+0x3373]        # b0d0 <__TMC_END__>
    7d5d:	c6 04 18 7c          	mov    BYTE PTR [rax+rbx*1],0x7c
    7d61:	48 ff c3             	inc    rbx
    7d64:	48 8d 3d a5 32 00 00 	lea    rdi,[rip+0x32a5]        # b010 <scanf_format>
    7d6b:	48 89 e6             	mov    rsi,rsp
    7d6e:	31 c0                	xor    eax,eax
    7d70:	ff 15 5a 32 00 00    	call   QWORD PTR [rip+0x325a]        # afd0 <scanf@GLIBC_2.2.5>
    7d76:	48 8b 04 24          	mov    rax,QWORD PTR [rsp]
    7d7a:	48 83 f8 64          	cmp    rax,0x64
    7d7e:	0f 84 6e ad ff ff    	je     2af2 <node100>
    7d84:	e9 c4 10 00 00       	jmp    8e4d <fail_code>

0000000000007d89 <node389>:
    7d89:	48 8d 05 40 33 00 00 	lea    rax,[rip+0x3340]        # b0d0 <__TMC_END__>
    7d90:	c6 04 18 27          	mov    BYTE PTR [rax+rbx*1],0x27
    7d94:	48 ff c3             	inc    rbx
    7d97:	48 8d 3d 72 32 00 00 	lea    rdi,[rip+0x3272]        # b010 <scanf_format>
    7d9e:	48 89 e6             	mov    rsi,rsp
    7da1:	31 c0                	xor    eax,eax
    7da3:	ff 15 27 32 00 00    	call   QWORD PTR [rip+0x3227]        # afd0 <scanf@GLIBC_2.2.5>
    7da9:	48 8b 04 24          	mov    rax,QWORD PTR [rsp]
    7dad:	48 3d 4c 01 00 00    	cmp    rax,0x14c
    7db3:	0f 84 19 f1 ff ff    	je     6ed2 <node332>
    7db9:	48 83 f8 1b          	cmp    rax,0x1b
    7dbd:	0f 84 02 9b ff ff    	je     18c5 <node27>
    7dc3:	48 3d 34 01 00 00    	cmp    rax,0x134
    7dc9:	0f 84 2b ea ff ff    	je     67fa <node308>
    7dcf:	48 3d 7c 01 00 00    	cmp    rax,0x17c
    7dd5:	0f 84 71 fd ff ff    	je     7b4c <node380>
    7ddb:	e9 6d 10 00 00       	jmp    8e4d <fail_code>

0000000000007de0 <node390>:
    7de0:	48 8d 05 e9 32 00 00 	lea    rax,[rip+0x32e9]        # b0d0 <__TMC_END__>
    7de7:	c6 04 18 2d          	mov    BYTE PTR [rax+rbx*1],0x2d
    7deb:	48 ff c3             	inc    rbx
    7dee:	48 8d 3d 1b 32 00 00 	lea    rdi,[rip+0x321b]        # b010 <scanf_format>
    7df5:	48 89 e6             	mov    rsi,rsp
    7df8:	31 c0                	xor    eax,eax
    7dfa:	ff 15 d0 31 00 00    	call   QWORD PTR [rip+0x31d0]        # afd0 <scanf@GLIBC_2.2.5>
    7e00:	48 8b 04 24          	mov    rax,QWORD PTR [rsp]
    7e04:	48 3d 4c 01 00 00    	cmp    rax,0x14c
    7e0a:	0f 84 c2 f0 ff ff    	je     6ed2 <node332>
    7e10:	48 3d da 00 00 00    	cmp    rax,0xda
    7e16:	0f 84 60 cf ff ff    	je     4d7c <node218>
    7e1c:	48 3d b1 00 00 00    	cmp    rax,0xb1
    7e22:	0f 84 1f c3 ff ff    	je     4147 <node177>
    7e28:	48 3d 5f 01 00 00    	cmp    rax,0x15f
    7e2e:	0f 84 49 f5 ff ff    	je     737d <node351>
    7e34:	e9 14 10 00 00       	jmp    8e4d <fail_code>

0000000000007e39 <node391>:
    7e39:	48 8d 05 90 32 00 00 	lea    rax,[rip+0x3290]        # b0d0 <__TMC_END__>
    7e40:	c6 04 18 41          	mov    BYTE PTR [rax+rbx*1],0x41
    7e44:	48 ff c3             	inc    rbx
    7e47:	48 8d 3d c2 31 00 00 	lea    rdi,[rip+0x31c2]        # b010 <scanf_format>
    7e4e:	48 89 e6             	mov    rsi,rsp
    7e51:	31 c0                	xor    eax,eax
    7e53:	ff 15 77 31 00 00    	call   QWORD PTR [rip+0x3177]        # afd0 <scanf@GLIBC_2.2.5>
    7e59:	48 8b 04 24          	mov    rax,QWORD PTR [rsp]
    7e5d:	48 83 f8 3e          	cmp    rax,0x3e
    7e61:	0f 84 cf a3 ff ff    	je     2236 <node62>
    7e67:	48 3d 90 00 00 00    	cmp    rax,0x90
    7e6d:	0f 84 cf b8 ff ff    	je     3742 <node144>
    7e73:	48 83 f8 78          	cmp    rax,0x78
    7e77:	0f 84 b5 b1 ff ff    	je     3032 <node120>
    7e7d:	48 3d 50 01 00 00    	cmp    rax,0x150
    7e83:	0f 84 53 f1 ff ff    	je     6fdc <node336>
    7e89:	48 3d 85 01 00 00    	cmp    rax,0x185
    7e8f:	0f 84 f4 fe ff ff    	je     7d89 <node389>
    7e95:	e9 b3 0f 00 00       	jmp    8e4d <fail_code>

0000000000007e9a <node392>:
    7e9a:	48 8d 05 2f 32 00 00 	lea    rax,[rip+0x322f]        # b0d0 <__TMC_END__>
    7ea1:	c6 04 18 32          	mov    BYTE PTR [rax+rbx*1],0x32
    7ea5:	48 ff c3             	inc    rbx
    7ea8:	48 8d 3d 61 31 00 00 	lea    rdi,[rip+0x3161]        # b010 <scanf_format>
    7eaf:	48 89 e6             	mov    rsi,rsp
    7eb2:	31 c0                	xor    eax,eax
    7eb4:	ff 15 16 31 00 00    	call   QWORD PTR [rip+0x3116]        # afd0 <scanf@GLIBC_2.2.5>
    7eba:	48 8b 04 24          	mov    rax,QWORD PTR [rsp]
    7ebe:	48 3d aa 00 00 00    	cmp    rax,0xaa
    7ec4:	0f 84 b4 c0 ff ff    	je     3f7e <node170>
    7eca:	e9 7e 0f 00 00       	jmp    8e4d <fail_code>

0000000000007ecf <node393>:
    7ecf:	48 8d 05 fa 31 00 00 	lea    rax,[rip+0x31fa]        # b0d0 <__TMC_END__>
    7ed6:	c6 04 18 74          	mov    BYTE PTR [rax+rbx*1],0x74
    7eda:	48 ff c3             	inc    rbx
    7edd:	48 8d 3d 2c 31 00 00 	lea    rdi,[rip+0x312c]        # b010 <scanf_format>
    7ee4:	48 89 e6             	mov    rsi,rsp
    7ee7:	31 c0                	xor    eax,eax
    7ee9:	ff 15 e1 30 00 00    	call   QWORD PTR [rip+0x30e1]        # afd0 <scanf@GLIBC_2.2.5>
    7eef:	48 8b 04 24          	mov    rax,QWORD PTR [rsp]
    7ef3:	48 3d f6 00 00 00    	cmp    rax,0xf6
    7ef9:	0f 84 7f d6 ff ff    	je     557e <node246>
    7eff:	48 83 f8 1b          	cmp    rax,0x1b
    7f03:	0f 84 bc 99 ff ff    	je     18c5 <node27>
    7f09:	48 3d bb 01 00 00    	cmp    rax,0x1bb
    7f0f:	0f 84 f8 0b 00 00    	je     8b0d <node443>
    7f15:	e9 33 0f 00 00       	jmp    8e4d <fail_code>

0000000000007f1a <node394>:
    7f1a:	48 8d 05 af 31 00 00 	lea    rax,[rip+0x31af]        # b0d0 <__TMC_END__>
    7f21:	c6 04 18 4d          	mov    BYTE PTR [rax+rbx*1],0x4d
    7f25:	48 ff c3             	inc    rbx
    7f28:	48 8d 3d e1 30 00 00 	lea    rdi,[rip+0x30e1]        # b010 <scanf_format>
    7f2f:	48 89 e6             	mov    rsi,rsp
    7f32:	31 c0                	xor    eax,eax
    7f34:	ff 15 96 30 00 00    	call   QWORD PTR [rip+0x3096]        # afd0 <scanf@GLIBC_2.2.5>
    7f3a:	48 8b 04 24          	mov    rax,QWORD PTR [rsp]
    7f3e:	48 83 f8 36          	cmp    rax,0x36
    7f42:	0f 84 70 a0 ff ff    	je     1fb8 <node54>
    7f48:	48 3d 1c 01 00 00    	cmp    rax,0x11c
    7f4e:	0f 84 3a e2 ff ff    	je     618e <node284>
    7f54:	e9 f4 0e 00 00       	jmp    8e4d <fail_code>

0000000000007f59 <node395>:
    7f59:	48 8d 05 70 31 00 00 	lea    rax,[rip+0x3170]        # b0d0 <__TMC_END__>
    7f60:	c6 04 18 43          	mov    BYTE PTR [rax+rbx*1],0x43
    7f64:	48 ff c3             	inc    rbx
    7f67:	48 8d 3d a2 30 00 00 	lea    rdi,[rip+0x30a2]        # b010 <scanf_format>
    7f6e:	48 89 e6             	mov    rsi,rsp
    7f71:	31 c0                	xor    eax,eax
    7f73:	ff 15 57 30 00 00    	call   QWORD PTR [rip+0x3057]        # afd0 <scanf@GLIBC_2.2.5>
    7f79:	48 8b 04 24          	mov    rax,QWORD PTR [rsp]
    7f7d:	48 3d 26 01 00 00    	cmp    rax,0x126
    7f83:	0f 84 c1 e4 ff ff    	je     644a <node294>
    7f89:	48 3d 14 01 00 00    	cmp    rax,0x114
    7f8f:	0f 84 4f df ff ff    	je     5ee4 <node276>
    7f95:	48 3d 8a 01 00 00    	cmp    rax,0x18a
    7f9b:	0f 84 79 ff ff ff    	je     7f1a <node394>
    7fa1:	48 3d a6 00 00 00    	cmp    rax,0xa6
    7fa7:	0f 84 91 be ff ff    	je     3e3e <node166>
    7fad:	48 3d b6 01 00 00    	cmp    rax,0x1b6
    7fb3:	0f 84 13 0a 00 00    	je     89cc <node438>
    7fb9:	48 83 f8 61          	cmp    rax,0x61
    7fbd:	0f 84 9a aa ff ff    	je     2a5d <node97>
    7fc3:	48 3d b3 01 00 00    	cmp    rax,0x1b3
    7fc9:	0f 84 46 09 00 00    	je     8915 <node435>
    7fcf:	48 3d bd 00 00 00    	cmp    rax,0xbd
    7fd5:	0f 84 5a c4 ff ff    	je     4435 <node189>
    7fdb:	48 83 f8 12          	cmp    rax,0x12
    7fdf:	0f 84 9f 96 ff ff    	je     1684 <node18>
    7fe5:	48 3d b5 00 00 00    	cmp    rax,0xb5
    7feb:	0f 84 54 c2 ff ff    	je     4245 <node181>
    7ff1:	e9 57 0e 00 00       	jmp    8e4d <fail_code>

0000000000007ff6 <node396>:
    7ff6:	48 8d 05 d3 30 00 00 	lea    rax,[rip+0x30d3]        # b0d0 <__TMC_END__>
    7ffd:	c6 04 18 6f          	mov    BYTE PTR [rax+rbx*1],0x6f
    8001:	48 ff c3             	inc    rbx
    8004:	48 8d 3d 05 30 00 00 	lea    rdi,[rip+0x3005]        # b010 <scanf_format>
    800b:	48 89 e6             	mov    rsi,rsp
    800e:	31 c0                	xor    eax,eax
    8010:	ff 15 ba 2f 00 00    	call   QWORD PTR [rip+0x2fba]        # afd0 <scanf@GLIBC_2.2.5>
    8016:	48 8b 04 24          	mov    rax,QWORD PTR [rsp]
    801a:	48 3d b5 00 00 00    	cmp    rax,0xb5
    8020:	0f 84 1f c2 ff ff    	je     4245 <node181>
    8026:	48 3d 36 01 00 00    	cmp    rax,0x136
    802c:	0f 84 5a e8 ff ff    	je     688c <node310>
    8032:	e9 16 0e 00 00       	jmp    8e4d <fail_code>

0000000000008037 <node397>:
    8037:	48 8d 05 92 30 00 00 	lea    rax,[rip+0x3092]        # b0d0 <__TMC_END__>
    803e:	c6 04 18 35          	mov    BYTE PTR [rax+rbx*1],0x35
    8042:	48 ff c3             	inc    rbx
    8045:	48 8d 3d c4 2f 00 00 	lea    rdi,[rip+0x2fc4]        # b010 <scanf_format>
    804c:	48 89 e6             	mov    rsi,rsp
    804f:	31 c0                	xor    eax,eax
    8051:	ff 15 79 2f 00 00    	call   QWORD PTR [rip+0x2f79]        # afd0 <scanf@GLIBC_2.2.5>
    8057:	48 8b 04 24          	mov    rax,QWORD PTR [rsp]
    805b:	48 3d 8e 01 00 00    	cmp    rax,0x18e
    8061:	74 1b                	je     807e <node398>
    8063:	48 83 f8 4f          	cmp    rax,0x4f
    8067:	0f 84 7c a5 ff ff    	je     25e9 <node79>
    806d:	48 3d 69 01 00 00    	cmp    rax,0x169
    8073:	0f 84 24 f6 ff ff    	je     769d <node361>
    8079:	e9 cf 0d 00 00       	jmp    8e4d <fail_code>

000000000000807e <node398>:
    807e:	48 8d 05 4b 30 00 00 	lea    rax,[rip+0x304b]        # b0d0 <__TMC_END__>
    8085:	c6 04 18 35          	mov    BYTE PTR [rax+rbx*1],0x35
    8089:	48 ff c3             	inc    rbx
    808c:	48 8d 3d 7d 2f 00 00 	lea    rdi,[rip+0x2f7d]        # b010 <scanf_format>
    8093:	48 89 e6             	mov    rsi,rsp
    8096:	31 c0                	xor    eax,eax
    8098:	ff 15 32 2f 00 00    	call   QWORD PTR [rip+0x2f32]        # afd0 <scanf@GLIBC_2.2.5>
    809e:	48 8b 04 24          	mov    rax,QWORD PTR [rsp]
    80a2:	48 83 f8 73          	cmp    rax,0x73
    80a6:	0f 84 d7 ad ff ff    	je     2e83 <node115>
    80ac:	48 3d c1 01 00 00    	cmp    rax,0x1c1
    80b2:	0f 84 0f 0c 00 00    	je     8cc7 <node449>
    80b8:	48 3d d3 00 00 00    	cmp    rax,0xd3
    80be:	0f 84 83 ca ff ff    	je     4b47 <node211>
    80c4:	e9 84 0d 00 00       	jmp    8e4d <fail_code>

00000000000080c9 <node399>:
    80c9:	48 8d 05 00 30 00 00 	lea    rax,[rip+0x3000]        # b0d0 <__TMC_END__>
    80d0:	c6 04 18 6e          	mov    BYTE PTR [rax+rbx*1],0x6e
    80d4:	48 ff c3             	inc    rbx
    80d7:	48 8d 3d 32 2f 00 00 	lea    rdi,[rip+0x2f32]        # b010 <scanf_format>
    80de:	48 89 e6             	mov    rsi,rsp
    80e1:	31 c0                	xor    eax,eax
    80e3:	ff 15 e7 2e 00 00    	call   QWORD PTR [rip+0x2ee7]        # afd0 <scanf@GLIBC_2.2.5>
    80e9:	48 8b 04 24          	mov    rax,QWORD PTR [rsp]
    80ed:	48 3d fb 00 00 00    	cmp    rax,0xfb
    80f3:	0f 84 46 d6 ff ff    	je     573f <node251>
    80f9:	48 83 f8 23          	cmp    rax,0x23
    80fd:	0f 84 26 9a ff ff    	je     1b29 <node35>
    8103:	48 3d 91 01 00 00    	cmp    rax,0x191
    8109:	74 64                	je     816f <node401>
    810b:	48 3d ad 00 00 00    	cmp    rax,0xad
    8111:	0f 84 04 bf ff ff    	je     401b <node173>
    8117:	e9 31 0d 00 00       	jmp    8e4d <fail_code>

000000000000811c <node400>:
    811c:	48 8d 05 ad 2f 00 00 	lea    rax,[rip+0x2fad]        # b0d0 <__TMC_END__>
    8123:	c6 04 18 43          	mov    BYTE PTR [rax+rbx*1],0x43
    8127:	48 ff c3             	inc    rbx
    812a:	48 8d 3d df 2e 00 00 	lea    rdi,[rip+0x2edf]        # b010 <scanf_format>
    8131:	48 89 e6             	mov    rsi,rsp
    8134:	31 c0                	xor    eax,eax
    8136:	ff 15 94 2e 00 00    	call   QWORD PTR [rip+0x2e94]        # afd0 <scanf@GLIBC_2.2.5>
    813c:	48 8b 04 24          	mov    rax,QWORD PTR [rsp]
    8140:	48 83 f8 25          	cmp    rax,0x25
    8144:	0f 84 b9 9a ff ff    	je     1c03 <node37>
    814a:	48 83 f8 08          	cmp    rax,0x8
    814e:	0f 84 54 92 ff ff    	je     13a8 <node8>
    8154:	48 83 f8 0e          	cmp    rax,0xe
    8158:	0f 84 32 94 ff ff    	je     1590 <node14>
    815e:	48 3d b2 01 00 00    	cmp    rax,0x1b2
    8164:	0f 84 6a 07 00 00    	je     88d4 <node434>
    816a:	e9 de 0c 00 00       	jmp    8e4d <fail_code>

000000000000816f <node401>:
    816f:	48 8d 05 5a 2f 00 00 	lea    rax,[rip+0x2f5a]        # b0d0 <__TMC_END__>
    8176:	c6 04 18 5f          	mov    BYTE PTR [rax+rbx*1],0x5f
    817a:	48 ff c3             	inc    rbx
    817d:	48 8d 3d 8c 2e 00 00 	lea    rdi,[rip+0x2e8c]        # b010 <scanf_format>
    8184:	48 89 e6             	mov    rsi,rsp
    8187:	31 c0                	xor    eax,eax
    8189:	ff 15 41 2e 00 00    	call   QWORD PTR [rip+0x2e41]        # afd0 <scanf@GLIBC_2.2.5>
    818f:	48 8b 04 24          	mov    rax,QWORD PTR [rsp]
    8193:	48 3d 89 00 00 00    	cmp    rax,0x89
    8199:	0f 84 40 b3 ff ff    	je     34df <node137>
    819f:	48 83 f8 31          	cmp    rax,0x31
    81a3:	0f 84 c6 9c ff ff    	je     1e6f <node49>
    81a9:	e9 9f 0c 00 00       	jmp    8e4d <fail_code>

00000000000081ae <node402>:
    81ae:	48 8d 05 1b 2f 00 00 	lea    rax,[rip+0x2f1b]        # b0d0 <__TMC_END__>
    81b5:	c6 04 18 3d          	mov    BYTE PTR [rax+rbx*1],0x3d
    81b9:	48 ff c3             	inc    rbx
    81bc:	e9 8c 0c 00 00       	jmp    8e4d <fail_code>

00000000000081c1 <node403>:
    81c1:	48 8d 05 08 2f 00 00 	lea    rax,[rip+0x2f08]        # b0d0 <__TMC_END__>
    81c8:	c6 04 18 30          	mov    BYTE PTR [rax+rbx*1],0x30
    81cc:	48 ff c3             	inc    rbx
    81cf:	48 8d 3d 3a 2e 00 00 	lea    rdi,[rip+0x2e3a]        # b010 <scanf_format>
    81d6:	48 89 e6             	mov    rsi,rsp
    81d9:	31 c0                	xor    eax,eax
    81db:	ff 15 ef 2d 00 00    	call   QWORD PTR [rip+0x2def]        # afd0 <scanf@GLIBC_2.2.5>
    81e1:	48 8b 04 24          	mov    rax,QWORD PTR [rsp]
    81e5:	48 3d f0 00 00 00    	cmp    rax,0xf0
    81eb:	0f 84 83 d1 ff ff    	je     5374 <node240>
    81f1:	48 3d cc 00 00 00    	cmp    rax,0xcc
    81f7:	0f 84 e9 c6 ff ff    	je     48e6 <node204>
    81fd:	48 3d 9c 01 00 00    	cmp    rax,0x19c
    8203:	0f 84 3d 02 00 00    	je     8446 <node412>
    8209:	48 3d 1e 01 00 00    	cmp    rax,0x11e
    820f:	0f 84 f7 df ff ff    	je     620c <node286>
    8215:	48 3d 8d 00 00 00    	cmp    rax,0x8d
    821b:	0f 84 26 b4 ff ff    	je     3647 <node141>
    8221:	48 3d 5b 01 00 00    	cmp    rax,0x15b
    8227:	0f 84 86 f0 ff ff    	je     72b3 <node347>
    822d:	e9 1b 0c 00 00       	jmp    8e4d <fail_code>

0000000000008232 <node404>:
    8232:	48 8d 05 97 2e 00 00 	lea    rax,[rip+0x2e97]        # b0d0 <__TMC_END__>
    8239:	c6 04 18 46          	mov    BYTE PTR [rax+rbx*1],0x46
    823d:	48 ff c3             	inc    rbx
    8240:	e9 08 0c 00 00       	jmp    8e4d <fail_code>

0000000000008245 <node405>:
    8245:	48 8d 05 84 2e 00 00 	lea    rax,[rip+0x2e84]        # b0d0 <__TMC_END__>
    824c:	c6 04 18 23          	mov    BYTE PTR [rax+rbx*1],0x23
    8250:	48 ff c3             	inc    rbx
    8253:	48 8d 3d b6 2d 00 00 	lea    rdi,[rip+0x2db6]        # b010 <scanf_format>
    825a:	48 89 e6             	mov    rsi,rsp
    825d:	31 c0                	xor    eax,eax
    825f:	ff 15 6b 2d 00 00    	call   QWORD PTR [rip+0x2d6b]        # afd0 <scanf@GLIBC_2.2.5>
    8265:	48 8b 04 24          	mov    rax,QWORD PTR [rsp]
    8269:	48 3d 90 00 00 00    	cmp    rax,0x90
    826f:	0f 84 cd b4 ff ff    	je     3742 <node144>
    8275:	48 3d f4 00 00 00    	cmp    rax,0xf4
    827b:	0f 84 71 d2 ff ff    	je     54f2 <node244>
    8281:	48 3d 6e 01 00 00    	cmp    rax,0x16e
    8287:	0f 84 cf f5 ff ff    	je     785c <node366>
    828d:	48 3d 07 01 00 00    	cmp    rax,0x107
    8293:	0f 84 04 d8 ff ff    	je     5a9d <node263>
    8299:	48 3d 2f 01 00 00    	cmp    rax,0x12f
    829f:	0f 84 8c e3 ff ff    	je     6631 <node303>
    82a5:	e9 a3 0b 00 00       	jmp    8e4d <fail_code>

00000000000082aa <node406>:
    82aa:	48 8d 05 1f 2e 00 00 	lea    rax,[rip+0x2e1f]        # b0d0 <__TMC_END__>
    82b1:	c6 04 18 48          	mov    BYTE PTR [rax+rbx*1],0x48
    82b5:	48 ff c3             	inc    rbx
    82b8:	e9 90 0b 00 00       	jmp    8e4d <fail_code>

00000000000082bd <node407>:
    82bd:	48 8d 05 0c 2e 00 00 	lea    rax,[rip+0x2e0c]        # b0d0 <__TMC_END__>
    82c4:	c6 04 18 29          	mov    BYTE PTR [rax+rbx*1],0x29
    82c8:	48 ff c3             	inc    rbx
    82cb:	48 8d 3d 3e 2d 00 00 	lea    rdi,[rip+0x2d3e]        # b010 <scanf_format>
    82d2:	48 89 e6             	mov    rsi,rsp
    82d5:	31 c0                	xor    eax,eax
    82d7:	ff 15 f3 2c 00 00    	call   QWORD PTR [rip+0x2cf3]        # afd0 <scanf@GLIBC_2.2.5>
    82dd:	48 8b 04 24          	mov    rax,QWORD PTR [rsp]
    82e1:	48 3d 81 01 00 00    	cmp    rax,0x181
    82e7:	0f 84 fa f9 ff ff    	je     7ce7 <node385>
    82ed:	e9 5b 0b 00 00       	jmp    8e4d <fail_code>

00000000000082f2 <node408>:
    82f2:	48 8d 05 d7 2d 00 00 	lea    rax,[rip+0x2dd7]        # b0d0 <__TMC_END__>
    82f9:	c6 04 18 32          	mov    BYTE PTR [rax+rbx*1],0x32
    82fd:	48 ff c3             	inc    rbx
    8300:	48 8d 3d 09 2d 00 00 	lea    rdi,[rip+0x2d09]        # b010 <scanf_format>
    8307:	48 89 e6             	mov    rsi,rsp
    830a:	31 c0                	xor    eax,eax
    830c:	ff 15 be 2c 00 00    	call   QWORD PTR [rip+0x2cbe]        # afd0 <scanf@GLIBC_2.2.5>
    8312:	48 8b 04 24          	mov    rax,QWORD PTR [rsp]
    8316:	48 3d 2e 01 00 00    	cmp    rax,0x12e
    831c:	0f 84 fc e2 ff ff    	je     661e <node302>
    8322:	e9 26 0b 00 00       	jmp    8e4d <fail_code>

0000000000008327 <node409>:
    8327:	48 8d 05 a2 2d 00 00 	lea    rax,[rip+0x2da2]        # b0d0 <__TMC_END__>
    832e:	c6 04 18 4e          	mov    BYTE PTR [rax+rbx*1],0x4e
    8332:	48 ff c3             	inc    rbx
    8335:	48 8d 3d d4 2c 00 00 	lea    rdi,[rip+0x2cd4]        # b010 <scanf_format>
    833c:	48 89 e6             	mov    rsi,rsp
    833f:	31 c0                	xor    eax,eax
    8341:	ff 15 89 2c 00 00    	call   QWORD PTR [rip+0x2c89]        # afd0 <scanf@GLIBC_2.2.5>
    8347:	48 8b 04 24          	mov    rax,QWORD PTR [rsp]
    834b:	48 83 f8 3f          	cmp    rax,0x3f
    834f:	0f 84 14 9f ff ff    	je     2269 <node63>
    8355:	48 3d 3d 01 00 00    	cmp    rax,0x13d
    835b:	0f 84 2e e7 ff ff    	je     6a8f <node317>
    8361:	e9 e7 0a 00 00       	jmp    8e4d <fail_code>

0000000000008366 <node410>:
    8366:	48 8d 05 63 2d 00 00 	lea    rax,[rip+0x2d63]        # b0d0 <__TMC_END__>
    836d:	c6 04 18 0b          	mov    BYTE PTR [rax+rbx*1],0xb
    8371:	48 ff c3             	inc    rbx
    8374:	48 8d 3d 95 2c 00 00 	lea    rdi,[rip+0x2c95]        # b010 <scanf_format>
    837b:	48 89 e6             	mov    rsi,rsp
    837e:	31 c0                	xor    eax,eax
    8380:	ff 15 4a 2c 00 00    	call   QWORD PTR [rip+0x2c4a]        # afd0 <scanf@GLIBC_2.2.5>
    8386:	48 8b 04 24          	mov    rax,QWORD PTR [rsp]
    838a:	48 3d e8 00 00 00    	cmp    rax,0xe8
    8390:	0f 84 b4 cd ff ff    	je     514a <node232>
    8396:	48 3d d8 00 00 00    	cmp    rax,0xd8
    839c:	0f 84 38 c9 ff ff    	je     4cda <node216>
    83a2:	48 3d 08 01 00 00    	cmp    rax,0x108
    83a8:	0f 84 02 d7 ff ff    	je     5ab0 <node264>
    83ae:	48 3d ae 00 00 00    	cmp    rax,0xae
    83b4:	0f 84 c4 bc ff ff    	je     407e <node174>
    83ba:	48 3d ea 00 00 00    	cmp    rax,0xea
    83c0:	0f 84 aa cd ff ff    	je     5170 <node234>
    83c6:	48 3d 0d 01 00 00    	cmp    rax,0x10d
    83cc:	0f 84 a5 d8 ff ff    	je     5c77 <node269>
    83d2:	48 3d 61 01 00 00    	cmp    rax,0x161
    83d8:	0f 84 09 f0 ff ff    	je     73e7 <node353>
    83de:	48 3d 11 01 00 00    	cmp    rax,0x111
    83e4:	0f 84 c5 d9 ff ff    	je     5daf <node273>
    83ea:	e9 5e 0a 00 00       	jmp    8e4d <fail_code>

00000000000083ef <node411>:
    83ef:	48 8d 05 da 2c 00 00 	lea    rax,[rip+0x2cda]        # b0d0 <__TMC_END__>
    83f6:	c6 04 18 2e          	mov    BYTE PTR [rax+rbx*1],0x2e
    83fa:	48 ff c3             	inc    rbx
    83fd:	48 8d 3d 0c 2c 00 00 	lea    rdi,[rip+0x2c0c]        # b010 <scanf_format>
    8404:	48 89 e6             	mov    rsi,rsp
    8407:	31 c0                	xor    eax,eax
    8409:	ff 15 c1 2b 00 00    	call   QWORD PTR [rip+0x2bc1]        # afd0 <scanf@GLIBC_2.2.5>
    840f:	48 8b 04 24          	mov    rax,QWORD PTR [rsp]
    8413:	48 83 f8 5a          	cmp    rax,0x5a
    8417:	0f 84 99 a4 ff ff    	je     28b6 <node90>
    841d:	48 3d 7a 01 00 00    	cmp    rax,0x17a
    8423:	0f 84 a9 f6 ff ff    	je     7ad2 <node378>
    8429:	48 3d 07 01 00 00    	cmp    rax,0x107
    842f:	0f 84 68 d6 ff ff    	je     5a9d <node263>
    8435:	48 3d b2 01 00 00    	cmp    rax,0x1b2
    843b:	0f 84 93 04 00 00    	je     88d4 <node434>
    8441:	e9 07 0a 00 00       	jmp    8e4d <fail_code>

0000000000008446 <node412>:
    8446:	48 8d 05 83 2c 00 00 	lea    rax,[rip+0x2c83]        # b0d0 <__TMC_END__>
    844d:	c6 04 18 2e          	mov    BYTE PTR [rax+rbx*1],0x2e
    8451:	48 ff c3             	inc    rbx
    8454:	48 8d 3d b5 2b 00 00 	lea    rdi,[rip+0x2bb5]        # b010 <scanf_format>
    845b:	48 89 e6             	mov    rsi,rsp
    845e:	31 c0                	xor    eax,eax
    8460:	ff 15 6a 2b 00 00    	call   QWORD PTR [rip+0x2b6a]        # afd0 <scanf@GLIBC_2.2.5>
    8466:	48 8b 04 24          	mov    rax,QWORD PTR [rsp]
    846a:	48 83 f8 51          	cmp    rax,0x51
    846e:	0f 84 fb a1 ff ff    	je     266f <node81>
    8474:	48 3d bd 00 00 00    	cmp    rax,0xbd
    847a:	0f 84 b5 bf ff ff    	je     4435 <node189>
    8480:	e9 c8 09 00 00       	jmp    8e4d <fail_code>

0000000000008485 <node413>:
    8485:	48 8d 05 44 2c 00 00 	lea    rax,[rip+0x2c44]        # b0d0 <__TMC_END__>
    848c:	c6 04 18 28          	mov    BYTE PTR [rax+rbx*1],0x28
    8490:	48 ff c3             	inc    rbx
    8493:	48 8d 3d 76 2b 00 00 	lea    rdi,[rip+0x2b76]        # b010 <scanf_format>
    849a:	48 89 e6             	mov    rsi,rsp
    849d:	31 c0                	xor    eax,eax
    849f:	ff 15 2b 2b 00 00    	call   QWORD PTR [rip+0x2b2b]        # afd0 <scanf@GLIBC_2.2.5>
    84a5:	48 8b 04 24          	mov    rax,QWORD PTR [rsp]
    84a9:	48 3d ca 00 00 00    	cmp    rax,0xca
    84af:	0f 84 a5 c3 ff ff    	je     485a <node202>
    84b5:	48 83 f8 52          	cmp    rax,0x52
    84b9:	0f 84 e5 a1 ff ff    	je     26a4 <node82>
    84bf:	48 83 f8 0f          	cmp    rax,0xf
    84c3:	0f 84 da 90 ff ff    	je     15a3 <node15>
    84c9:	48 3d 77 01 00 00    	cmp    rax,0x177
    84cf:	0f 84 6a f5 ff ff    	je     7a3f <node375>
    84d5:	48 3d 97 01 00 00    	cmp    rax,0x197
    84db:	0f 84 dc fd ff ff    	je     82bd <node407>
    84e1:	e9 67 09 00 00       	jmp    8e4d <fail_code>

00000000000084e6 <node414>:
    84e6:	48 8d 05 e3 2b 00 00 	lea    rax,[rip+0x2be3]        # b0d0 <__TMC_END__>
    84ed:	c6 04 18 67          	mov    BYTE PTR [rax+rbx*1],0x67
    84f1:	48 ff c3             	inc    rbx
    84f4:	48 8d 3d 15 2b 00 00 	lea    rdi,[rip+0x2b15]        # b010 <scanf_format>
    84fb:	48 89 e6             	mov    rsi,rsp
    84fe:	31 c0                	xor    eax,eax
    8500:	ff 15 ca 2a 00 00    	call   QWORD PTR [rip+0x2aca]        # afd0 <scanf@GLIBC_2.2.5>
    8506:	48 8b 04 24          	mov    rax,QWORD PTR [rsp]
    850a:	48 83 f8 6e          	cmp    rax,0x6e
    850e:	0f 84 16 a8 ff ff    	je     2d2a <node110>
    8514:	48 3d 66 01 00 00    	cmp    rax,0x166
    851a:	0f 84 6c f0 ff ff    	je     758c <node358>
    8520:	e9 28 09 00 00       	jmp    8e4d <fail_code>

0000000000008525 <node415>:
    8525:	48 8d 05 a4 2b 00 00 	lea    rax,[rip+0x2ba4]        # b0d0 <__TMC_END__>
    852c:	c6 04 18 7d          	mov    BYTE PTR [rax+rbx*1],0x7d
    8530:	48 ff c3             	inc    rbx
    8533:	e9 15 09 00 00       	jmp    8e4d <fail_code>

0000000000008538 <node416>:
    8538:	48 8d 05 91 2b 00 00 	lea    rax,[rip+0x2b91]        # b0d0 <__TMC_END__>
    853f:	c6 04 18 34          	mov    BYTE PTR [rax+rbx*1],0x34
    8543:	48 ff c3             	inc    rbx
    8546:	48 8d 3d c3 2a 00 00 	lea    rdi,[rip+0x2ac3]        # b010 <scanf_format>
    854d:	48 89 e6             	mov    rsi,rsp
    8550:	31 c0                	xor    eax,eax
    8552:	ff 15 78 2a 00 00    	call   QWORD PTR [rip+0x2a78]        # afd0 <scanf@GLIBC_2.2.5>
    8558:	48 8b 04 24          	mov    rax,QWORD PTR [rsp]
    855c:	48 83 f8 11          	cmp    rax,0x11
    8560:	0f 84 0b 91 ff ff    	je     1671 <node17>
    8566:	48 3d 00 01 00 00    	cmp    rax,0x100
    856c:	0f 84 ae d3 ff ff    	je     5920 <node256>
    8572:	e9 d6 08 00 00       	jmp    8e4d <fail_code>

0000000000008577 <node417>:
    8577:	48 8d 05 52 2b 00 00 	lea    rax,[rip+0x2b52]        # b0d0 <__TMC_END__>
    857e:	c6 04 18 3b          	mov    BYTE PTR [rax+rbx*1],0x3b
    8582:	48 ff c3             	inc    rbx
    8585:	48 8d 3d 84 2a 00 00 	lea    rdi,[rip+0x2a84]        # b010 <scanf_format>
    858c:	48 89 e6             	mov    rsi,rsp
    858f:	31 c0                	xor    eax,eax
    8591:	ff 15 39 2a 00 00    	call   QWORD PTR [rip+0x2a39]        # afd0 <scanf@GLIBC_2.2.5>
    8597:	48 8b 04 24          	mov    rax,QWORD PTR [rsp]
    859b:	48 3d 70 01 00 00    	cmp    rax,0x170
    85a1:	0f 84 3d f3 ff ff    	je     78e4 <node368>
    85a7:	48 3d aa 01 00 00    	cmp    rax,0x1aa
    85ad:	0f 84 b5 01 00 00    	je     8768 <node426>
    85b3:	e9 95 08 00 00       	jmp    8e4d <fail_code>

00000000000085b8 <node418>:
    85b8:	48 8d 05 11 2b 00 00 	lea    rax,[rip+0x2b11]        # b0d0 <__TMC_END__>
    85bf:	c6 04 18 53          	mov    BYTE PTR [rax+rbx*1],0x53
    85c3:	48 ff c3             	inc    rbx
    85c6:	48 8d 3d 43 2a 00 00 	lea    rdi,[rip+0x2a43]        # b010 <scanf_format>
    85cd:	48 89 e6             	mov    rsi,rsp
    85d0:	31 c0                	xor    eax,eax
    85d2:	ff 15 f8 29 00 00    	call   QWORD PTR [rip+0x29f8]        # afd0 <scanf@GLIBC_2.2.5>
    85d8:	48 8b 04 24          	mov    rax,QWORD PTR [rsp]
    85dc:	48 3d 8c 01 00 00    	cmp    rax,0x18c
    85e2:	0f 84 0e fa ff ff    	je     7ff6 <node396>
    85e8:	48 3d 8a 01 00 00    	cmp    rax,0x18a
    85ee:	0f 84 26 f9 ff ff    	je     7f1a <node394>
    85f4:	48 83 f8 42          	cmp    rax,0x42
    85f8:	0f 84 c6 9c ff ff    	je     22c4 <node66>
    85fe:	48 3d 35 01 00 00    	cmp    rax,0x135
    8604:	0f 84 23 e2 ff ff    	je     682d <node309>
    860a:	48 3d 19 01 00 00    	cmp    rax,0x119
    8610:	0f 84 85 da ff ff    	je     609b <node281>
    8616:	e9 32 08 00 00       	jmp    8e4d <fail_code>

000000000000861b <node419>:
    861b:	48 8d 05 ae 2a 00 00 	lea    rax,[rip+0x2aae]        # b0d0 <__TMC_END__>
    8622:	c6 04 18 20          	mov    BYTE PTR [rax+rbx*1],0x20
    8626:	48 ff c3             	inc    rbx
    8629:	e9 1f 08 00 00       	jmp    8e4d <fail_code>

000000000000862e <node420>:
    862e:	48 8d 05 9b 2a 00 00 	lea    rax,[rip+0x2a9b]        # b0d0 <__TMC_END__>
    8635:	c6 04 18 79          	mov    BYTE PTR [rax+rbx*1],0x79
    8639:	48 ff c3             	inc    rbx
    863c:	48 8d 3d cd 29 00 00 	lea    rdi,[rip+0x29cd]        # b010 <scanf_format>
    8643:	48 89 e6             	mov    rsi,rsp
    8646:	31 c0                	xor    eax,eax
    8648:	ff 15 82 29 00 00    	call   QWORD PTR [rip+0x2982]        # afd0 <scanf@GLIBC_2.2.5>
    864e:	48 8b 04 24          	mov    rax,QWORD PTR [rsp]
    8652:	48 3d c6 01 00 00    	cmp    rax,0x1c6
    8658:	0f 84 ba 07 00 00    	je     8e18 <node454>
    865e:	48 83 f8 6d          	cmp    rax,0x6d
    8662:	0f 84 5d a6 ff ff    	je     2cc5 <node109>
    8668:	e9 e0 07 00 00       	jmp    8e4d <fail_code>

000000000000866d <node421>:
    866d:	48 8d 05 5c 2a 00 00 	lea    rax,[rip+0x2a5c]        # b0d0 <__TMC_END__>
    8674:	c6 04 18 2b          	mov    BYTE PTR [rax+rbx*1],0x2b
    8678:	48 ff c3             	inc    rbx
    867b:	e9 cd 07 00 00       	jmp    8e4d <fail_code>

0000000000008680 <node422>:
    8680:	48 8d 05 49 2a 00 00 	lea    rax,[rip+0x2a49]        # b0d0 <__TMC_END__>
    8687:	c6 04 18 39          	mov    BYTE PTR [rax+rbx*1],0x39
    868b:	48 ff c3             	inc    rbx
    868e:	48 8d 3d 7b 29 00 00 	lea    rdi,[rip+0x297b]        # b010 <scanf_format>
    8695:	48 89 e6             	mov    rsi,rsp
    8698:	31 c0                	xor    eax,eax
    869a:	ff 15 30 29 00 00    	call   QWORD PTR [rip+0x2930]        # afd0 <scanf@GLIBC_2.2.5>
    86a0:	48 8b 04 24          	mov    rax,QWORD PTR [rsp]
    86a4:	48 3d ab 00 00 00    	cmp    rax,0xab
    86aa:	0f 84 01 b9 ff ff    	je     3fb1 <node171>
    86b0:	48 3d ad 01 00 00    	cmp    rax,0x1ad
    86b6:	0f 84 4b 01 00 00    	je     8807 <node429>
    86bc:	e9 8c 07 00 00       	jmp    8e4d <fail_code>

00000000000086c1 <node423>:
    86c1:	48 8d 05 08 2a 00 00 	lea    rax,[rip+0x2a08]        # b0d0 <__TMC_END__>
    86c8:	c6 04 18 36          	mov    BYTE PTR [rax+rbx*1],0x36
    86cc:	48 ff c3             	inc    rbx
    86cf:	48 8d 3d 3a 29 00 00 	lea    rdi,[rip+0x293a]        # b010 <scanf_format>
    86d6:	48 89 e6             	mov    rsi,rsp
    86d9:	31 c0                	xor    eax,eax
    86db:	ff 15 ef 28 00 00    	call   QWORD PTR [rip+0x28ef]        # afd0 <scanf@GLIBC_2.2.5>
    86e1:	48 8b 04 24          	mov    rax,QWORD PTR [rsp]
    86e5:	48 83 f8 2a          	cmp    rax,0x2a
    86e9:	0f 84 49 96 ff ff    	je     1d38 <node42>
    86ef:	e9 59 07 00 00       	jmp    8e4d <fail_code>

00000000000086f4 <node424>:
    86f4:	48 8d 05 d5 29 00 00 	lea    rax,[rip+0x29d5]        # b0d0 <__TMC_END__>
    86fb:	c6 04 18 56          	mov    BYTE PTR [rax+rbx*1],0x56
    86ff:	48 ff c3             	inc    rbx
    8702:	48 8d 3d 07 29 00 00 	lea    rdi,[rip+0x2907]        # b010 <scanf_format>
    8709:	48 89 e6             	mov    rsi,rsp
    870c:	31 c0                	xor    eax,eax
    870e:	ff 15 bc 28 00 00    	call   QWORD PTR [rip+0x28bc]        # afd0 <scanf@GLIBC_2.2.5>
    8714:	48 8b 04 24          	mov    rax,QWORD PTR [rsp]
    8718:	48 83 f8 6a          	cmp    rax,0x6a
    871c:	0f 84 26 a5 ff ff    	je     2c48 <node106>
    8722:	e9 26 07 00 00       	jmp    8e4d <fail_code>

0000000000008727 <node425>:
    8727:	48 8d 05 a2 29 00 00 	lea    rax,[rip+0x29a2]        # b0d0 <__TMC_END__>
    872e:	c6 04 18 6f          	mov    BYTE PTR [rax+rbx*1],0x6f
    8732:	48 ff c3             	inc    rbx
    8735:	48 8d 3d d4 28 00 00 	lea    rdi,[rip+0x28d4]        # b010 <scanf_format>
    873c:	48 89 e6             	mov    rsi,rsp
    873f:	31 c0                	xor    eax,eax
    8741:	ff 15 89 28 00 00    	call   QWORD PTR [rip+0x2889]        # afd0 <scanf@GLIBC_2.2.5>
    8747:	48 8b 04 24          	mov    rax,QWORD PTR [rsp]
    874b:	48 3d 2d 01 00 00    	cmp    rax,0x12d
    8751:	0f 84 b4 de ff ff    	je     660b <node301>
    8757:	48 3d c4 01 00 00    	cmp    rax,0x1c4
    875d:	0f 84 5b 06 00 00    	je     8dbe <node452>
    8763:	e9 e5 06 00 00       	jmp    8e4d <fail_code>

0000000000008768 <node426>:
    8768:	48 8d 05 61 29 00 00 	lea    rax,[rip+0x2961]        # b0d0 <__TMC_END__>
    876f:	c6 04 18 22          	mov    BYTE PTR [rax+rbx*1],0x22
    8773:	48 ff c3             	inc    rbx
    8776:	48 8d 3d 93 28 00 00 	lea    rdi,[rip+0x2893]        # b010 <scanf_format>
    877d:	48 89 e6             	mov    rsi,rsp
    8780:	31 c0                	xor    eax,eax
    8782:	ff 15 48 28 00 00    	call   QWORD PTR [rip+0x2848]        # afd0 <scanf@GLIBC_2.2.5>
    8788:	48 8b 04 24          	mov    rax,QWORD PTR [rsp]
    878c:	48 3d 01 01 00 00    	cmp    rax,0x101
    8792:	0f 84 9b d1 ff ff    	je     5933 <node257>
    8798:	48 83 f8 25          	cmp    rax,0x25
    879c:	0f 84 61 94 ff ff    	je     1c03 <node37>
    87a2:	48 3d e8 00 00 00    	cmp    rax,0xe8
    87a8:	0f 84 9c c9 ff ff    	je     514a <node232>
    87ae:	e9 9a 06 00 00       	jmp    8e4d <fail_code>

00000000000087b3 <node427>:
    87b3:	48 8d 05 16 29 00 00 	lea    rax,[rip+0x2916]        # b0d0 <__TMC_END__>
    87ba:	c6 04 18 55          	mov    BYTE PTR [rax+rbx*1],0x55
    87be:	48 ff c3             	inc    rbx
    87c1:	48 8d 3d 48 28 00 00 	lea    rdi,[rip+0x2848]        # b010 <scanf_format>
    87c8:	48 89 e6             	mov    rsi,rsp
    87cb:	31 c0                	xor    eax,eax
    87cd:	ff 15 fd 27 00 00    	call   QWORD PTR [rip+0x27fd]        # afd0 <scanf@GLIBC_2.2.5>
    87d3:	48 8b 04 24          	mov    rax,QWORD PTR [rsp]
    87d7:	48 3d e8 00 00 00    	cmp    rax,0xe8
    87dd:	0f 84 67 c9 ff ff    	je     514a <node232>
    87e3:	48 3d e9 00 00 00    	cmp    rax,0xe9
    87e9:	0f 84 6e c9 ff ff    	je     515d <node233>
    87ef:	e9 59 06 00 00       	jmp    8e4d <fail_code>

00000000000087f4 <node428>:
    87f4:	48 8d 05 d5 28 00 00 	lea    rax,[rip+0x28d5]        # b0d0 <__TMC_END__>
    87fb:	c6 04 18 50          	mov    BYTE PTR [rax+rbx*1],0x50
    87ff:	48 ff c3             	inc    rbx
    8802:	e9 46 06 00 00       	jmp    8e4d <fail_code>

0000000000008807 <node429>:
    8807:	48 8d 05 c2 28 00 00 	lea    rax,[rip+0x28c2]        # b0d0 <__TMC_END__>
    880e:	c6 04 18 55          	mov    BYTE PTR [rax+rbx*1],0x55
    8812:	48 ff c3             	inc    rbx
    8815:	e9 33 06 00 00       	jmp    8e4d <fail_code>

000000000000881a <node430>:
    881a:	48 8d 05 af 28 00 00 	lea    rax,[rip+0x28af]        # b0d0 <__TMC_END__>
    8821:	c6 04 18 25          	mov    BYTE PTR [rax+rbx*1],0x25
    8825:	48 ff c3             	inc    rbx
    8828:	e9 20 06 00 00       	jmp    8e4d <fail_code>

000000000000882d <node431>:
    882d:	48 8d 05 9c 28 00 00 	lea    rax,[rip+0x289c]        # b0d0 <__TMC_END__>
    8834:	c6 04 18 61          	mov    BYTE PTR [rax+rbx*1],0x61
    8838:	48 ff c3             	inc    rbx
    883b:	48 8d 3d ce 27 00 00 	lea    rdi,[rip+0x27ce]        # b010 <scanf_format>
    8842:	48 89 e6             	mov    rsi,rsp
    8845:	31 c0                	xor    eax,eax
    8847:	ff 15 83 27 00 00    	call   QWORD PTR [rip+0x2783]        # afd0 <scanf@GLIBC_2.2.5>
    884d:	48 8b 04 24          	mov    rax,QWORD PTR [rsp]
    8851:	48 83 f8 0e          	cmp    rax,0xe
    8855:	0f 84 35 8d ff ff    	je     1590 <node14>
    885b:	48 3d 5a 01 00 00    	cmp    rax,0x15a
    8861:	0f 84 0f ea ff ff    	je     7276 <node346>
    8867:	48 3d 82 01 00 00    	cmp    rax,0x182
    886d:	0f 84 87 f4 ff ff    	je     7cfa <node386>
    8873:	48 83 f8 5b          	cmp    rax,0x5b
    8877:	0f 84 4c a0 ff ff    	je     28c9 <node91>
    887d:	e9 cb 05 00 00       	jmp    8e4d <fail_code>

0000000000008882 <node432>:
    8882:	48 8d 05 47 28 00 00 	lea    rax,[rip+0x2847]        # b0d0 <__TMC_END__>
    8889:	c6 04 18 3a          	mov    BYTE PTR [rax+rbx*1],0x3a
    888d:	48 ff c3             	inc    rbx
    8890:	e9 b8 05 00 00       	jmp    8e4d <fail_code>

0000000000008895 <node433>:
    8895:	48 8d 05 34 28 00 00 	lea    rax,[rip+0x2834]        # b0d0 <__TMC_END__>
    889c:	c6 04 18 7a          	mov    BYTE PTR [rax+rbx*1],0x7a
    88a0:	48 ff c3             	inc    rbx
    88a3:	48 8d 3d 66 27 00 00 	lea    rdi,[rip+0x2766]        # b010 <scanf_format>
    88aa:	48 89 e6             	mov    rsi,rsp
    88ad:	31 c0                	xor    eax,eax
    88af:	ff 15 1b 27 00 00    	call   QWORD PTR [rip+0x271b]        # afd0 <scanf@GLIBC_2.2.5>
    88b5:	48 8b 04 24          	mov    rax,QWORD PTR [rsp]
    88b9:	48 3d 2b 01 00 00    	cmp    rax,0x12b
    88bf:	0f 84 f2 dc ff ff    	je     65b7 <node299>
    88c5:	48 83 f8 1a          	cmp    rax,0x1a
    88c9:	0f 84 e3 8f ff ff    	je     18b2 <node26>
    88cf:	e9 79 05 00 00       	jmp    8e4d <fail_code>

00000000000088d4 <node434>:
    88d4:	48 8d 05 f5 27 00 00 	lea    rax,[rip+0x27f5]        # b0d0 <__TMC_END__>
    88db:	c6 04 18 6e          	mov    BYTE PTR [rax+rbx*1],0x6e
    88df:	48 ff c3             	inc    rbx
    88e2:	48 8d 3d 27 27 00 00 	lea    rdi,[rip+0x2727]        # b010 <scanf_format>
    88e9:	48 89 e6             	mov    rsi,rsp
    88ec:	31 c0                	xor    eax,eax
    88ee:	ff 15 dc 26 00 00    	call   QWORD PTR [rip+0x26dc]        # afd0 <scanf@GLIBC_2.2.5>
    88f4:	48 8b 04 24          	mov    rax,QWORD PTR [rsp]
    88f8:	48 3d 3a 01 00 00    	cmp    rax,0x13a
    88fe:	0f 84 c2 e0 ff ff    	je     69c6 <node314>
    8904:	48 3d 14 01 00 00    	cmp    rax,0x114
    890a:	0f 84 d4 d5 ff ff    	je     5ee4 <node276>
    8910:	e9 38 05 00 00       	jmp    8e4d <fail_code>

0000000000008915 <node435>:
    8915:	48 8d 05 b4 27 00 00 	lea    rax,[rip+0x27b4]        # b0d0 <__TMC_END__>
    891c:	c6 04 18 47          	mov    BYTE PTR [rax+rbx*1],0x47
    8920:	48 ff c3             	inc    rbx
    8923:	e9 25 05 00 00       	jmp    8e4d <fail_code>

0000000000008928 <node436>:
    8928:	48 8d 05 a1 27 00 00 	lea    rax,[rip+0x27a1]        # b0d0 <__TMC_END__>
    892f:	c6 04 18 3e          	mov    BYTE PTR [rax+rbx*1],0x3e
    8933:	48 ff c3             	inc    rbx
    8936:	48 8d 3d d3 26 00 00 	lea    rdi,[rip+0x26d3]        # b010 <scanf_format>
    893d:	48 89 e6             	mov    rsi,rsp
    8940:	31 c0                	xor    eax,eax
    8942:	ff 15 88 26 00 00    	call   QWORD PTR [rip+0x2688]        # afd0 <scanf@GLIBC_2.2.5>
    8948:	48 8b 04 24          	mov    rax,QWORD PTR [rsp]
    894c:	48 3d e2 00 00 00    	cmp    rax,0xe2
    8952:	0f 84 68 c6 ff ff    	je     4fc0 <node226>
    8958:	48 3d 1e 01 00 00    	cmp    rax,0x11e
    895e:	0f 84 a8 d8 ff ff    	je     620c <node286>
    8964:	48 3d 52 01 00 00    	cmp    rax,0x152
    896a:	0f 84 92 e6 ff ff    	je     7002 <node338>
    8970:	48 83 f8 63          	cmp    rax,0x63
    8974:	0f 84 2b a1 ff ff    	je     2aa5 <node99>
    897a:	48 3d e5 00 00 00    	cmp    rax,0xe5
    8980:	0f 84 05 c7 ff ff    	je     508b <node229>
    8986:	48 3d 57 01 00 00    	cmp    rax,0x157
    898c:	0f 84 d3 e7 ff ff    	je     7165 <node343>
    8992:	e9 b6 04 00 00       	jmp    8e4d <fail_code>

0000000000008997 <node437>:
    8997:	48 8d 05 32 27 00 00 	lea    rax,[rip+0x2732]        # b0d0 <__TMC_END__>
    899e:	c6 04 18 5b          	mov    BYTE PTR [rax+rbx*1],0x5b
    89a2:	48 ff c3             	inc    rbx
    89a5:	48 8d 3d 64 26 00 00 	lea    rdi,[rip+0x2664]        # b010 <scanf_format>
    89ac:	48 89 e6             	mov    rsi,rsp
    89af:	31 c0                	xor    eax,eax
    89b1:	ff 15 19 26 00 00    	call   QWORD PTR [rip+0x2619]        # afd0 <scanf@GLIBC_2.2.5>
    89b7:	48 8b 04 24          	mov    rax,QWORD PTR [rsp]
    89bb:	48 3d e9 00 00 00    	cmp    rax,0xe9
    89c1:	0f 84 96 c7 ff ff    	je     515d <node233>
    89c7:	e9 81 04 00 00       	jmp    8e4d <fail_code>

00000000000089cc <node438>:
    89cc:	48 8d 05 fd 26 00 00 	lea    rax,[rip+0x26fd]        # b0d0 <__TMC_END__>
    89d3:	c6 04 18 70          	mov    BYTE PTR [rax+rbx*1],0x70
    89d7:	48 ff c3             	inc    rbx
    89da:	e9 6e 04 00 00       	jmp    8e4d <fail_code>

00000000000089df <node439>:
    89df:	48 8d 05 ea 26 00 00 	lea    rax,[rip+0x26ea]        # b0d0 <__TMC_END__>
    89e6:	c6 04 18 52          	mov    BYTE PTR [rax+rbx*1],0x52
    89ea:	48 ff c3             	inc    rbx
    89ed:	48 8d 3d 1c 26 00 00 	lea    rdi,[rip+0x261c]        # b010 <scanf_format>
    89f4:	48 89 e6             	mov    rsi,rsp
    89f7:	31 c0                	xor    eax,eax
    89f9:	ff 15 d1 25 00 00    	call   QWORD PTR [rip+0x25d1]        # afd0 <scanf@GLIBC_2.2.5>
    89ff:	48 8b 04 24          	mov    rax,QWORD PTR [rsp]
    8a03:	48 83 f8 19          	cmp    rax,0x19
    8a07:	0f 84 72 8e ff ff    	je     187f <node25>
    8a0d:	48 3d c4 01 00 00    	cmp    rax,0x1c4
    8a13:	0f 84 a5 03 00 00    	je     8dbe <node452>
    8a19:	48 3d ec 00 00 00    	cmp    rax,0xec
    8a1f:	0f 84 05 c8 ff ff    	je     522a <node236>
    8a25:	48 3d 32 01 00 00    	cmp    rax,0x132
    8a2b:	0f 84 07 dd ff ff    	je     6738 <node306>
    8a31:	48 3d b3 00 00 00    	cmp    rax,0xb3
    8a37:	0f 84 7e b7 ff ff    	je     41bb <node179>
    8a3d:	e9 0b 04 00 00       	jmp    8e4d <fail_code>

0000000000008a42 <node440>:
    8a42:	48 8d 05 87 26 00 00 	lea    rax,[rip+0x2687]        # b0d0 <__TMC_END__>
    8a49:	c6 04 18 48          	mov    BYTE PTR [rax+rbx*1],0x48
    8a4d:	48 ff c3             	inc    rbx
    8a50:	48 8d 3d b9 25 00 00 	lea    rdi,[rip+0x25b9]        # b010 <scanf_format>
    8a57:	48 89 e6             	mov    rsi,rsp
    8a5a:	31 c0                	xor    eax,eax
    8a5c:	ff 15 6e 25 00 00    	call   QWORD PTR [rip+0x256e]        # afd0 <scanf@GLIBC_2.2.5>
    8a62:	48 8b 04 24          	mov    rax,QWORD PTR [rsp]
    8a66:	48 3d ee 00 00 00    	cmp    rax,0xee
    8a6c:	0f 84 3a c8 ff ff    	je     52ac <node238>
    8a72:	48 3d 3a 01 00 00    	cmp    rax,0x13a
    8a78:	0f 84 48 df ff ff    	je     69c6 <node314>
    8a7e:	48 83 f8 0e          	cmp    rax,0xe
    8a82:	0f 84 08 8b ff ff    	je     1590 <node14>
    8a88:	48 3d 9b 01 00 00    	cmp    rax,0x19b
    8a8e:	0f 84 5b f9 ff ff    	je     83ef <node411>
    8a94:	48 3d a1 00 00 00    	cmp    rax,0xa1
    8a9a:	0f 84 b5 b2 ff ff    	je     3d55 <node161>
    8aa0:	48 3d 29 01 00 00    	cmp    rax,0x129
    8aa6:	0f 84 a3 da ff ff    	je     654f <node297>
    8aac:	e9 9c 03 00 00       	jmp    8e4d <fail_code>

0000000000008ab1 <node441>:
    8ab1:	48 8d 05 18 26 00 00 	lea    rax,[rip+0x2618]        # b0d0 <__TMC_END__>
    8ab8:	c6 04 18 33          	mov    BYTE PTR [rax+rbx*1],0x33
    8abc:	48 ff c3             	inc    rbx
    8abf:	48 8d 3d 4a 25 00 00 	lea    rdi,[rip+0x254a]        # b010 <scanf_format>
    8ac6:	48 89 e6             	mov    rsi,rsp
    8ac9:	31 c0                	xor    eax,eax
    8acb:	ff 15 ff 24 00 00    	call   QWORD PTR [rip+0x24ff]        # afd0 <scanf@GLIBC_2.2.5>
    8ad1:	48 8b 04 24          	mov    rax,QWORD PTR [rsp]
    8ad5:	48 3d 96 00 00 00    	cmp    rax,0x96
    8adb:	0f 84 97 ae ff ff    	je     3978 <node150>
    8ae1:	48 83 f8 57          	cmp    rax,0x57
    8ae5:	0f 84 2c 9d ff ff    	je     2817 <node87>
    8aeb:	48 83 f8 3a          	cmp    rax,0x3a
    8aef:	0f 84 c7 95 ff ff    	je     20bc <node58>
    8af5:	e9 53 03 00 00       	jmp    8e4d <fail_code>

0000000000008afa <node442>:
    8afa:	48 8d 05 cf 25 00 00 	lea    rax,[rip+0x25cf]        # b0d0 <__TMC_END__>
    8b01:	c6 04 18 47          	mov    BYTE PTR [rax+rbx*1],0x47
    8b05:	48 ff c3             	inc    rbx
    8b08:	e9 40 03 00 00       	jmp    8e4d <fail_code>

0000000000008b0d <node443>:
    8b0d:	48 8d 05 bc 25 00 00 	lea    rax,[rip+0x25bc]        # b0d0 <__TMC_END__>
    8b14:	c6 04 18 37          	mov    BYTE PTR [rax+rbx*1],0x37
    8b18:	48 ff c3             	inc    rbx
    8b1b:	48 8d 3d ee 24 00 00 	lea    rdi,[rip+0x24ee]        # b010 <scanf_format>
    8b22:	48 89 e6             	mov    rsi,rsp
    8b25:	31 c0                	xor    eax,eax
    8b27:	ff 15 a3 24 00 00    	call   QWORD PTR [rip+0x24a3]        # afd0 <scanf@GLIBC_2.2.5>
    8b2d:	48 8b 04 24          	mov    rax,QWORD PTR [rsp]
    8b31:	48 3d 68 01 00 00    	cmp    rax,0x168
    8b37:	0f 84 2b eb ff ff    	je     7668 <node360>
    8b3d:	e9 0b 03 00 00       	jmp    8e4d <fail_code>

0000000000008b42 <node444>:
    8b42:	48 8d 05 87 25 00 00 	lea    rax,[rip+0x2587]        # b0d0 <__TMC_END__>
    8b49:	c6 04 18 4d          	mov    BYTE PTR [rax+rbx*1],0x4d
    8b4d:	48 ff c3             	inc    rbx
    8b50:	48 8d 3d b9 24 00 00 	lea    rdi,[rip+0x24b9]        # b010 <scanf_format>
    8b57:	48 89 e6             	mov    rsi,rsp
    8b5a:	31 c0                	xor    eax,eax
    8b5c:	ff 15 6e 24 00 00    	call   QWORD PTR [rip+0x246e]        # afd0 <scanf@GLIBC_2.2.5>
    8b62:	48 8b 04 24          	mov    rax,QWORD PTR [rsp]
    8b66:	48 3d a3 01 00 00    	cmp    rax,0x1a3
    8b6c:	0f 84 a9 fa ff ff    	je     861b <node419>
    8b72:	e9 d6 02 00 00       	jmp    8e4d <fail_code>

0000000000008b77 <node445>:
    8b77:	48 8d 05 52 25 00 00 	lea    rax,[rip+0x2552]        # b0d0 <__TMC_END__>
    8b7e:	c6 04 18 30          	mov    BYTE PTR [rax+rbx*1],0x30
    8b82:	48 ff c3             	inc    rbx
    8b85:	48 8d 3d 84 24 00 00 	lea    rdi,[rip+0x2484]        # b010 <scanf_format>
    8b8c:	48 89 e6             	mov    rsi,rsp
    8b8f:	31 c0                	xor    eax,eax
    8b91:	ff 15 39 24 00 00    	call   QWORD PTR [rip+0x2439]        # afd0 <scanf@GLIBC_2.2.5>
    8b97:	48 8b 04 24          	mov    rax,QWORD PTR [rsp]
    8b9b:	48 3d 74 01 00 00    	cmp    rax,0x174
    8ba1:	0f 84 1b ee ff ff    	je     79c2 <node372>
    8ba7:	48 3d 06 01 00 00    	cmp    rax,0x106
    8bad:	0f 84 d7 ce ff ff    	je     5a8a <node262>
    8bb3:	48 3d c2 00 00 00    	cmp    rax,0xc2
    8bb9:	0f 84 c1 b9 ff ff    	je     4580 <node194>
    8bbf:	48 3d a9 01 00 00    	cmp    rax,0x1a9
    8bc5:	0f 84 5c fb ff ff    	je     8727 <node425>
    8bcb:	48 83 f8 2b          	cmp    rax,0x2b
    8bcf:	0f 84 76 91 ff ff    	je     1d4b <node43>
    8bd5:	48 83 f8 41          	cmp    rax,0x41
    8bd9:	0f 84 b0 96 ff ff    	je     228f <node65>
    8bdf:	e9 69 02 00 00       	jmp    8e4d <fail_code>

0000000000008be4 <node446>:
    8be4:	48 8d 05 e5 24 00 00 	lea    rax,[rip+0x24e5]        # b0d0 <__TMC_END__>
    8beb:	c6 04 18 36          	mov    BYTE PTR [rax+rbx*1],0x36
    8bef:	48 ff c3             	inc    rbx
    8bf2:	48 8d 3d 17 24 00 00 	lea    rdi,[rip+0x2417]        # b010 <scanf_format>
    8bf9:	48 89 e6             	mov    rsi,rsp
    8bfc:	31 c0                	xor    eax,eax
    8bfe:	ff 15 cc 23 00 00    	call   QWORD PTR [rip+0x23cc]        # afd0 <scanf@GLIBC_2.2.5>
    8c04:	48 8b 04 24          	mov    rax,QWORD PTR [rsp]
    8c08:	48 3d 94 01 00 00    	cmp    rax,0x194
    8c0e:	0f 84 1e f6 ff ff    	je     8232 <node404>
    8c14:	e9 34 02 00 00       	jmp    8e4d <fail_code>

0000000000008c19 <node447>:
    8c19:	48 8d 05 b0 24 00 00 	lea    rax,[rip+0x24b0]        # b0d0 <__TMC_END__>
    8c20:	c6 04 18 37          	mov    BYTE PTR [rax+rbx*1],0x37
    8c24:	48 ff c3             	inc    rbx
    8c27:	48 8d 3d e2 23 00 00 	lea    rdi,[rip+0x23e2]        # b010 <scanf_format>
    8c2e:	48 89 e6             	mov    rsi,rsp
    8c31:	31 c0                	xor    eax,eax
    8c33:	ff 15 97 23 00 00    	call   QWORD PTR [rip+0x2397]        # afd0 <scanf@GLIBC_2.2.5>
    8c39:	48 8b 04 24          	mov    rax,QWORD PTR [rsp]
    8c3d:	48 3d d8 00 00 00    	cmp    rax,0xd8
    8c43:	0f 84 91 c0 ff ff    	je     4cda <node216>
    8c49:	48 3d bb 01 00 00    	cmp    rax,0x1bb
    8c4f:	0f 84 b8 fe ff ff    	je     8b0d <node443>
    8c55:	e9 f3 01 00 00       	jmp    8e4d <fail_code>

0000000000008c5a <node448>:
    8c5a:	48 8d 05 6f 24 00 00 	lea    rax,[rip+0x246f]        # b0d0 <__TMC_END__>
    8c61:	c6 04 18 69          	mov    BYTE PTR [rax+rbx*1],0x69
    8c65:	48 ff c3             	inc    rbx
    8c68:	48 8d 3d a1 23 00 00 	lea    rdi,[rip+0x23a1]        # b010 <scanf_format>
    8c6f:	48 89 e6             	mov    rsi,rsp
    8c72:	31 c0                	xor    eax,eax
    8c74:	ff 15 56 23 00 00    	call   QWORD PTR [rip+0x2356]        # afd0 <scanf@GLIBC_2.2.5>
    8c7a:	48 8b 04 24          	mov    rax,QWORD PTR [rsp]
    8c7e:	48 3d 88 00 00 00    	cmp    rax,0x88
    8c84:	0f 84 22 a8 ff ff    	je     34ac <node136>
    8c8a:	48 3d 46 01 00 00    	cmp    rax,0x146
    8c90:	0f 84 d4 e0 ff ff    	je     6d6a <node326>
    8c96:	48 83 f8 35          	cmp    rax,0x35
    8c9a:	0f 84 d7 92 ff ff    	je     1f77 <node53>
    8ca0:	48 3d 41 01 00 00    	cmp    rax,0x141
    8ca6:	0f 84 73 df ff ff    	je     6c1f <node321>
    8cac:	48 3d f1 00 00 00    	cmp    rax,0xf1
    8cb2:	0f 84 fb c6 ff ff    	je     53b3 <node241>
    8cb8:	48 83 f8 7b          	cmp    rax,0x7b
    8cbc:	0f 84 3b a4 ff ff    	je     30fd <node123>
    8cc2:	e9 86 01 00 00       	jmp    8e4d <fail_code>

0000000000008cc7 <node449>:
    8cc7:	48 8d 05 02 24 00 00 	lea    rax,[rip+0x2402]        # b0d0 <__TMC_END__>
    8cce:	c6 04 18 4e          	mov    BYTE PTR [rax+rbx*1],0x4e
    8cd2:	48 ff c3             	inc    rbx
    8cd5:	48 8d 3d 34 23 00 00 	lea    rdi,[rip+0x2334]        # b010 <scanf_format>
    8cdc:	48 89 e6             	mov    rsi,rsp
    8cdf:	31 c0                	xor    eax,eax
    8ce1:	ff 15 e9 22 00 00    	call   QWORD PTR [rip+0x22e9]        # afd0 <scanf@GLIBC_2.2.5>
    8ce7:	48 8b 04 24          	mov    rax,QWORD PTR [rsp]
    8ceb:	48 3d ac 00 00 00    	cmp    rax,0xac
    8cf1:	0f 84 cd b2 ff ff    	je     3fc4 <node172>
    8cf7:	48 3d ca 00 00 00    	cmp    rax,0xca
    8cfd:	0f 84 57 bb ff ff    	je     485a <node202>
    8d03:	48 83 f8 1b          	cmp    rax,0x1b
    8d07:	0f 84 b8 8b ff ff    	je     18c5 <node27>
    8d0d:	48 3d b6 00 00 00    	cmp    rax,0xb6
    8d13:	0f 84 5f b5 ff ff    	je     4278 <node182>
    8d19:	48 83 f8 15          	cmp    rax,0x15
    8d1d:	0f 84 30 8a ff ff    	je     1753 <node21>
    8d23:	48 83 f8 22          	cmp    rax,0x22
    8d27:	0f 84 b3 8d ff ff    	je     1ae0 <node34>
    8d2d:	48 3d 35 01 00 00    	cmp    rax,0x135
    8d33:	0f 84 f4 da ff ff    	je     682d <node309>
    8d39:	48 3d 1d 01 00 00    	cmp    rax,0x11d
    8d3f:	0f 84 88 d4 ff ff    	je     61cd <node285>
    8d45:	e9 03 01 00 00       	jmp    8e4d <fail_code>

0000000000008d4a <node450>:
    8d4a:	48 8d 05 7f 23 00 00 	lea    rax,[rip+0x237f]        # b0d0 <__TMC_END__>
    8d51:	c6 04 18 20          	mov    BYTE PTR [rax+rbx*1],0x20
    8d55:	48 ff c3             	inc    rbx
    8d58:	e9 f0 00 00 00       	jmp    8e4d <fail_code>

0000000000008d5d <node451>:
    8d5d:	48 8d 05 6c 23 00 00 	lea    rax,[rip+0x236c]        # b0d0 <__TMC_END__>
    8d64:	c6 04 18 7e          	mov    BYTE PTR [rax+rbx*1],0x7e
    8d68:	48 ff c3             	inc    rbx
    8d6b:	48 8d 3d 9e 22 00 00 	lea    rdi,[rip+0x229e]        # b010 <scanf_format>
    8d72:	48 89 e6             	mov    rsi,rsp
    8d75:	31 c0                	xor    eax,eax
    8d77:	ff 15 53 22 00 00    	call   QWORD PTR [rip+0x2253]        # afd0 <scanf@GLIBC_2.2.5>
    8d7d:	48 8b 04 24          	mov    rax,QWORD PTR [rsp]
    8d81:	48 83 f8 2c          	cmp    rax,0x2c
    8d85:	0f 84 d3 8f ff ff    	je     1d5e <node44>
    8d8b:	48 83 f8 19          	cmp    rax,0x19
    8d8f:	0f 84 ea 8a ff ff    	je     187f <node25>
    8d95:	48 3d bb 00 00 00    	cmp    rax,0xbb
    8d9b:	0f 84 0c b6 ff ff    	je     43ad <node187>
    8da1:	48 3d dd 00 00 00    	cmp    rax,0xdd
    8da7:	0f 84 d0 c0 ff ff    	je     4e7d <node221>
    8dad:	48 3d bf 00 00 00    	cmp    rax,0xbf
    8db3:	0f 84 0a b7 ff ff    	je     44c3 <node191>
    8db9:	e9 8f 00 00 00       	jmp    8e4d <fail_code>

0000000000008dbe <node452>:
    8dbe:	48 8d 05 0b 23 00 00 	lea    rax,[rip+0x230b]        # b0d0 <__TMC_END__>
    8dc5:	c6 04 18 79          	mov    BYTE PTR [rax+rbx*1],0x79
    8dc9:	48 ff c3             	inc    rbx
    8dcc:	eb 7f                	jmp    8e4d <fail_code>

0000000000008dce <node453>:
    8dce:	48 8d 05 fb 22 00 00 	lea    rax,[rip+0x22fb]        # b0d0 <__TMC_END__>
    8dd5:	c6 04 18 66          	mov    BYTE PTR [rax+rbx*1],0x66
    8dd9:	48 ff c3             	inc    rbx
    8ddc:	48 8d 3d 2d 22 00 00 	lea    rdi,[rip+0x222d]        # b010 <scanf_format>
    8de3:	48 89 e6             	mov    rsi,rsp
    8de6:	31 c0                	xor    eax,eax
    8de8:	ff 15 e2 21 00 00    	call   QWORD PTR [rip+0x21e2]        # afd0 <scanf@GLIBC_2.2.5>
    8dee:	48 8b 04 24          	mov    rax,QWORD PTR [rsp]
    8df2:	48 3d bc 01 00 00    	cmp    rax,0x1bc
    8df8:	0f 84 44 fd ff ff    	je     8b42 <node444>
    8dfe:	48 3d 3e 01 00 00    	cmp    rax,0x13e
    8e04:	0f 84 d2 dc ff ff    	je     6adc <node318>
    8e0a:	48 3d 99 01 00 00    	cmp    rax,0x199
    8e10:	0f 84 11 f5 ff ff    	je     8327 <node409>
    8e16:	eb 35                	jmp    8e4d <fail_code>

0000000000008e18 <node454>:
    8e18:	48 8d 05 b1 22 00 00 	lea    rax,[rip+0x22b1]        # b0d0 <__TMC_END__>
    8e1f:	c6 04 18 7d          	mov    BYTE PTR [rax+rbx*1],0x7d
    8e23:	48 ff c3             	inc    rbx

0000000000008e26 <maybe_success_code>:
    8e26:	48 8d 3d 58 22 00 00 	lea    rdi,[rip+0x2258]        # b085 <maybe_success>
    8e2d:	31 c0                	xor    eax,eax
    8e2f:	ff 15 8b 21 00 00    	call   QWORD PTR [rip+0x218b]        # afc0 <printf@GLIBC_2.2.5>
    8e35:	48 8d 3d d9 21 00 00 	lea    rdi,[rip+0x21d9]        # b015 <output_format>
    8e3c:	48 8d 35 8d 22 00 00 	lea    rsi,[rip+0x228d]        # b0d0 <__TMC_END__>
    8e43:	31 c0                	xor    eax,eax
    8e45:	ff 15 75 21 00 00    	call   QWORD PTR [rip+0x2175]        # afc0 <printf@GLIBC_2.2.5>
    8e4b:	eb 0f                	jmp    8e5c <end_code>

0000000000008e4d <fail_code>:
    8e4d:	48 8d 3d 23 22 00 00 	lea    rdi,[rip+0x2223]        # b077 <fail>
    8e54:	31 c0                	xor    eax,eax
    8e56:	ff 15 64 21 00 00    	call   QWORD PTR [rip+0x2164]        # afc0 <printf@GLIBC_2.2.5>

0000000000008e5c <end_code>:
    8e5c:	31 c0                	xor    eax,eax
    8e5e:	c9                   	leave
    8e5f:	c3                   	ret

Disassembly of section .fini:

0000000000008e60 <_fini>:
    8e60:	48 83 ec 08          	sub    rsp,0x8
    8e64:	48 83 c4 08          	add    rsp,0x8
    8e68:	c3                   	ret
