
program:     file format elf64-x86-64


Disassembly of section .init:

0000000000001000 <_init>:
    1000:	f3 0f 1e fa          	endbr64
    1004:	48 83 ec 08          	sub    rsp,0x8
    1008:	48 8b 05 d9 2f 00 00 	mov    rax,QWORD PTR [rip+0x2fd9]        # 3fe8 <__gmon_start__>
    100f:	48 85 c0             	test   rax,rax
    1012:	74 02                	je     1016 <_init+0x16>
    1014:	ff d0                	call   rax
    1016:	48 83 c4 08          	add    rsp,0x8
    101a:	c3                   	ret

Disassembly of section .plt:

0000000000001020 <.plt>:
    1020:	ff 35 52 2f 00 00    	push   QWORD PTR [rip+0x2f52]        # 3f78 <_GLOBAL_OFFSET_TABLE_+0x8>
    1026:	f2 ff 25 53 2f 00 00 	bnd jmp QWORD PTR [rip+0x2f53]        # 3f80 <_GLOBAL_OFFSET_TABLE_+0x10>
    102d:	0f 1f 00             	nop    DWORD PTR [rax]
    1030:	f3 0f 1e fa          	endbr64
    1034:	68 00 00 00 00       	push   0x0
    1039:	f2 e9 e1 ff ff ff    	bnd jmp 1020 <.plt>
    103f:	90                   	nop
    1040:	f3 0f 1e fa          	endbr64
    1044:	68 01 00 00 00       	push   0x1
    1049:	f2 e9 d1 ff ff ff    	bnd jmp 1020 <.plt>
    104f:	90                   	nop
    1050:	f3 0f 1e fa          	endbr64
    1054:	68 02 00 00 00       	push   0x2
    1059:	f2 e9 c1 ff ff ff    	bnd jmp 1020 <.plt>
    105f:	90                   	nop
    1060:	f3 0f 1e fa          	endbr64
    1064:	68 03 00 00 00       	push   0x3
    1069:	f2 e9 b1 ff ff ff    	bnd jmp 1020 <.plt>
    106f:	90                   	nop
    1070:	f3 0f 1e fa          	endbr64
    1074:	68 04 00 00 00       	push   0x4
    1079:	f2 e9 a1 ff ff ff    	bnd jmp 1020 <.plt>
    107f:	90                   	nop
    1080:	f3 0f 1e fa          	endbr64
    1084:	68 05 00 00 00       	push   0x5
    1089:	f2 e9 91 ff ff ff    	bnd jmp 1020 <.plt>
    108f:	90                   	nop
    1090:	f3 0f 1e fa          	endbr64
    1094:	68 06 00 00 00       	push   0x6
    1099:	f2 e9 81 ff ff ff    	bnd jmp 1020 <.plt>
    109f:	90                   	nop
    10a0:	f3 0f 1e fa          	endbr64
    10a4:	68 07 00 00 00       	push   0x7
    10a9:	f2 e9 71 ff ff ff    	bnd jmp 1020 <.plt>
    10af:	90                   	nop
    10b0:	f3 0f 1e fa          	endbr64
    10b4:	68 08 00 00 00       	push   0x8
    10b9:	f2 e9 61 ff ff ff    	bnd jmp 1020 <.plt>
    10bf:	90                   	nop
    10c0:	f3 0f 1e fa          	endbr64
    10c4:	68 09 00 00 00       	push   0x9
    10c9:	f2 e9 51 ff ff ff    	bnd jmp 1020 <.plt>
    10cf:	90                   	nop

Disassembly of section .plt.got:

00000000000010d0 <__cxa_finalize@plt>:
    10d0:	f3 0f 1e fa          	endbr64
    10d4:	f2 ff 25 1d 2f 00 00 	bnd jmp QWORD PTR [rip+0x2f1d]        # 3ff8 <__cxa_finalize@GLIBC_2.2.5>
    10db:	0f 1f 44 00 00       	nop    DWORD PTR [rax+rax*1+0x0]

Disassembly of section .plt.sec:

00000000000010e0 <free@plt>:
    10e0:	f3 0f 1e fa          	endbr64
    10e4:	f2 ff 25 9d 2e 00 00 	bnd jmp QWORD PTR [rip+0x2e9d]        # 3f88 <free@GLIBC_2.2.5>
    10eb:	0f 1f 44 00 00       	nop    DWORD PTR [rax+rax*1+0x0]

00000000000010f0 <puts@plt>:
    10f0:	f3 0f 1e fa          	endbr64
    10f4:	f2 ff 25 95 2e 00 00 	bnd jmp QWORD PTR [rip+0x2e95]        # 3f90 <puts@GLIBC_2.2.5>
    10fb:	0f 1f 44 00 00       	nop    DWORD PTR [rax+rax*1+0x0]

0000000000001100 <__stack_chk_fail@plt>:
    1100:	f3 0f 1e fa          	endbr64
    1104:	f2 ff 25 8d 2e 00 00 	bnd jmp QWORD PTR [rip+0x2e8d]        # 3f98 <__stack_chk_fail@GLIBC_2.4>
    110b:	0f 1f 44 00 00       	nop    DWORD PTR [rax+rax*1+0x0]

0000000000001110 <printf@plt>:
    1110:	f3 0f 1e fa          	endbr64
    1114:	f2 ff 25 85 2e 00 00 	bnd jmp QWORD PTR [rip+0x2e85]        # 3fa0 <printf@GLIBC_2.2.5>
    111b:	0f 1f 44 00 00       	nop    DWORD PTR [rax+rax*1+0x0]

0000000000001120 <read@plt>:
    1120:	f3 0f 1e fa          	endbr64
    1124:	f2 ff 25 7d 2e 00 00 	bnd jmp QWORD PTR [rip+0x2e7d]        # 3fa8 <read@GLIBC_2.2.5>
    112b:	0f 1f 44 00 00       	nop    DWORD PTR [rax+rax*1+0x0]

0000000000001130 <getchar@plt>:
    1130:	f3 0f 1e fa          	endbr64
    1134:	f2 ff 25 75 2e 00 00 	bnd jmp QWORD PTR [rip+0x2e75]        # 3fb0 <getchar@GLIBC_2.2.5>
    113b:	0f 1f 44 00 00       	nop    DWORD PTR [rax+rax*1+0x0]

0000000000001140 <malloc@plt>:
    1140:	f3 0f 1e fa          	endbr64
    1144:	f2 ff 25 6d 2e 00 00 	bnd jmp QWORD PTR [rip+0x2e6d]        # 3fb8 <malloc@GLIBC_2.2.5>
    114b:	0f 1f 44 00 00       	nop    DWORD PTR [rax+rax*1+0x0]

0000000000001150 <setvbuf@plt>:
    1150:	f3 0f 1e fa          	endbr64
    1154:	f2 ff 25 65 2e 00 00 	bnd jmp QWORD PTR [rip+0x2e65]        # 3fc0 <setvbuf@GLIBC_2.2.5>
    115b:	0f 1f 44 00 00       	nop    DWORD PTR [rax+rax*1+0x0]

0000000000001160 <__isoc99_scanf@plt>:
    1160:	f3 0f 1e fa          	endbr64
    1164:	f2 ff 25 5d 2e 00 00 	bnd jmp QWORD PTR [rip+0x2e5d]        # 3fc8 <__isoc99_scanf@GLIBC_2.7>
    116b:	0f 1f 44 00 00       	nop    DWORD PTR [rax+rax*1+0x0]

0000000000001170 <exit@plt>:
    1170:	f3 0f 1e fa          	endbr64
    1174:	f2 ff 25 55 2e 00 00 	bnd jmp QWORD PTR [rip+0x2e55]        # 3fd0 <exit@GLIBC_2.2.5>
    117b:	0f 1f 44 00 00       	nop    DWORD PTR [rax+rax*1+0x0]

Disassembly of section .text:

0000000000001180 <_start>:
    1180:	f3 0f 1e fa          	endbr64
    1184:	31 ed                	xor    ebp,ebp
    1186:	49 89 d1             	mov    r9,rdx
    1189:	5e                   	pop    rsi
    118a:	48 89 e2             	mov    rdx,rsp
    118d:	48 83 e4 f0          	and    rsp,0xfffffffffffffff0
    1191:	50                   	push   rax
    1192:	54                   	push   rsp
    1193:	4c 8d 05 86 04 00 00 	lea    r8,[rip+0x486]        # 1620 <__libc_csu_fini>
    119a:	48 8d 0d 0f 04 00 00 	lea    rcx,[rip+0x40f]        # 15b0 <__libc_csu_init>
    11a1:	48 8d 3d 8a 03 00 00 	lea    rdi,[rip+0x38a]        # 1532 <main>
    11a8:	ff 15 32 2e 00 00    	call   QWORD PTR [rip+0x2e32]        # 3fe0 <__libc_start_main@GLIBC_2.2.5>
    11ae:	f4                   	hlt
    11af:	90                   	nop

00000000000011b0 <deregister_tm_clones>:
    11b0:	48 8d 3d 59 2e 00 00 	lea    rdi,[rip+0x2e59]        # 4010 <__TMC_END__>
    11b7:	48 8d 05 52 2e 00 00 	lea    rax,[rip+0x2e52]        # 4010 <__TMC_END__>
    11be:	48 39 f8             	cmp    rax,rdi
    11c1:	74 15                	je     11d8 <deregister_tm_clones+0x28>
    11c3:	48 8b 05 0e 2e 00 00 	mov    rax,QWORD PTR [rip+0x2e0e]        # 3fd8 <_ITM_deregisterTMCloneTable>
    11ca:	48 85 c0             	test   rax,rax
    11cd:	74 09                	je     11d8 <deregister_tm_clones+0x28>
    11cf:	ff e0                	jmp    rax
    11d1:	0f 1f 80 00 00 00 00 	nop    DWORD PTR [rax+0x0]
    11d8:	c3                   	ret
    11d9:	0f 1f 80 00 00 00 00 	nop    DWORD PTR [rax+0x0]

00000000000011e0 <register_tm_clones>:
    11e0:	48 8d 3d 29 2e 00 00 	lea    rdi,[rip+0x2e29]        # 4010 <__TMC_END__>
    11e7:	48 8d 35 22 2e 00 00 	lea    rsi,[rip+0x2e22]        # 4010 <__TMC_END__>
    11ee:	48 29 fe             	sub    rsi,rdi
    11f1:	48 89 f0             	mov    rax,rsi
    11f4:	48 c1 ee 3f          	shr    rsi,0x3f
    11f8:	48 c1 f8 03          	sar    rax,0x3
    11fc:	48 01 c6             	add    rsi,rax
    11ff:	48 d1 fe             	sar    rsi,1
    1202:	74 14                	je     1218 <register_tm_clones+0x38>
    1204:	48 8b 05 e5 2d 00 00 	mov    rax,QWORD PTR [rip+0x2de5]        # 3ff0 <_ITM_registerTMCloneTable>
    120b:	48 85 c0             	test   rax,rax
    120e:	74 08                	je     1218 <register_tm_clones+0x38>
    1210:	ff e0                	jmp    rax
    1212:	66 0f 1f 44 00 00    	nop    WORD PTR [rax+rax*1+0x0]
    1218:	c3                   	ret
    1219:	0f 1f 80 00 00 00 00 	nop    DWORD PTR [rax+0x0]

0000000000001220 <__do_global_dtors_aux>:
    1220:	f3 0f 1e fa          	endbr64
    1224:	80 3d 1d 2e 00 00 00 	cmp    BYTE PTR [rip+0x2e1d],0x0        # 4048 <completed.8061>
    122b:	75 2b                	jne    1258 <__do_global_dtors_aux+0x38>
    122d:	55                   	push   rbp
    122e:	48 83 3d c2 2d 00 00 	cmp    QWORD PTR [rip+0x2dc2],0x0        # 3ff8 <__cxa_finalize@GLIBC_2.2.5>
    1235:	00 
    1236:	48 89 e5             	mov    rbp,rsp
    1239:	74 0c                	je     1247 <__do_global_dtors_aux+0x27>
    123b:	48 8b 3d c6 2d 00 00 	mov    rdi,QWORD PTR [rip+0x2dc6]        # 4008 <__dso_handle>
    1242:	e8 89 fe ff ff       	call   10d0 <__cxa_finalize@plt>
    1247:	e8 64 ff ff ff       	call   11b0 <deregister_tm_clones>
    124c:	c6 05 f5 2d 00 00 01 	mov    BYTE PTR [rip+0x2df5],0x1        # 4048 <completed.8061>
    1253:	5d                   	pop    rbp
    1254:	c3                   	ret
    1255:	0f 1f 00             	nop    DWORD PTR [rax]
    1258:	c3                   	ret
    1259:	0f 1f 80 00 00 00 00 	nop    DWORD PTR [rax+0x0]

0000000000001260 <frame_dummy>:
    1260:	f3 0f 1e fa          	endbr64
    1264:	e9 77 ff ff ff       	jmp    11e0 <register_tm_clones>

0000000000001269 <readInput>:
    1269:	f3 0f 1e fa          	endbr64
    126d:	55                   	push   rbp
    126e:	48 89 e5             	mov    rbp,rsp
    1271:	48 83 ec 20          	sub    rsp,0x20
    1275:	48 89 7d e8          	mov    QWORD PTR [rbp-0x18],rdi
    1279:	89 75 e4             	mov    DWORD PTR [rbp-0x1c],esi
    127c:	8b 45 e4             	mov    eax,DWORD PTR [rbp-0x1c]
    127f:	83 e8 01             	sub    eax,0x1
    1282:	48 63 d0             	movsxd rdx,eax
    1285:	48 8b 45 e8          	mov    rax,QWORD PTR [rbp-0x18]
    1289:	48 89 c6             	mov    rsi,rax
    128c:	bf 00 00 00 00       	mov    edi,0x0
    1291:	e8 8a fe ff ff       	call   1120 <read@plt>
    1296:	89 45 fc             	mov    DWORD PTR [rbp-0x4],eax
    1299:	8b 45 fc             	mov    eax,DWORD PTR [rbp-0x4]
    129c:	48 63 d0             	movsxd rdx,eax
    129f:	48 8b 45 e8          	mov    rax,QWORD PTR [rbp-0x18]
    12a3:	48 01 d0             	add    rax,rdx
    12a6:	c6 00 00             	mov    BYTE PTR [rax],0x0
    12a9:	8b 45 fc             	mov    eax,DWORD PTR [rbp-0x4]
    12ac:	48 98                	cdqe
    12ae:	48 8d 50 ff          	lea    rdx,[rax-0x1]
    12b2:	48 8b 45 e8          	mov    rax,QWORD PTR [rbp-0x18]
    12b6:	48 01 d0             	add    rax,rdx
    12b9:	0f b6 00             	movzx  eax,BYTE PTR [rax]
    12bc:	3c 0a                	cmp    al,0xa
    12be:	75 13                	jne    12d3 <readInput+0x6a>
    12c0:	8b 45 fc             	mov    eax,DWORD PTR [rbp-0x4]
    12c3:	48 98                	cdqe
    12c5:	48 8d 50 ff          	lea    rdx,[rax-0x1]
    12c9:	48 8b 45 e8          	mov    rax,QWORD PTR [rbp-0x18]
    12cd:	48 01 d0             	add    rax,rdx
    12d0:	c6 00 00             	mov    BYTE PTR [rax],0x0
    12d3:	90                   	nop
    12d4:	c9                   	leave
    12d5:	c3                   	ret

00000000000012d6 <prompt>:
    12d6:	f3 0f 1e fa          	endbr64
    12da:	55                   	push   rbp
    12db:	48 89 e5             	mov    rbp,rsp
    12de:	48 83 ec 10          	sub    rsp,0x10
    12e2:	64 48 8b 04 25 28 00 	mov    rax,QWORD PTR fs:0x28
    12e9:	00 00 
    12eb:	48 89 45 f8          	mov    QWORD PTR [rbp-0x8],rax
    12ef:	31 c0                	xor    eax,eax
    12f1:	48 8d 3d 10 0d 00 00 	lea    rdi,[rip+0xd10]        # 2008 <_IO_stdin_used+0x8>
    12f8:	e8 f3 fd ff ff       	call   10f0 <puts@plt>
    12fd:	48 8d 3d 1f 0d 00 00 	lea    rdi,[rip+0xd1f]        # 2023 <_IO_stdin_used+0x23>
    1304:	e8 e7 fd ff ff       	call   10f0 <puts@plt>
    1309:	48 8d 3d 29 0d 00 00 	lea    rdi,[rip+0xd29]        # 2039 <_IO_stdin_used+0x39>
    1310:	e8 db fd ff ff       	call   10f0 <puts@plt>
    1315:	48 8d 3d 34 0d 00 00 	lea    rdi,[rip+0xd34]        # 2050 <_IO_stdin_used+0x50>
    131c:	e8 cf fd ff ff       	call   10f0 <puts@plt>
    1321:	48 8d 3d 60 0d 00 00 	lea    rdi,[rip+0xd60]        # 2088 <_IO_stdin_used+0x88>
    1328:	e8 c3 fd ff ff       	call   10f0 <puts@plt>
    132d:	48 8d 3d 84 0d 00 00 	lea    rdi,[rip+0xd84]        # 20b8 <_IO_stdin_used+0xb8>
    1334:	e8 b7 fd ff ff       	call   10f0 <puts@plt>
    1339:	48 8d 3d 9c 0d 00 00 	lea    rdi,[rip+0xd9c]        # 20dc <_IO_stdin_used+0xdc>
    1340:	e8 ab fd ff ff       	call   10f0 <puts@plt>
    1345:	48 8d 45 f4          	lea    rax,[rbp-0xc]
    1349:	48 89 c6             	mov    rsi,rax
    134c:	48 8d 3d 91 0d 00 00 	lea    rdi,[rip+0xd91]        # 20e4 <_IO_stdin_used+0xe4>
    1353:	b8 00 00 00 00       	mov    eax,0x0
    1358:	e8 03 fe ff ff       	call   1160 <__isoc99_scanf@plt>
    135d:	8b 45 f4             	mov    eax,DWORD PTR [rbp-0xc]
    1360:	48 8b 55 f8          	mov    rdx,QWORD PTR [rbp-0x8]
    1364:	64 48 33 14 25 28 00 	xor    rdx,QWORD PTR fs:0x28
    136b:	00 00 
    136d:	74 05                	je     1374 <prompt+0x9e>
    136f:	e8 8c fd ff ff       	call   1100 <__stack_chk_fail@plt>
    1374:	c9                   	leave
    1375:	c3                   	ret

0000000000001376 <initReasonBuf>:
    1376:	f3 0f 1e fa          	endbr64
    137a:	55                   	push   rbp
    137b:	48 89 e5             	mov    rbp,rsp
    137e:	48 83 ec 10          	sub    rsp,0x10
    1382:	bf 00 01 00 00       	mov    edi,0x100
    1387:	e8 b4 fd ff ff       	call   1140 <malloc@plt>
    138c:	48 89 45 f8          	mov    QWORD PTR [rbp-0x8],rax
    1390:	c7 45 f4 00 00 00 00 	mov    DWORD PTR [rbp-0xc],0x0
    1397:	eb 14                	jmp    13ad <initReasonBuf+0x37>
    1399:	8b 45 f4             	mov    eax,DWORD PTR [rbp-0xc]
    139c:	48 63 d0             	movsxd rdx,eax
    139f:	48 8b 45 f8          	mov    rax,QWORD PTR [rbp-0x8]
    13a3:	48 01 d0             	add    rax,rdx
    13a6:	c6 00 00             	mov    BYTE PTR [rax],0x0
    13a9:	83 45 f4 01          	add    DWORD PTR [rbp-0xc],0x1
    13ad:	81 7d f4 ff 00 00 00 	cmp    DWORD PTR [rbp-0xc],0xff
    13b4:	7e e3                	jle    1399 <initReasonBuf+0x23>
    13b6:	48 8b 45 f8          	mov    rax,QWORD PTR [rbp-0x8]
    13ba:	c9                   	leave
    13bb:	c3                   	ret

00000000000013bc <enrollment_simulator>:
    13bc:	f3 0f 1e fa          	endbr64
    13c0:	55                   	push   rbp
    13c1:	48 89 e5             	mov    rbp,rsp
    13c4:	48 83 ec 70          	sub    rsp,0x70
    13c8:	64 48 8b 04 25 28 00 	mov    rax,QWORD PTR fs:0x28
    13cf:	00 00 
    13d1:	48 89 45 f8          	mov    QWORD PTR [rbp-0x8],rax
    13d5:	31 c0                	xor    eax,eax
    13d7:	c7 45 90 00 00 00 00 	mov    DWORD PTR [rbp-0x70],0x0
    13de:	eb 0e                	jmp    13ee <enrollment_simulator+0x32>
    13e0:	8b 45 90             	mov    eax,DWORD PTR [rbp-0x70]
    13e3:	48 98                	cdqe
    13e5:	c6 44 05 a0 00       	mov    BYTE PTR [rbp+rax*1-0x60],0x0
    13ea:	83 45 90 01          	add    DWORD PTR [rbp-0x70],0x1
    13ee:	83 7d 90 4f          	cmp    DWORD PTR [rbp-0x70],0x4f
    13f2:	7e ec                	jle    13e0 <enrollment_simulator+0x24>
    13f4:	b8 00 00 00 00       	mov    eax,0x0
    13f9:	e8 78 ff ff ff       	call   1376 <initReasonBuf>
    13fe:	48 89 45 98          	mov    QWORD PTR [rbp-0x68],rax
    1402:	48 8d 3d df 0c 00 00 	lea    rdi,[rip+0xcdf]        # 20e8 <_IO_stdin_used+0xe8>
    1409:	e8 e2 fc ff ff       	call   10f0 <puts@plt>
    140e:	b8 00 00 00 00       	mov    eax,0x0
    1413:	e8 be fe ff ff       	call   12d6 <prompt>
    1418:	89 45 94             	mov    DWORD PTR [rbp-0x6c],eax
    141b:	83 7d 94 06          	cmp    DWORD PTR [rbp-0x6c],0x6
    141f:	0f 84 ca 00 00 00    	je     14ef <enrollment_simulator+0x133>
    1425:	83 7d 94 06          	cmp    DWORD PTR [rbp-0x6c],0x6
    1429:	7f e3                	jg     140e <enrollment_simulator+0x52>
    142b:	83 7d 94 05          	cmp    DWORD PTR [rbp-0x6c],0x5
    142f:	0f 84 98 00 00 00    	je     14cd <enrollment_simulator+0x111>
    1435:	83 7d 94 05          	cmp    DWORD PTR [rbp-0x6c],0x5
    1439:	7f d3                	jg     140e <enrollment_simulator+0x52>
    143b:	83 7d 94 03          	cmp    DWORD PTR [rbp-0x6c],0x3
    143f:	7f 0b                	jg     144c <enrollment_simulator+0x90>
    1441:	83 7d 94 00          	cmp    DWORD PTR [rbp-0x6c],0x0
    1445:	7f 10                	jg     1457 <enrollment_simulator+0x9b>
    1447:	e9 e1 00 00 00       	jmp    152d <enrollment_simulator+0x171>
    144c:	83 7d 94 04          	cmp    DWORD PTR [rbp-0x6c],0x4
    1450:	74 44                	je     1496 <enrollment_simulator+0xda>
    1452:	e9 d6 00 00 00       	jmp    152d <enrollment_simulator+0x171>
    1457:	48 8d 3d af 0c 00 00 	lea    rdi,[rip+0xcaf]        # 210d <_IO_stdin_used+0x10d>
    145e:	e8 8d fc ff ff       	call   10f0 <puts@plt>
    1463:	48 8d 45 a0          	lea    rax,[rbp-0x60]
    1467:	be 50 00 00 00       	mov    esi,0x50
    146c:	48 89 c7             	mov    rdi,rax
    146f:	e8 f5 fd ff ff       	call   1269 <readInput>
    1474:	48 8d 3d b5 0c 00 00 	lea    rdi,[rip+0xcb5]        # 2130 <_IO_stdin_used+0x130>
    147b:	e8 70 fc ff ff       	call   10f0 <puts@plt>
    1480:	48 8b 45 98          	mov    rax,QWORD PTR [rbp-0x68]
    1484:	be 00 01 00 00       	mov    esi,0x100
    1489:	48 89 c7             	mov    rdi,rax
    148c:	e8 d8 fd ff ff       	call   1269 <readInput>
    1491:	e9 97 00 00 00       	jmp    152d <enrollment_simulator+0x171>
    1496:	48 8d 45 a0          	lea    rax,[rbp-0x60]
    149a:	48 89 c6             	mov    rsi,rax
    149d:	48 8d 3d eb 0c 00 00 	lea    rdi,[rip+0xceb]        # 218f <_IO_stdin_used+0x18f>
    14a4:	b8 00 00 00 00       	mov    eax,0x0
    14a9:	e8 62 fc ff ff       	call   1110 <printf@plt>
    14ae:	48 8d 3d e5 0c 00 00 	lea    rdi,[rip+0xce5]        # 219a <_IO_stdin_used+0x19a>
    14b5:	e8 36 fc ff ff       	call   10f0 <puts@plt>
    14ba:	48 8b 45 98          	mov    rax,QWORD PTR [rbp-0x68]
    14be:	48 89 c7             	mov    rdi,rax
    14c1:	b8 00 00 00 00       	mov    eax,0x0
    14c6:	e8 45 fc ff ff       	call   1110 <printf@plt>
    14cb:	eb 60                	jmp    152d <enrollment_simulator+0x171>
    14cd:	48 8d 3d e4 0c 00 00 	lea    rdi,[rip+0xce4]        # 21b8 <_IO_stdin_used+0x1b8>
    14d4:	e8 17 fc ff ff       	call   10f0 <puts@plt>
    14d9:	48 8b 45 98          	mov    rax,QWORD PTR [rbp-0x68]
    14dd:	48 89 c7             	mov    rdi,rax
    14e0:	e8 fb fb ff ff       	call   10e0 <free@plt>
    14e5:	bf 01 00 00 00       	mov    edi,0x1
    14ea:	e8 81 fc ff ff       	call   1170 <exit@plt>
    14ef:	48 8d 3d fa 0c 00 00 	lea    rdi,[rip+0xcfa]        # 21f0 <_IO_stdin_used+0x1f0>
    14f6:	e8 f5 fb ff ff       	call   10f0 <puts@plt>
    14fb:	e8 30 fc ff ff       	call   1130 <getchar@plt>
    1500:	e8 2b fc ff ff       	call   1130 <getchar@plt>
    1505:	83 f8 79             	cmp    eax,0x79
    1508:	75 16                	jne    1520 <enrollment_simulator+0x164>
    150a:	48 8d 3d 36 0d 00 00 	lea    rdi,[rip+0xd36]        # 2247 <_IO_stdin_used+0x247>
    1511:	e8 da fb ff ff       	call   10f0 <puts@plt>
    1516:	bf 01 00 00 00       	mov    edi,0x1
    151b:	e8 50 fc ff ff       	call   1170 <exit@plt>
    1520:	48 8d 3d 24 0d 00 00 	lea    rdi,[rip+0xd24]        # 224b <_IO_stdin_used+0x24b>
    1527:	e8 c4 fb ff ff       	call   10f0 <puts@plt>
    152c:	90                   	nop
    152d:	e9 dc fe ff ff       	jmp    140e <enrollment_simulator+0x52>

0000000000001532 <main>:
    1532:	f3 0f 1e fa          	endbr64
    1536:	55                   	push   rbp
    1537:	48 89 e5             	mov    rbp,rsp
    153a:	48 8b 05 ef 2a 00 00 	mov    rax,QWORD PTR [rip+0x2aef]        # 4030 <stdin@GLIBC_2.2.5>
    1541:	b9 00 00 00 00       	mov    ecx,0x0
    1546:	ba 02 00 00 00       	mov    edx,0x2
    154b:	be 00 00 00 00       	mov    esi,0x0
    1550:	48 89 c7             	mov    rdi,rax
    1553:	e8 f8 fb ff ff       	call   1150 <setvbuf@plt>
    1558:	48 8b 05 c1 2a 00 00 	mov    rax,QWORD PTR [rip+0x2ac1]        # 4020 <stdout@GLIBC_2.2.5>
    155f:	b9 00 00 00 00       	mov    ecx,0x0
    1564:	ba 02 00 00 00       	mov    edx,0x2
    1569:	be 00 00 00 00       	mov    esi,0x0
    156e:	48 89 c7             	mov    rdi,rax
    1571:	e8 da fb ff ff       	call   1150 <setvbuf@plt>
    1576:	48 8b 05 c3 2a 00 00 	mov    rax,QWORD PTR [rip+0x2ac3]        # 4040 <stderr@GLIBC_2.2.5>
    157d:	b9 00 00 00 00       	mov    ecx,0x0
    1582:	ba 02 00 00 00       	mov    edx,0x2
    1587:	be 00 00 00 00       	mov    esi,0x0
    158c:	48 89 c7             	mov    rdi,rax
    158f:	e8 bc fb ff ff       	call   1150 <setvbuf@plt>
    1594:	b8 00 00 00 00       	mov    eax,0x0
    1599:	e8 1e fe ff ff       	call   13bc <enrollment_simulator>
    159e:	b8 00 00 00 00       	mov    eax,0x0
    15a3:	5d                   	pop    rbp
    15a4:	c3                   	ret
    15a5:	66 2e 0f 1f 84 00 00 	cs nop WORD PTR [rax+rax*1+0x0]
    15ac:	00 00 00 
    15af:	90                   	nop

00000000000015b0 <__libc_csu_init>:
    15b0:	f3 0f 1e fa          	endbr64
    15b4:	41 57                	push   r15
    15b6:	4c 8d 3d b3 27 00 00 	lea    r15,[rip+0x27b3]        # 3d70 <__frame_dummy_init_array_entry>
    15bd:	41 56                	push   r14
    15bf:	49 89 d6             	mov    r14,rdx
    15c2:	41 55                	push   r13
    15c4:	49 89 f5             	mov    r13,rsi
    15c7:	41 54                	push   r12
    15c9:	41 89 fc             	mov    r12d,edi
    15cc:	55                   	push   rbp
    15cd:	48 8d 2d a4 27 00 00 	lea    rbp,[rip+0x27a4]        # 3d78 <__do_global_dtors_aux_fini_array_entry>
    15d4:	53                   	push   rbx
    15d5:	4c 29 fd             	sub    rbp,r15
    15d8:	48 83 ec 08          	sub    rsp,0x8
    15dc:	e8 1f fa ff ff       	call   1000 <_init>
    15e1:	48 c1 fd 03          	sar    rbp,0x3
    15e5:	74 1f                	je     1606 <__libc_csu_init+0x56>
    15e7:	31 db                	xor    ebx,ebx
    15e9:	0f 1f 80 00 00 00 00 	nop    DWORD PTR [rax+0x0]
    15f0:	4c 89 f2             	mov    rdx,r14
    15f3:	4c 89 ee             	mov    rsi,r13
    15f6:	44 89 e7             	mov    edi,r12d
    15f9:	41 ff 14 df          	call   QWORD PTR [r15+rbx*8]
    15fd:	48 83 c3 01          	add    rbx,0x1
    1601:	48 39 dd             	cmp    rbp,rbx
    1604:	75 ea                	jne    15f0 <__libc_csu_init+0x40>
    1606:	48 83 c4 08          	add    rsp,0x8
    160a:	5b                   	pop    rbx
    160b:	5d                   	pop    rbp
    160c:	41 5c                	pop    r12
    160e:	41 5d                	pop    r13
    1610:	41 5e                	pop    r14
    1612:	41 5f                	pop    r15
    1614:	c3                   	ret
    1615:	66 66 2e 0f 1f 84 00 	data16 cs nop WORD PTR [rax+rax*1+0x0]
    161c:	00 00 00 00 

0000000000001620 <__libc_csu_fini>:
    1620:	f3 0f 1e fa          	endbr64
    1624:	c3                   	ret

Disassembly of section .fini:

0000000000001628 <_fini>:
    1628:	f3 0f 1e fa          	endbr64
    162c:	48 83 ec 08          	sub    rsp,0x8
    1630:	48 83 c4 08          	add    rsp,0x8
    1634:	c3                   	ret
