
TwTOF:     file format elf64-x86-64


Disassembly of section .text:

0000000000001000 <_start>:
    1000:	48 81 ec 00 00 01 00 	sub    rsp,0x10000
    1007:	48 89 e5             	mov    rbp,rsp
    100a:	48 83 c4 08          	add    rsp,0x8
    100e:	e8 e5 00 00 00       	call   10f8 <main>

0000000000001013 <end>:
    1013:	89 c7                	mov    edi,eax
    1015:	b8 3c 00 00 00       	mov    eax,0x3c
    101a:	0f 05                	syscall

000000000000101c <gets>:
    101c:	48 83 c4 08          	add    rsp,0x8
    1020:	48 83 c4 08          	add    rsp,0x8
    1024:	55                   	push   rbp
    1025:	48 83 c4 08          	add    rsp,0x8
    1029:	48 89 e5             	mov    rbp,rsp
    102c:	48 83 c4 08          	add    rsp,0x8
    1030:	57                   	push   rdi
    1031:	48 83 c4 08          	add    rsp,0x8

0000000000001035 <gets_loop>:
    1035:	ba 01 00 00 00       	mov    edx,0x1
    103a:	48 8d 37             	lea    rsi,[rdi]
    103d:	31 ff                	xor    edi,edi
    103f:	31 c0                	xor    eax,eax
    1041:	0f 05                	syscall
    1043:	48 8b 7d 00          	mov    rdi,QWORD PTR [rbp+0x0]
    1047:	80 3f 0a             	cmp    BYTE PTR [rdi],0xa
    104a:	74 09                	je     1055 <gets_end>
    104c:	48 ff c7             	inc    rdi
    104f:	48 ff 45 00          	inc    QWORD PTR [rbp+0x0]
    1053:	eb e0                	jmp    1035 <gets_loop>

0000000000001055 <gets_end>:
    1055:	48 89 ec             	mov    rsp,rbp
    1058:	48 83 ec 08          	sub    rsp,0x8
    105c:	5d                   	pop    rbp
    105d:	48 83 ec 08          	sub    rsp,0x8
    1061:	48 83 ec 08          	sub    rsp,0x8
    1065:	59                   	pop    rcx
    1066:	48 83 ec 08          	sub    rsp,0x8
    106a:	ff e1                	jmp    rcx

000000000000106c <strcmp>:
    106c:	48 83 c4 08          	add    rsp,0x8
    1070:	48 83 c4 08          	add    rsp,0x8
    1074:	55                   	push   rbp
    1075:	48 83 c4 08          	add    rsp,0x8
    1079:	48 89 e5             	mov    rbp,rsp
    107c:	31 c0                	xor    eax,eax

000000000000107e <strcmp_loop>:
    107e:	0f b6 0c 07          	movzx  ecx,BYTE PTR [rdi+rax*1]
    1082:	0f b6 14 06          	movzx  edx,BYTE PTR [rsi+rax*1]
    1086:	48 ff c0             	inc    rax
    1089:	39 d1                	cmp    ecx,edx
    108b:	74 02                	je     108f <strcmp_loop2>
    108d:	eb 08                	jmp    1097 <strcmp_diff>

000000000000108f <strcmp_loop2>:
    108f:	85 c9                	test   ecx,ecx
    1091:	74 02                	je     1095 <strcmp_same>
    1093:	eb e9                	jmp    107e <strcmp_loop>

0000000000001095 <strcmp_same>:
    1095:	31 c0                	xor    eax,eax

0000000000001097 <strcmp_diff>:
    1097:	48 89 ec             	mov    rsp,rbp
    109a:	48 83 ec 08          	sub    rsp,0x8
    109e:	5d                   	pop    rbp
    109f:	48 83 ec 08          	sub    rsp,0x8
    10a3:	48 83 ec 08          	sub    rsp,0x8
    10a7:	59                   	pop    rcx
    10a8:	48 83 ec 08          	sub    rsp,0x8
    10ac:	ff e1                	jmp    rcx

00000000000010ae <format_hex>:
    10ae:	48 83 c4 08          	add    rsp,0x8
    10b2:	48 83 c4 08          	add    rsp,0x8
    10b6:	55                   	push   rbp
    10b7:	48 83 c4 08          	add    rsp,0x8
    10bb:	48 89 e5             	mov    rbp,rsp
    10be:	b9 10 00 00 00       	mov    ecx,0x10

00000000000010c3 <format_hex.digit_loop>:
    10c3:	48 c1 c6 04          	rol    rsi,0x4
    10c7:	48 89 f2             	mov    rdx,rsi
    10ca:	48 83 e2 0f          	and    rdx,0xf
    10ce:	48 8d 05 d8 50 00 00 	lea    rax,[rip+0x50d8]        # 61ad <hex_lut>
    10d5:	8a 14 10             	mov    dl,BYTE PTR [rax+rdx*1]
    10d8:	88 17                	mov    BYTE PTR [rdi],dl
    10da:	48 ff c7             	inc    rdi
    10dd:	ff c9                	dec    ecx
    10df:	75 e2                	jne    10c3 <format_hex.digit_loop>
    10e1:	48 89 ec             	mov    rsp,rbp
    10e4:	48 83 ec 08          	sub    rsp,0x8
    10e8:	5d                   	pop    rbp
    10e9:	48 83 ec 08          	sub    rsp,0x8
    10ed:	48 83 ec 08          	sub    rsp,0x8
    10f1:	59                   	pop    rcx
    10f2:	48 83 ec 08          	sub    rsp,0x8
    10f6:	ff e1                	jmp    rcx

00000000000010f8 <main>:
    10f8:	48 83 c4 08          	add    rsp,0x8
    10fc:	48 83 c4 08          	add    rsp,0x8
    1100:	55                   	push   rbp
    1101:	48 83 c4 08          	add    rsp,0x8
    1105:	48 89 e5             	mov    rbp,rsp
    1108:	ba 33 00 00 00       	mov    edx,0x33
    110d:	48 8d 35 ec 4e 00 00 	lea    rsi,[rip+0x4eec]        # 6000 <msg1>
    1114:	bf 01 00 00 00       	mov    edi,0x1
    1119:	b8 01 00 00 00       	mov    eax,0x1
    111e:	0f 05                	syscall
    1120:	ba 19 00 00 00       	mov    edx,0x19
    1125:	48 8d 35 07 4f 00 00 	lea    rsi,[rip+0x4f07]        # 6033 <msg7>
    112c:	bf 01 00 00 00       	mov    edi,0x1
    1131:	b8 01 00 00 00       	mov    eax,0x1
    1136:	0f 05                	syscall
    1138:	48 83 c4 10          	add    rsp,0x10
    113c:	48 8d 7d 00          	lea    rdi,[rbp+0x0]
    1140:	48 89 ee             	mov    rsi,rbp
    1143:	48 83 c4 08          	add    rsp,0x8
    1147:	e8 62 ff ff ff       	call   10ae <format_hex>
    114c:	ba 10 00 00 00       	mov    edx,0x10
    1151:	48 8d 75 00          	lea    rsi,[rbp+0x0]
    1155:	bf 01 00 00 00       	mov    edi,0x1
    115a:	b8 01 00 00 00       	mov    eax,0x1
    115f:	0f 05                	syscall
    1161:	ba 11 00 00 00       	mov    edx,0x11
    1166:	48 8d 35 df 4e 00 00 	lea    rsi,[rip+0x4edf]        # 604c <msg8>
    116d:	bf 01 00 00 00       	mov    edi,0x1
    1172:	b8 01 00 00 00       	mov    eax,0x1
    1177:	0f 05                	syscall
    1179:	48 8d 7d 00          	lea    rdi,[rbp+0x0]
    117d:	48 8d 35 74 ff ff ff 	lea    rsi,[rip+0xffffffffffffff74]        # 10f8 <main>
    1184:	90                   	nop
    1185:	48 83 c4 08          	add    rsp,0x8
    1189:	e8 20 ff ff ff       	call   10ae <format_hex>
    118e:	ba 10 00 00 00       	mov    edx,0x10
    1193:	48 8d 75 00          	lea    rsi,[rbp+0x0]
    1197:	bf 01 00 00 00       	mov    edi,0x1
    119c:	b8 01 00 00 00       	mov    eax,0x1
    11a1:	0f 05                	syscall
    11a3:	ba 04 00 00 00       	mov    edx,0x4
    11a8:	48 8d 35 ae 4e 00 00 	lea    rsi,[rip+0x4eae]        # 605d <msg11>
    11af:	bf 01 00 00 00       	mov    edi,0x1
    11b4:	b8 01 00 00 00       	mov    eax,0x1
    11b9:	0f 05                	syscall
    11bb:	ba 23 00 00 00       	mov    edx,0x23
    11c0:	48 8d 35 9a 4e 00 00 	lea    rsi,[rip+0x4e9a]        # 6061 <msg2>
    11c7:	bf 01 00 00 00       	mov    edi,0x1
    11cc:	b8 01 00 00 00       	mov    eax,0x1
    11d1:	0f 05                	syscall
    11d3:	48 81 c4 f0 0f 00 00 	add    rsp,0xff0
    11da:	48 8d 7d 00          	lea    rdi,[rbp+0x0]
    11de:	48 83 c4 08          	add    rsp,0x8
    11e2:	e8 35 fe ff ff       	call   101c <gets>
    11e7:	48 8d 35 96 4e 00 00 	lea    rsi,[rip+0x4e96]        # 6084 <msg3>
    11ee:	48 8d 3d 0f 6e 00 00 	lea    rdi,[rip+0x6e0f]        # 8004 <__bss_start>
    11f5:	90                   	nop
    11f6:	48 83 c4 08          	add    rsp,0x8
    11fa:	e8 6d fe ff ff       	call   106c <strcmp>
    11ff:	85 c0                	test   eax,eax
    1201:	74 1a                	je     121d <main1>
    1203:	ba 26 00 00 00       	mov    edx,0x26
    1208:	48 8d 35 04 4f 00 00 	lea    rsi,[rip+0x4f04]        # 6113 <msg4>
    120f:	bf 01 00 00 00       	mov    edi,0x1
    1214:	b8 01 00 00 00       	mov    eax,0x1
    1219:	0f 05                	syscall
    121b:	eb 21                	jmp    123e <main2>

000000000000121d <main1>:
    121d:	ba 18 00 00 00       	mov    edx,0x18
    1222:	48 8d 35 10 4f 00 00 	lea    rsi,[rip+0x4f10]        # 6139 <msg5>
    1229:	bf 01 00 00 00       	mov    edi,0x1
    122e:	b8 01 00 00 00       	mov    eax,0x1
    1233:	0f 05                	syscall
    1235:	48 83 c4 08          	add    rsp,0x8
    1239:	e8 19 00 00 00       	call   1257 <read_flag>

000000000000123e <main2>:
    123e:	31 c0                	xor    eax,eax
    1240:	48 89 ec             	mov    rsp,rbp
    1243:	48 83 ec 08          	sub    rsp,0x8
    1247:	5d                   	pop    rbp
    1248:	48 83 ec 08          	sub    rsp,0x8
    124c:	48 83 ec 08          	sub    rsp,0x8
    1250:	59                   	pop    rcx
    1251:	48 83 ec 08          	sub    rsp,0x8
    1255:	ff e1                	jmp    rcx

0000000000001257 <read_flag>:
    1257:	48 83 c4 08          	add    rsp,0x8
    125b:	48 83 c4 08          	add    rsp,0x8
    125f:	55                   	push   rbp
    1260:	48 83 c4 08          	add    rsp,0x8
    1264:	48 89 e5             	mov    rbp,rsp
    1267:	48 81 c4 08 10 00 00 	add    rsp,0x1008
    126e:	be 00 00 00 00       	mov    esi,0x0
    1273:	48 8d 3d 43 4f 00 00 	lea    rdi,[rip+0x4f43]        # 61bd <filename>
    127a:	b8 02 00 00 00       	mov    eax,0x2
    127f:	0f 05                	syscall
    1281:	48 89 85 00 10 00 00 	mov    QWORD PTR [rbp+0x1000],rax
    1288:	ba 00 10 00 00       	mov    edx,0x1000
    128d:	48 8d 75 00          	lea    rsi,[rbp+0x0]
    1291:	48 89 c7             	mov    rdi,rax
    1294:	31 c0                	xor    eax,eax
    1296:	0f 05                	syscall
    1298:	48 8b bd 00 10 00 00 	mov    rdi,QWORD PTR [rbp+0x1000]
    129f:	48 89 85 00 10 00 00 	mov    QWORD PTR [rbp+0x1000],rax
    12a6:	b8 03 00 00 00       	mov    eax,0x3
    12ab:	0f 05                	syscall
    12ad:	48 8d 35 d0 4d 00 00 	lea    rsi,[rip+0x4dd0]        # 6084 <msg3>
    12b4:	48 8d 3d 49 6d 00 00 	lea    rdi,[rip+0x6d49]        # 8004 <__bss_start>
    12bb:	90                   	nop
    12bc:	48 83 c4 08          	add    rsp,0x8
    12c0:	e8 a7 fd ff ff       	call   106c <strcmp>
    12c5:	85 c0                	test   eax,eax
    12c7:	74 1a                	je     12e3 <read_flag2>
    12c9:	ba 30 00 00 00       	mov    edx,0x30
    12ce:	48 8d 35 7c 4e 00 00 	lea    rsi,[rip+0x4e7c]        # 6151 <msg6>
    12d5:	bf 01 00 00 00       	mov    edi,0x1
    12da:	b8 01 00 00 00       	mov    eax,0x1
    12df:	0f 05                	syscall
    12e1:	eb 5b                	jmp    133e <read_flag_end>

00000000000012e3 <read_flag2>:
    12e3:	48 8b 85 00 10 00 00 	mov    rax,QWORD PTR [rbp+0x1000]
    12ea:	48 85 c0             	test   rax,rax
    12ed:	74 37                	je     1326 <read_flag3>
    12ef:	48 83 f8 00          	cmp    rax,0x0
    12f3:	7c 31                	jl     1326 <read_flag3>
    12f5:	ba 05 00 00 00       	mov    edx,0x5
    12fa:	48 8d 35 80 4e 00 00 	lea    rsi,[rip+0x4e80]        # 6181 <msg9>
    1301:	bf 01 00 00 00       	mov    edi,0x1
    1306:	b8 01 00 00 00       	mov    eax,0x1
    130b:	0f 05                	syscall
    130d:	48 8b 95 00 10 00 00 	mov    rdx,QWORD PTR [rbp+0x1000]
    1314:	48 8d 75 00          	lea    rsi,[rbp+0x0]
    1318:	bf 01 00 00 00       	mov    edi,0x1
    131d:	b8 01 00 00 00       	mov    eax,0x1
    1322:	0f 05                	syscall
    1324:	eb 18                	jmp    133e <read_flag_end>

0000000000001326 <read_flag3>:
    1326:	ba 27 00 00 00       	mov    edx,0x27
    132b:	48 8d 35 54 4e 00 00 	lea    rsi,[rip+0x4e54]        # 6186 <msg10>
    1332:	bf 01 00 00 00       	mov    edi,0x1
    1337:	b8 01 00 00 00       	mov    eax,0x1
    133c:	0f 05                	syscall

000000000000133e <read_flag_end>:
    133e:	31 c0                	xor    eax,eax
    1340:	e9 ce fc ff ff       	jmp    1013 <end>

0000000000001345 <say0>:
    1345:	48 83 c4 08          	add    rsp,0x8
    1349:	48 83 c4 08          	add    rsp,0x8
    134d:	55                   	push   rbp
    134e:	48 83 c4 08          	add    rsp,0x8
    1352:	48 89 e5             	mov    rbp,rsp
    1355:	8b 0d a5 6c 00 00    	mov    ecx,DWORD PTR [rip+0x6ca5]        # 8000 <heard>
    135b:	48 8d 05 a2 6c 00 00 	lea    rax,[rip+0x6ca2]        # 8004 <__bss_start>
    1362:	c6 04 08 00          	mov    BYTE PTR [rax+rcx*1],0x0
    1366:	ff 05 94 6c 00 00    	inc    DWORD PTR [rip+0x6c94]        # 8000 <heard>
    136c:	48 89 ec             	mov    rsp,rbp
    136f:	48 83 ec 08          	sub    rsp,0x8
    1373:	5d                   	pop    rbp
    1374:	48 83 ec 08          	sub    rsp,0x8
    1378:	48 83 ec 08          	sub    rsp,0x8
    137c:	59                   	pop    rcx
    137d:	48 83 ec 08          	sub    rsp,0x8
    1381:	ff e1                	jmp    rcx

0000000000001383 <say1>:
    1383:	48 83 c4 08          	add    rsp,0x8
    1387:	48 83 c4 08          	add    rsp,0x8
    138b:	55                   	push   rbp
    138c:	48 83 c4 08          	add    rsp,0x8
    1390:	48 89 e5             	mov    rbp,rsp
    1393:	8b 0d 67 6c 00 00    	mov    ecx,DWORD PTR [rip+0x6c67]        # 8000 <heard>
    1399:	48 8d 05 64 6c 00 00 	lea    rax,[rip+0x6c64]        # 8004 <__bss_start>
    13a0:	c6 04 08 01          	mov    BYTE PTR [rax+rcx*1],0x1
    13a4:	ff 05 56 6c 00 00    	inc    DWORD PTR [rip+0x6c56]        # 8000 <heard>
    13aa:	48 89 ec             	mov    rsp,rbp
    13ad:	48 83 ec 08          	sub    rsp,0x8
    13b1:	5d                   	pop    rbp
    13b2:	48 83 ec 08          	sub    rsp,0x8
    13b6:	48 83 ec 08          	sub    rsp,0x8
    13ba:	59                   	pop    rcx
    13bb:	48 83 ec 08          	sub    rsp,0x8
    13bf:	ff e1                	jmp    rcx

00000000000013c1 <say2>:
    13c1:	48 83 c4 08          	add    rsp,0x8
    13c5:	48 83 c4 08          	add    rsp,0x8
    13c9:	55                   	push   rbp
    13ca:	48 83 c4 08          	add    rsp,0x8
    13ce:	48 89 e5             	mov    rbp,rsp
    13d1:	8b 0d 29 6c 00 00    	mov    ecx,DWORD PTR [rip+0x6c29]        # 8000 <heard>
    13d7:	48 8d 05 26 6c 00 00 	lea    rax,[rip+0x6c26]        # 8004 <__bss_start>
    13de:	c6 04 08 02          	mov    BYTE PTR [rax+rcx*1],0x2
    13e2:	ff 05 18 6c 00 00    	inc    DWORD PTR [rip+0x6c18]        # 8000 <heard>
    13e8:	48 89 ec             	mov    rsp,rbp
    13eb:	48 83 ec 08          	sub    rsp,0x8
    13ef:	5d                   	pop    rbp
    13f0:	48 83 ec 08          	sub    rsp,0x8
    13f4:	48 83 ec 08          	sub    rsp,0x8
    13f8:	59                   	pop    rcx
    13f9:	48 83 ec 08          	sub    rsp,0x8
    13fd:	ff e1                	jmp    rcx

00000000000013ff <say3>:
    13ff:	48 83 c4 08          	add    rsp,0x8
    1403:	48 83 c4 08          	add    rsp,0x8
    1407:	55                   	push   rbp
    1408:	48 83 c4 08          	add    rsp,0x8
    140c:	48 89 e5             	mov    rbp,rsp
    140f:	8b 0d eb 6b 00 00    	mov    ecx,DWORD PTR [rip+0x6beb]        # 8000 <heard>
    1415:	48 8d 05 e8 6b 00 00 	lea    rax,[rip+0x6be8]        # 8004 <__bss_start>
    141c:	c6 04 08 03          	mov    BYTE PTR [rax+rcx*1],0x3
    1420:	ff 05 da 6b 00 00    	inc    DWORD PTR [rip+0x6bda]        # 8000 <heard>
    1426:	48 89 ec             	mov    rsp,rbp
    1429:	48 83 ec 08          	sub    rsp,0x8
    142d:	5d                   	pop    rbp
    142e:	48 83 ec 08          	sub    rsp,0x8
    1432:	48 83 ec 08          	sub    rsp,0x8
    1436:	59                   	pop    rcx
    1437:	48 83 ec 08          	sub    rsp,0x8
    143b:	ff e1                	jmp    rcx

000000000000143d <say4>:
    143d:	48 83 c4 08          	add    rsp,0x8
    1441:	48 83 c4 08          	add    rsp,0x8
    1445:	55                   	push   rbp
    1446:	48 83 c4 08          	add    rsp,0x8
    144a:	48 89 e5             	mov    rbp,rsp
    144d:	8b 0d ad 6b 00 00    	mov    ecx,DWORD PTR [rip+0x6bad]        # 8000 <heard>
    1453:	48 8d 05 aa 6b 00 00 	lea    rax,[rip+0x6baa]        # 8004 <__bss_start>
    145a:	c6 04 08 04          	mov    BYTE PTR [rax+rcx*1],0x4
    145e:	ff 05 9c 6b 00 00    	inc    DWORD PTR [rip+0x6b9c]        # 8000 <heard>
    1464:	48 89 ec             	mov    rsp,rbp
    1467:	48 83 ec 08          	sub    rsp,0x8
    146b:	5d                   	pop    rbp
    146c:	48 83 ec 08          	sub    rsp,0x8
    1470:	48 83 ec 08          	sub    rsp,0x8
    1474:	59                   	pop    rcx
    1475:	48 83 ec 08          	sub    rsp,0x8
    1479:	ff e1                	jmp    rcx

000000000000147b <say5>:
    147b:	48 83 c4 08          	add    rsp,0x8
    147f:	48 83 c4 08          	add    rsp,0x8
    1483:	55                   	push   rbp
    1484:	48 83 c4 08          	add    rsp,0x8
    1488:	48 89 e5             	mov    rbp,rsp
    148b:	8b 0d 6f 6b 00 00    	mov    ecx,DWORD PTR [rip+0x6b6f]        # 8000 <heard>
    1491:	48 8d 05 6c 6b 00 00 	lea    rax,[rip+0x6b6c]        # 8004 <__bss_start>
    1498:	c6 04 08 05          	mov    BYTE PTR [rax+rcx*1],0x5
    149c:	ff 05 5e 6b 00 00    	inc    DWORD PTR [rip+0x6b5e]        # 8000 <heard>
    14a2:	48 89 ec             	mov    rsp,rbp
    14a5:	48 83 ec 08          	sub    rsp,0x8
    14a9:	5d                   	pop    rbp
    14aa:	48 83 ec 08          	sub    rsp,0x8
    14ae:	48 83 ec 08          	sub    rsp,0x8
    14b2:	59                   	pop    rcx
    14b3:	48 83 ec 08          	sub    rsp,0x8
    14b7:	ff e1                	jmp    rcx

00000000000014b9 <say6>:
    14b9:	48 83 c4 08          	add    rsp,0x8
    14bd:	48 83 c4 08          	add    rsp,0x8
    14c1:	55                   	push   rbp
    14c2:	48 83 c4 08          	add    rsp,0x8
    14c6:	48 89 e5             	mov    rbp,rsp
    14c9:	8b 0d 31 6b 00 00    	mov    ecx,DWORD PTR [rip+0x6b31]        # 8000 <heard>
    14cf:	48 8d 05 2e 6b 00 00 	lea    rax,[rip+0x6b2e]        # 8004 <__bss_start>
    14d6:	c6 04 08 06          	mov    BYTE PTR [rax+rcx*1],0x6
    14da:	ff 05 20 6b 00 00    	inc    DWORD PTR [rip+0x6b20]        # 8000 <heard>
    14e0:	48 89 ec             	mov    rsp,rbp
    14e3:	48 83 ec 08          	sub    rsp,0x8
    14e7:	5d                   	pop    rbp
    14e8:	48 83 ec 08          	sub    rsp,0x8
    14ec:	48 83 ec 08          	sub    rsp,0x8
    14f0:	59                   	pop    rcx
    14f1:	48 83 ec 08          	sub    rsp,0x8
    14f5:	ff e1                	jmp    rcx

00000000000014f7 <say7>:
    14f7:	48 83 c4 08          	add    rsp,0x8
    14fb:	48 83 c4 08          	add    rsp,0x8
    14ff:	55                   	push   rbp
    1500:	48 83 c4 08          	add    rsp,0x8
    1504:	48 89 e5             	mov    rbp,rsp
    1507:	8b 0d f3 6a 00 00    	mov    ecx,DWORD PTR [rip+0x6af3]        # 8000 <heard>
    150d:	48 8d 05 f0 6a 00 00 	lea    rax,[rip+0x6af0]        # 8004 <__bss_start>
    1514:	c6 04 08 07          	mov    BYTE PTR [rax+rcx*1],0x7
    1518:	ff 05 e2 6a 00 00    	inc    DWORD PTR [rip+0x6ae2]        # 8000 <heard>
    151e:	48 89 ec             	mov    rsp,rbp
    1521:	48 83 ec 08          	sub    rsp,0x8
    1525:	5d                   	pop    rbp
    1526:	48 83 ec 08          	sub    rsp,0x8
    152a:	48 83 ec 08          	sub    rsp,0x8
    152e:	59                   	pop    rcx
    152f:	48 83 ec 08          	sub    rsp,0x8
    1533:	ff e1                	jmp    rcx

0000000000001535 <say8>:
    1535:	48 83 c4 08          	add    rsp,0x8
    1539:	48 83 c4 08          	add    rsp,0x8
    153d:	55                   	push   rbp
    153e:	48 83 c4 08          	add    rsp,0x8
    1542:	48 89 e5             	mov    rbp,rsp
    1545:	8b 0d b5 6a 00 00    	mov    ecx,DWORD PTR [rip+0x6ab5]        # 8000 <heard>
    154b:	48 8d 05 b2 6a 00 00 	lea    rax,[rip+0x6ab2]        # 8004 <__bss_start>
    1552:	c6 04 08 08          	mov    BYTE PTR [rax+rcx*1],0x8
    1556:	ff 05 a4 6a 00 00    	inc    DWORD PTR [rip+0x6aa4]        # 8000 <heard>
    155c:	48 89 ec             	mov    rsp,rbp
    155f:	48 83 ec 08          	sub    rsp,0x8
    1563:	5d                   	pop    rbp
    1564:	48 83 ec 08          	sub    rsp,0x8
    1568:	48 83 ec 08          	sub    rsp,0x8
    156c:	59                   	pop    rcx
    156d:	48 83 ec 08          	sub    rsp,0x8
    1571:	ff e1                	jmp    rcx

0000000000001573 <say9>:
    1573:	48 83 c4 08          	add    rsp,0x8
    1577:	48 83 c4 08          	add    rsp,0x8
    157b:	55                   	push   rbp
    157c:	48 83 c4 08          	add    rsp,0x8
    1580:	48 89 e5             	mov    rbp,rsp
    1583:	8b 0d 77 6a 00 00    	mov    ecx,DWORD PTR [rip+0x6a77]        # 8000 <heard>
    1589:	48 8d 05 74 6a 00 00 	lea    rax,[rip+0x6a74]        # 8004 <__bss_start>
    1590:	c6 04 08 09          	mov    BYTE PTR [rax+rcx*1],0x9
    1594:	ff 05 66 6a 00 00    	inc    DWORD PTR [rip+0x6a66]        # 8000 <heard>
    159a:	48 89 ec             	mov    rsp,rbp
    159d:	48 83 ec 08          	sub    rsp,0x8
    15a1:	5d                   	pop    rbp
    15a2:	48 83 ec 08          	sub    rsp,0x8
    15a6:	48 83 ec 08          	sub    rsp,0x8
    15aa:	59                   	pop    rcx
    15ab:	48 83 ec 08          	sub    rsp,0x8
    15af:	ff e1                	jmp    rcx

00000000000015b1 <say10>:
    15b1:	48 83 c4 08          	add    rsp,0x8
    15b5:	48 83 c4 08          	add    rsp,0x8
    15b9:	55                   	push   rbp
    15ba:	48 83 c4 08          	add    rsp,0x8
    15be:	48 89 e5             	mov    rbp,rsp
    15c1:	8b 0d 39 6a 00 00    	mov    ecx,DWORD PTR [rip+0x6a39]        # 8000 <heard>
    15c7:	48 8d 05 36 6a 00 00 	lea    rax,[rip+0x6a36]        # 8004 <__bss_start>
    15ce:	c6 04 08 0a          	mov    BYTE PTR [rax+rcx*1],0xa
    15d2:	ff 05 28 6a 00 00    	inc    DWORD PTR [rip+0x6a28]        # 8000 <heard>
    15d8:	48 89 ec             	mov    rsp,rbp
    15db:	48 83 ec 08          	sub    rsp,0x8
    15df:	5d                   	pop    rbp
    15e0:	48 83 ec 08          	sub    rsp,0x8
    15e4:	48 83 ec 08          	sub    rsp,0x8
    15e8:	59                   	pop    rcx
    15e9:	48 83 ec 08          	sub    rsp,0x8
    15ed:	ff e1                	jmp    rcx

00000000000015ef <say11>:
    15ef:	48 83 c4 08          	add    rsp,0x8
    15f3:	48 83 c4 08          	add    rsp,0x8
    15f7:	55                   	push   rbp
    15f8:	48 83 c4 08          	add    rsp,0x8
    15fc:	48 89 e5             	mov    rbp,rsp
    15ff:	8b 0d fb 69 00 00    	mov    ecx,DWORD PTR [rip+0x69fb]        # 8000 <heard>
    1605:	48 8d 05 f8 69 00 00 	lea    rax,[rip+0x69f8]        # 8004 <__bss_start>
    160c:	c6 04 08 0b          	mov    BYTE PTR [rax+rcx*1],0xb
    1610:	ff 05 ea 69 00 00    	inc    DWORD PTR [rip+0x69ea]        # 8000 <heard>
    1616:	48 89 ec             	mov    rsp,rbp
    1619:	48 83 ec 08          	sub    rsp,0x8
    161d:	5d                   	pop    rbp
    161e:	48 83 ec 08          	sub    rsp,0x8
    1622:	48 83 ec 08          	sub    rsp,0x8
    1626:	59                   	pop    rcx
    1627:	48 83 ec 08          	sub    rsp,0x8
    162b:	ff e1                	jmp    rcx

000000000000162d <say12>:
    162d:	48 83 c4 08          	add    rsp,0x8
    1631:	48 83 c4 08          	add    rsp,0x8
    1635:	55                   	push   rbp
    1636:	48 83 c4 08          	add    rsp,0x8
    163a:	48 89 e5             	mov    rbp,rsp
    163d:	8b 0d bd 69 00 00    	mov    ecx,DWORD PTR [rip+0x69bd]        # 8000 <heard>
    1643:	48 8d 05 ba 69 00 00 	lea    rax,[rip+0x69ba]        # 8004 <__bss_start>
    164a:	c6 04 08 0c          	mov    BYTE PTR [rax+rcx*1],0xc
    164e:	ff 05 ac 69 00 00    	inc    DWORD PTR [rip+0x69ac]        # 8000 <heard>
    1654:	48 89 ec             	mov    rsp,rbp
    1657:	48 83 ec 08          	sub    rsp,0x8
    165b:	5d                   	pop    rbp
    165c:	48 83 ec 08          	sub    rsp,0x8
    1660:	48 83 ec 08          	sub    rsp,0x8
    1664:	59                   	pop    rcx
    1665:	48 83 ec 08          	sub    rsp,0x8
    1669:	ff e1                	jmp    rcx

000000000000166b <say13>:
    166b:	48 83 c4 08          	add    rsp,0x8
    166f:	48 83 c4 08          	add    rsp,0x8
    1673:	55                   	push   rbp
    1674:	48 83 c4 08          	add    rsp,0x8
    1678:	48 89 e5             	mov    rbp,rsp
    167b:	8b 0d 7f 69 00 00    	mov    ecx,DWORD PTR [rip+0x697f]        # 8000 <heard>
    1681:	48 8d 05 7c 69 00 00 	lea    rax,[rip+0x697c]        # 8004 <__bss_start>
    1688:	c6 04 08 0d          	mov    BYTE PTR [rax+rcx*1],0xd
    168c:	ff 05 6e 69 00 00    	inc    DWORD PTR [rip+0x696e]        # 8000 <heard>
    1692:	48 89 ec             	mov    rsp,rbp
    1695:	48 83 ec 08          	sub    rsp,0x8
    1699:	5d                   	pop    rbp
    169a:	48 83 ec 08          	sub    rsp,0x8
    169e:	48 83 ec 08          	sub    rsp,0x8
    16a2:	59                   	pop    rcx
    16a3:	48 83 ec 08          	sub    rsp,0x8
    16a7:	ff e1                	jmp    rcx

00000000000016a9 <say14>:
    16a9:	48 83 c4 08          	add    rsp,0x8
    16ad:	48 83 c4 08          	add    rsp,0x8
    16b1:	55                   	push   rbp
    16b2:	48 83 c4 08          	add    rsp,0x8
    16b6:	48 89 e5             	mov    rbp,rsp
    16b9:	8b 0d 41 69 00 00    	mov    ecx,DWORD PTR [rip+0x6941]        # 8000 <heard>
    16bf:	48 8d 05 3e 69 00 00 	lea    rax,[rip+0x693e]        # 8004 <__bss_start>
    16c6:	c6 04 08 0e          	mov    BYTE PTR [rax+rcx*1],0xe
    16ca:	ff 05 30 69 00 00    	inc    DWORD PTR [rip+0x6930]        # 8000 <heard>
    16d0:	48 89 ec             	mov    rsp,rbp
    16d3:	48 83 ec 08          	sub    rsp,0x8
    16d7:	5d                   	pop    rbp
    16d8:	48 83 ec 08          	sub    rsp,0x8
    16dc:	48 83 ec 08          	sub    rsp,0x8
    16e0:	59                   	pop    rcx
    16e1:	48 83 ec 08          	sub    rsp,0x8
    16e5:	ff e1                	jmp    rcx

00000000000016e7 <say15>:
    16e7:	48 83 c4 08          	add    rsp,0x8
    16eb:	48 83 c4 08          	add    rsp,0x8
    16ef:	55                   	push   rbp
    16f0:	48 83 c4 08          	add    rsp,0x8
    16f4:	48 89 e5             	mov    rbp,rsp
    16f7:	8b 0d 03 69 00 00    	mov    ecx,DWORD PTR [rip+0x6903]        # 8000 <heard>
    16fd:	48 8d 05 00 69 00 00 	lea    rax,[rip+0x6900]        # 8004 <__bss_start>
    1704:	c6 04 08 0f          	mov    BYTE PTR [rax+rcx*1],0xf
    1708:	ff 05 f2 68 00 00    	inc    DWORD PTR [rip+0x68f2]        # 8000 <heard>
    170e:	48 89 ec             	mov    rsp,rbp
    1711:	48 83 ec 08          	sub    rsp,0x8
    1715:	5d                   	pop    rbp
    1716:	48 83 ec 08          	sub    rsp,0x8
    171a:	48 83 ec 08          	sub    rsp,0x8
    171e:	59                   	pop    rcx
    171f:	48 83 ec 08          	sub    rsp,0x8
    1723:	ff e1                	jmp    rcx

0000000000001725 <say16>:
    1725:	48 83 c4 08          	add    rsp,0x8
    1729:	48 83 c4 08          	add    rsp,0x8
    172d:	55                   	push   rbp
    172e:	48 83 c4 08          	add    rsp,0x8
    1732:	48 89 e5             	mov    rbp,rsp
    1735:	8b 0d c5 68 00 00    	mov    ecx,DWORD PTR [rip+0x68c5]        # 8000 <heard>
    173b:	48 8d 05 c2 68 00 00 	lea    rax,[rip+0x68c2]        # 8004 <__bss_start>
    1742:	c6 04 08 10          	mov    BYTE PTR [rax+rcx*1],0x10
    1746:	ff 05 b4 68 00 00    	inc    DWORD PTR [rip+0x68b4]        # 8000 <heard>
    174c:	48 89 ec             	mov    rsp,rbp
    174f:	48 83 ec 08          	sub    rsp,0x8
    1753:	5d                   	pop    rbp
    1754:	48 83 ec 08          	sub    rsp,0x8
    1758:	48 83 ec 08          	sub    rsp,0x8
    175c:	59                   	pop    rcx
    175d:	48 83 ec 08          	sub    rsp,0x8
    1761:	ff e1                	jmp    rcx

0000000000001763 <say17>:
    1763:	48 83 c4 08          	add    rsp,0x8
    1767:	48 83 c4 08          	add    rsp,0x8
    176b:	55                   	push   rbp
    176c:	48 83 c4 08          	add    rsp,0x8
    1770:	48 89 e5             	mov    rbp,rsp
    1773:	8b 0d 87 68 00 00    	mov    ecx,DWORD PTR [rip+0x6887]        # 8000 <heard>
    1779:	48 8d 05 84 68 00 00 	lea    rax,[rip+0x6884]        # 8004 <__bss_start>
    1780:	c6 04 08 11          	mov    BYTE PTR [rax+rcx*1],0x11
    1784:	ff 05 76 68 00 00    	inc    DWORD PTR [rip+0x6876]        # 8000 <heard>
    178a:	48 89 ec             	mov    rsp,rbp
    178d:	48 83 ec 08          	sub    rsp,0x8
    1791:	5d                   	pop    rbp
    1792:	48 83 ec 08          	sub    rsp,0x8
    1796:	48 83 ec 08          	sub    rsp,0x8
    179a:	59                   	pop    rcx
    179b:	48 83 ec 08          	sub    rsp,0x8
    179f:	ff e1                	jmp    rcx

00000000000017a1 <say18>:
    17a1:	48 83 c4 08          	add    rsp,0x8
    17a5:	48 83 c4 08          	add    rsp,0x8
    17a9:	55                   	push   rbp
    17aa:	48 83 c4 08          	add    rsp,0x8
    17ae:	48 89 e5             	mov    rbp,rsp
    17b1:	8b 0d 49 68 00 00    	mov    ecx,DWORD PTR [rip+0x6849]        # 8000 <heard>
    17b7:	48 8d 05 46 68 00 00 	lea    rax,[rip+0x6846]        # 8004 <__bss_start>
    17be:	c6 04 08 12          	mov    BYTE PTR [rax+rcx*1],0x12
    17c2:	ff 05 38 68 00 00    	inc    DWORD PTR [rip+0x6838]        # 8000 <heard>
    17c8:	48 89 ec             	mov    rsp,rbp
    17cb:	48 83 ec 08          	sub    rsp,0x8
    17cf:	5d                   	pop    rbp
    17d0:	48 83 ec 08          	sub    rsp,0x8
    17d4:	48 83 ec 08          	sub    rsp,0x8
    17d8:	59                   	pop    rcx
    17d9:	48 83 ec 08          	sub    rsp,0x8
    17dd:	ff e1                	jmp    rcx

00000000000017df <say19>:
    17df:	48 83 c4 08          	add    rsp,0x8
    17e3:	48 83 c4 08          	add    rsp,0x8
    17e7:	55                   	push   rbp
    17e8:	48 83 c4 08          	add    rsp,0x8
    17ec:	48 89 e5             	mov    rbp,rsp
    17ef:	8b 0d 0b 68 00 00    	mov    ecx,DWORD PTR [rip+0x680b]        # 8000 <heard>
    17f5:	48 8d 05 08 68 00 00 	lea    rax,[rip+0x6808]        # 8004 <__bss_start>
    17fc:	c6 04 08 13          	mov    BYTE PTR [rax+rcx*1],0x13
    1800:	ff 05 fa 67 00 00    	inc    DWORD PTR [rip+0x67fa]        # 8000 <heard>
    1806:	48 89 ec             	mov    rsp,rbp
    1809:	48 83 ec 08          	sub    rsp,0x8
    180d:	5d                   	pop    rbp
    180e:	48 83 ec 08          	sub    rsp,0x8
    1812:	48 83 ec 08          	sub    rsp,0x8
    1816:	59                   	pop    rcx
    1817:	48 83 ec 08          	sub    rsp,0x8
    181b:	ff e1                	jmp    rcx

000000000000181d <say20>:
    181d:	48 83 c4 08          	add    rsp,0x8
    1821:	48 83 c4 08          	add    rsp,0x8
    1825:	55                   	push   rbp
    1826:	48 83 c4 08          	add    rsp,0x8
    182a:	48 89 e5             	mov    rbp,rsp
    182d:	8b 0d cd 67 00 00    	mov    ecx,DWORD PTR [rip+0x67cd]        # 8000 <heard>
    1833:	48 8d 05 ca 67 00 00 	lea    rax,[rip+0x67ca]        # 8004 <__bss_start>
    183a:	c6 04 08 14          	mov    BYTE PTR [rax+rcx*1],0x14
    183e:	ff 05 bc 67 00 00    	inc    DWORD PTR [rip+0x67bc]        # 8000 <heard>
    1844:	48 89 ec             	mov    rsp,rbp
    1847:	48 83 ec 08          	sub    rsp,0x8
    184b:	5d                   	pop    rbp
    184c:	48 83 ec 08          	sub    rsp,0x8
    1850:	48 83 ec 08          	sub    rsp,0x8
    1854:	59                   	pop    rcx
    1855:	48 83 ec 08          	sub    rsp,0x8
    1859:	ff e1                	jmp    rcx

000000000000185b <say21>:
    185b:	48 83 c4 08          	add    rsp,0x8
    185f:	48 83 c4 08          	add    rsp,0x8
    1863:	55                   	push   rbp
    1864:	48 83 c4 08          	add    rsp,0x8
    1868:	48 89 e5             	mov    rbp,rsp
    186b:	8b 0d 8f 67 00 00    	mov    ecx,DWORD PTR [rip+0x678f]        # 8000 <heard>
    1871:	48 8d 05 8c 67 00 00 	lea    rax,[rip+0x678c]        # 8004 <__bss_start>
    1878:	c6 04 08 15          	mov    BYTE PTR [rax+rcx*1],0x15
    187c:	ff 05 7e 67 00 00    	inc    DWORD PTR [rip+0x677e]        # 8000 <heard>
    1882:	48 89 ec             	mov    rsp,rbp
    1885:	48 83 ec 08          	sub    rsp,0x8
    1889:	5d                   	pop    rbp
    188a:	48 83 ec 08          	sub    rsp,0x8
    188e:	48 83 ec 08          	sub    rsp,0x8
    1892:	59                   	pop    rcx
    1893:	48 83 ec 08          	sub    rsp,0x8
    1897:	ff e1                	jmp    rcx

0000000000001899 <say22>:
    1899:	48 83 c4 08          	add    rsp,0x8
    189d:	48 83 c4 08          	add    rsp,0x8
    18a1:	55                   	push   rbp
    18a2:	48 83 c4 08          	add    rsp,0x8
    18a6:	48 89 e5             	mov    rbp,rsp
    18a9:	8b 0d 51 67 00 00    	mov    ecx,DWORD PTR [rip+0x6751]        # 8000 <heard>
    18af:	48 8d 05 4e 67 00 00 	lea    rax,[rip+0x674e]        # 8004 <__bss_start>
    18b6:	c6 04 08 16          	mov    BYTE PTR [rax+rcx*1],0x16
    18ba:	ff 05 40 67 00 00    	inc    DWORD PTR [rip+0x6740]        # 8000 <heard>
    18c0:	48 89 ec             	mov    rsp,rbp
    18c3:	48 83 ec 08          	sub    rsp,0x8
    18c7:	5d                   	pop    rbp
    18c8:	48 83 ec 08          	sub    rsp,0x8
    18cc:	48 83 ec 08          	sub    rsp,0x8
    18d0:	59                   	pop    rcx
    18d1:	48 83 ec 08          	sub    rsp,0x8
    18d5:	ff e1                	jmp    rcx

00000000000018d7 <say23>:
    18d7:	48 83 c4 08          	add    rsp,0x8
    18db:	48 83 c4 08          	add    rsp,0x8
    18df:	55                   	push   rbp
    18e0:	48 83 c4 08          	add    rsp,0x8
    18e4:	48 89 e5             	mov    rbp,rsp
    18e7:	8b 0d 13 67 00 00    	mov    ecx,DWORD PTR [rip+0x6713]        # 8000 <heard>
    18ed:	48 8d 05 10 67 00 00 	lea    rax,[rip+0x6710]        # 8004 <__bss_start>
    18f4:	c6 04 08 17          	mov    BYTE PTR [rax+rcx*1],0x17
    18f8:	ff 05 02 67 00 00    	inc    DWORD PTR [rip+0x6702]        # 8000 <heard>
    18fe:	48 89 ec             	mov    rsp,rbp
    1901:	48 83 ec 08          	sub    rsp,0x8
    1905:	5d                   	pop    rbp
    1906:	48 83 ec 08          	sub    rsp,0x8
    190a:	48 83 ec 08          	sub    rsp,0x8
    190e:	59                   	pop    rcx
    190f:	48 83 ec 08          	sub    rsp,0x8
    1913:	ff e1                	jmp    rcx

0000000000001915 <say24>:
    1915:	48 83 c4 08          	add    rsp,0x8
    1919:	48 83 c4 08          	add    rsp,0x8
    191d:	55                   	push   rbp
    191e:	48 83 c4 08          	add    rsp,0x8
    1922:	48 89 e5             	mov    rbp,rsp
    1925:	8b 0d d5 66 00 00    	mov    ecx,DWORD PTR [rip+0x66d5]        # 8000 <heard>
    192b:	48 8d 05 d2 66 00 00 	lea    rax,[rip+0x66d2]        # 8004 <__bss_start>
    1932:	c6 04 08 18          	mov    BYTE PTR [rax+rcx*1],0x18
    1936:	ff 05 c4 66 00 00    	inc    DWORD PTR [rip+0x66c4]        # 8000 <heard>
    193c:	48 89 ec             	mov    rsp,rbp
    193f:	48 83 ec 08          	sub    rsp,0x8
    1943:	5d                   	pop    rbp
    1944:	48 83 ec 08          	sub    rsp,0x8
    1948:	48 83 ec 08          	sub    rsp,0x8
    194c:	59                   	pop    rcx
    194d:	48 83 ec 08          	sub    rsp,0x8
    1951:	ff e1                	jmp    rcx

0000000000001953 <say25>:
    1953:	48 83 c4 08          	add    rsp,0x8
    1957:	48 83 c4 08          	add    rsp,0x8
    195b:	55                   	push   rbp
    195c:	48 83 c4 08          	add    rsp,0x8
    1960:	48 89 e5             	mov    rbp,rsp
    1963:	8b 0d 97 66 00 00    	mov    ecx,DWORD PTR [rip+0x6697]        # 8000 <heard>
    1969:	48 8d 05 94 66 00 00 	lea    rax,[rip+0x6694]        # 8004 <__bss_start>
    1970:	c6 04 08 19          	mov    BYTE PTR [rax+rcx*1],0x19
    1974:	ff 05 86 66 00 00    	inc    DWORD PTR [rip+0x6686]        # 8000 <heard>
    197a:	48 89 ec             	mov    rsp,rbp
    197d:	48 83 ec 08          	sub    rsp,0x8
    1981:	5d                   	pop    rbp
    1982:	48 83 ec 08          	sub    rsp,0x8
    1986:	48 83 ec 08          	sub    rsp,0x8
    198a:	59                   	pop    rcx
    198b:	48 83 ec 08          	sub    rsp,0x8
    198f:	ff e1                	jmp    rcx

0000000000001991 <say26>:
    1991:	48 83 c4 08          	add    rsp,0x8
    1995:	48 83 c4 08          	add    rsp,0x8
    1999:	55                   	push   rbp
    199a:	48 83 c4 08          	add    rsp,0x8
    199e:	48 89 e5             	mov    rbp,rsp
    19a1:	8b 0d 59 66 00 00    	mov    ecx,DWORD PTR [rip+0x6659]        # 8000 <heard>
    19a7:	48 8d 05 56 66 00 00 	lea    rax,[rip+0x6656]        # 8004 <__bss_start>
    19ae:	c6 04 08 1a          	mov    BYTE PTR [rax+rcx*1],0x1a
    19b2:	ff 05 48 66 00 00    	inc    DWORD PTR [rip+0x6648]        # 8000 <heard>
    19b8:	48 89 ec             	mov    rsp,rbp
    19bb:	48 83 ec 08          	sub    rsp,0x8
    19bf:	5d                   	pop    rbp
    19c0:	48 83 ec 08          	sub    rsp,0x8
    19c4:	48 83 ec 08          	sub    rsp,0x8
    19c8:	59                   	pop    rcx
    19c9:	48 83 ec 08          	sub    rsp,0x8
    19cd:	ff e1                	jmp    rcx

00000000000019cf <say27>:
    19cf:	48 83 c4 08          	add    rsp,0x8
    19d3:	48 83 c4 08          	add    rsp,0x8
    19d7:	55                   	push   rbp
    19d8:	48 83 c4 08          	add    rsp,0x8
    19dc:	48 89 e5             	mov    rbp,rsp
    19df:	8b 0d 1b 66 00 00    	mov    ecx,DWORD PTR [rip+0x661b]        # 8000 <heard>
    19e5:	48 8d 05 18 66 00 00 	lea    rax,[rip+0x6618]        # 8004 <__bss_start>
    19ec:	c6 04 08 1b          	mov    BYTE PTR [rax+rcx*1],0x1b
    19f0:	ff 05 0a 66 00 00    	inc    DWORD PTR [rip+0x660a]        # 8000 <heard>
    19f6:	48 89 ec             	mov    rsp,rbp
    19f9:	48 83 ec 08          	sub    rsp,0x8
    19fd:	5d                   	pop    rbp
    19fe:	48 83 ec 08          	sub    rsp,0x8
    1a02:	48 83 ec 08          	sub    rsp,0x8
    1a06:	59                   	pop    rcx
    1a07:	48 83 ec 08          	sub    rsp,0x8
    1a0b:	ff e1                	jmp    rcx

0000000000001a0d <say28>:
    1a0d:	48 83 c4 08          	add    rsp,0x8
    1a11:	48 83 c4 08          	add    rsp,0x8
    1a15:	55                   	push   rbp
    1a16:	48 83 c4 08          	add    rsp,0x8
    1a1a:	48 89 e5             	mov    rbp,rsp
    1a1d:	8b 0d dd 65 00 00    	mov    ecx,DWORD PTR [rip+0x65dd]        # 8000 <heard>
    1a23:	48 8d 05 da 65 00 00 	lea    rax,[rip+0x65da]        # 8004 <__bss_start>
    1a2a:	c6 04 08 1c          	mov    BYTE PTR [rax+rcx*1],0x1c
    1a2e:	ff 05 cc 65 00 00    	inc    DWORD PTR [rip+0x65cc]        # 8000 <heard>
    1a34:	48 89 ec             	mov    rsp,rbp
    1a37:	48 83 ec 08          	sub    rsp,0x8
    1a3b:	5d                   	pop    rbp
    1a3c:	48 83 ec 08          	sub    rsp,0x8
    1a40:	48 83 ec 08          	sub    rsp,0x8
    1a44:	59                   	pop    rcx
    1a45:	48 83 ec 08          	sub    rsp,0x8
    1a49:	ff e1                	jmp    rcx

0000000000001a4b <say29>:
    1a4b:	48 83 c4 08          	add    rsp,0x8
    1a4f:	48 83 c4 08          	add    rsp,0x8
    1a53:	55                   	push   rbp
    1a54:	48 83 c4 08          	add    rsp,0x8
    1a58:	48 89 e5             	mov    rbp,rsp
    1a5b:	8b 0d 9f 65 00 00    	mov    ecx,DWORD PTR [rip+0x659f]        # 8000 <heard>
    1a61:	48 8d 05 9c 65 00 00 	lea    rax,[rip+0x659c]        # 8004 <__bss_start>
    1a68:	c6 04 08 1d          	mov    BYTE PTR [rax+rcx*1],0x1d
    1a6c:	ff 05 8e 65 00 00    	inc    DWORD PTR [rip+0x658e]        # 8000 <heard>
    1a72:	48 89 ec             	mov    rsp,rbp
    1a75:	48 83 ec 08          	sub    rsp,0x8
    1a79:	5d                   	pop    rbp
    1a7a:	48 83 ec 08          	sub    rsp,0x8
    1a7e:	48 83 ec 08          	sub    rsp,0x8
    1a82:	59                   	pop    rcx
    1a83:	48 83 ec 08          	sub    rsp,0x8
    1a87:	ff e1                	jmp    rcx

0000000000001a89 <say30>:
    1a89:	48 83 c4 08          	add    rsp,0x8
    1a8d:	48 83 c4 08          	add    rsp,0x8
    1a91:	55                   	push   rbp
    1a92:	48 83 c4 08          	add    rsp,0x8
    1a96:	48 89 e5             	mov    rbp,rsp
    1a99:	8b 0d 61 65 00 00    	mov    ecx,DWORD PTR [rip+0x6561]        # 8000 <heard>
    1a9f:	48 8d 05 5e 65 00 00 	lea    rax,[rip+0x655e]        # 8004 <__bss_start>
    1aa6:	c6 04 08 1e          	mov    BYTE PTR [rax+rcx*1],0x1e
    1aaa:	ff 05 50 65 00 00    	inc    DWORD PTR [rip+0x6550]        # 8000 <heard>
    1ab0:	48 89 ec             	mov    rsp,rbp
    1ab3:	48 83 ec 08          	sub    rsp,0x8
    1ab7:	5d                   	pop    rbp
    1ab8:	48 83 ec 08          	sub    rsp,0x8
    1abc:	48 83 ec 08          	sub    rsp,0x8
    1ac0:	59                   	pop    rcx
    1ac1:	48 83 ec 08          	sub    rsp,0x8
    1ac5:	ff e1                	jmp    rcx

0000000000001ac7 <say31>:
    1ac7:	48 83 c4 08          	add    rsp,0x8
    1acb:	48 83 c4 08          	add    rsp,0x8
    1acf:	55                   	push   rbp
    1ad0:	48 83 c4 08          	add    rsp,0x8
    1ad4:	48 89 e5             	mov    rbp,rsp
    1ad7:	8b 0d 23 65 00 00    	mov    ecx,DWORD PTR [rip+0x6523]        # 8000 <heard>
    1add:	48 8d 05 20 65 00 00 	lea    rax,[rip+0x6520]        # 8004 <__bss_start>
    1ae4:	c6 04 08 1f          	mov    BYTE PTR [rax+rcx*1],0x1f
    1ae8:	ff 05 12 65 00 00    	inc    DWORD PTR [rip+0x6512]        # 8000 <heard>
    1aee:	48 89 ec             	mov    rsp,rbp
    1af1:	48 83 ec 08          	sub    rsp,0x8
    1af5:	5d                   	pop    rbp
    1af6:	48 83 ec 08          	sub    rsp,0x8
    1afa:	48 83 ec 08          	sub    rsp,0x8
    1afe:	59                   	pop    rcx
    1aff:	48 83 ec 08          	sub    rsp,0x8
    1b03:	ff e1                	jmp    rcx

0000000000001b05 <say32>:
    1b05:	48 83 c4 08          	add    rsp,0x8
    1b09:	48 83 c4 08          	add    rsp,0x8
    1b0d:	55                   	push   rbp
    1b0e:	48 83 c4 08          	add    rsp,0x8
    1b12:	48 89 e5             	mov    rbp,rsp
    1b15:	8b 0d e5 64 00 00    	mov    ecx,DWORD PTR [rip+0x64e5]        # 8000 <heard>
    1b1b:	48 8d 05 e2 64 00 00 	lea    rax,[rip+0x64e2]        # 8004 <__bss_start>
    1b22:	c6 04 08 20          	mov    BYTE PTR [rax+rcx*1],0x20
    1b26:	ff 05 d4 64 00 00    	inc    DWORD PTR [rip+0x64d4]        # 8000 <heard>
    1b2c:	48 89 ec             	mov    rsp,rbp
    1b2f:	48 83 ec 08          	sub    rsp,0x8
    1b33:	5d                   	pop    rbp
    1b34:	48 83 ec 08          	sub    rsp,0x8
    1b38:	48 83 ec 08          	sub    rsp,0x8
    1b3c:	59                   	pop    rcx
    1b3d:	48 83 ec 08          	sub    rsp,0x8
    1b41:	ff e1                	jmp    rcx

0000000000001b43 <say33>:
    1b43:	48 83 c4 08          	add    rsp,0x8
    1b47:	48 83 c4 08          	add    rsp,0x8
    1b4b:	55                   	push   rbp
    1b4c:	48 83 c4 08          	add    rsp,0x8
    1b50:	48 89 e5             	mov    rbp,rsp
    1b53:	8b 0d a7 64 00 00    	mov    ecx,DWORD PTR [rip+0x64a7]        # 8000 <heard>
    1b59:	48 8d 05 a4 64 00 00 	lea    rax,[rip+0x64a4]        # 8004 <__bss_start>
    1b60:	c6 04 08 21          	mov    BYTE PTR [rax+rcx*1],0x21
    1b64:	ff 05 96 64 00 00    	inc    DWORD PTR [rip+0x6496]        # 8000 <heard>
    1b6a:	48 89 ec             	mov    rsp,rbp
    1b6d:	48 83 ec 08          	sub    rsp,0x8
    1b71:	5d                   	pop    rbp
    1b72:	48 83 ec 08          	sub    rsp,0x8
    1b76:	48 83 ec 08          	sub    rsp,0x8
    1b7a:	59                   	pop    rcx
    1b7b:	48 83 ec 08          	sub    rsp,0x8
    1b7f:	ff e1                	jmp    rcx

0000000000001b81 <say34>:
    1b81:	48 83 c4 08          	add    rsp,0x8
    1b85:	48 83 c4 08          	add    rsp,0x8
    1b89:	55                   	push   rbp
    1b8a:	48 83 c4 08          	add    rsp,0x8
    1b8e:	48 89 e5             	mov    rbp,rsp
    1b91:	8b 0d 69 64 00 00    	mov    ecx,DWORD PTR [rip+0x6469]        # 8000 <heard>
    1b97:	48 8d 05 66 64 00 00 	lea    rax,[rip+0x6466]        # 8004 <__bss_start>
    1b9e:	c6 04 08 22          	mov    BYTE PTR [rax+rcx*1],0x22
    1ba2:	ff 05 58 64 00 00    	inc    DWORD PTR [rip+0x6458]        # 8000 <heard>
    1ba8:	48 89 ec             	mov    rsp,rbp
    1bab:	48 83 ec 08          	sub    rsp,0x8
    1baf:	5d                   	pop    rbp
    1bb0:	48 83 ec 08          	sub    rsp,0x8
    1bb4:	48 83 ec 08          	sub    rsp,0x8
    1bb8:	59                   	pop    rcx
    1bb9:	48 83 ec 08          	sub    rsp,0x8
    1bbd:	ff e1                	jmp    rcx

0000000000001bbf <say35>:
    1bbf:	48 83 c4 08          	add    rsp,0x8
    1bc3:	48 83 c4 08          	add    rsp,0x8
    1bc7:	55                   	push   rbp
    1bc8:	48 83 c4 08          	add    rsp,0x8
    1bcc:	48 89 e5             	mov    rbp,rsp
    1bcf:	8b 0d 2b 64 00 00    	mov    ecx,DWORD PTR [rip+0x642b]        # 8000 <heard>
    1bd5:	48 8d 05 28 64 00 00 	lea    rax,[rip+0x6428]        # 8004 <__bss_start>
    1bdc:	c6 04 08 23          	mov    BYTE PTR [rax+rcx*1],0x23
    1be0:	ff 05 1a 64 00 00    	inc    DWORD PTR [rip+0x641a]        # 8000 <heard>
    1be6:	48 89 ec             	mov    rsp,rbp
    1be9:	48 83 ec 08          	sub    rsp,0x8
    1bed:	5d                   	pop    rbp
    1bee:	48 83 ec 08          	sub    rsp,0x8
    1bf2:	48 83 ec 08          	sub    rsp,0x8
    1bf6:	59                   	pop    rcx
    1bf7:	48 83 ec 08          	sub    rsp,0x8
    1bfb:	ff e1                	jmp    rcx

0000000000001bfd <say36>:
    1bfd:	48 83 c4 08          	add    rsp,0x8
    1c01:	48 83 c4 08          	add    rsp,0x8
    1c05:	55                   	push   rbp
    1c06:	48 83 c4 08          	add    rsp,0x8
    1c0a:	48 89 e5             	mov    rbp,rsp
    1c0d:	8b 0d ed 63 00 00    	mov    ecx,DWORD PTR [rip+0x63ed]        # 8000 <heard>
    1c13:	48 8d 05 ea 63 00 00 	lea    rax,[rip+0x63ea]        # 8004 <__bss_start>
    1c1a:	c6 04 08 24          	mov    BYTE PTR [rax+rcx*1],0x24
    1c1e:	ff 05 dc 63 00 00    	inc    DWORD PTR [rip+0x63dc]        # 8000 <heard>
    1c24:	48 89 ec             	mov    rsp,rbp
    1c27:	48 83 ec 08          	sub    rsp,0x8
    1c2b:	5d                   	pop    rbp
    1c2c:	48 83 ec 08          	sub    rsp,0x8
    1c30:	48 83 ec 08          	sub    rsp,0x8
    1c34:	59                   	pop    rcx
    1c35:	48 83 ec 08          	sub    rsp,0x8
    1c39:	ff e1                	jmp    rcx

0000000000001c3b <say37>:
    1c3b:	48 83 c4 08          	add    rsp,0x8
    1c3f:	48 83 c4 08          	add    rsp,0x8
    1c43:	55                   	push   rbp
    1c44:	48 83 c4 08          	add    rsp,0x8
    1c48:	48 89 e5             	mov    rbp,rsp
    1c4b:	8b 0d af 63 00 00    	mov    ecx,DWORD PTR [rip+0x63af]        # 8000 <heard>
    1c51:	48 8d 05 ac 63 00 00 	lea    rax,[rip+0x63ac]        # 8004 <__bss_start>
    1c58:	c6 04 08 25          	mov    BYTE PTR [rax+rcx*1],0x25
    1c5c:	ff 05 9e 63 00 00    	inc    DWORD PTR [rip+0x639e]        # 8000 <heard>
    1c62:	48 89 ec             	mov    rsp,rbp
    1c65:	48 83 ec 08          	sub    rsp,0x8
    1c69:	5d                   	pop    rbp
    1c6a:	48 83 ec 08          	sub    rsp,0x8
    1c6e:	48 83 ec 08          	sub    rsp,0x8
    1c72:	59                   	pop    rcx
    1c73:	48 83 ec 08          	sub    rsp,0x8
    1c77:	ff e1                	jmp    rcx

0000000000001c79 <say38>:
    1c79:	48 83 c4 08          	add    rsp,0x8
    1c7d:	48 83 c4 08          	add    rsp,0x8
    1c81:	55                   	push   rbp
    1c82:	48 83 c4 08          	add    rsp,0x8
    1c86:	48 89 e5             	mov    rbp,rsp
    1c89:	8b 0d 71 63 00 00    	mov    ecx,DWORD PTR [rip+0x6371]        # 8000 <heard>
    1c8f:	48 8d 05 6e 63 00 00 	lea    rax,[rip+0x636e]        # 8004 <__bss_start>
    1c96:	c6 04 08 26          	mov    BYTE PTR [rax+rcx*1],0x26
    1c9a:	ff 05 60 63 00 00    	inc    DWORD PTR [rip+0x6360]        # 8000 <heard>
    1ca0:	48 89 ec             	mov    rsp,rbp
    1ca3:	48 83 ec 08          	sub    rsp,0x8
    1ca7:	5d                   	pop    rbp
    1ca8:	48 83 ec 08          	sub    rsp,0x8
    1cac:	48 83 ec 08          	sub    rsp,0x8
    1cb0:	59                   	pop    rcx
    1cb1:	48 83 ec 08          	sub    rsp,0x8
    1cb5:	ff e1                	jmp    rcx

0000000000001cb7 <say39>:
    1cb7:	48 83 c4 08          	add    rsp,0x8
    1cbb:	48 83 c4 08          	add    rsp,0x8
    1cbf:	55                   	push   rbp
    1cc0:	48 83 c4 08          	add    rsp,0x8
    1cc4:	48 89 e5             	mov    rbp,rsp
    1cc7:	8b 0d 33 63 00 00    	mov    ecx,DWORD PTR [rip+0x6333]        # 8000 <heard>
    1ccd:	48 8d 05 30 63 00 00 	lea    rax,[rip+0x6330]        # 8004 <__bss_start>
    1cd4:	c6 04 08 27          	mov    BYTE PTR [rax+rcx*1],0x27
    1cd8:	ff 05 22 63 00 00    	inc    DWORD PTR [rip+0x6322]        # 8000 <heard>
    1cde:	48 89 ec             	mov    rsp,rbp
    1ce1:	48 83 ec 08          	sub    rsp,0x8
    1ce5:	5d                   	pop    rbp
    1ce6:	48 83 ec 08          	sub    rsp,0x8
    1cea:	48 83 ec 08          	sub    rsp,0x8
    1cee:	59                   	pop    rcx
    1cef:	48 83 ec 08          	sub    rsp,0x8
    1cf3:	ff e1                	jmp    rcx

0000000000001cf5 <say40>:
    1cf5:	48 83 c4 08          	add    rsp,0x8
    1cf9:	48 83 c4 08          	add    rsp,0x8
    1cfd:	55                   	push   rbp
    1cfe:	48 83 c4 08          	add    rsp,0x8
    1d02:	48 89 e5             	mov    rbp,rsp
    1d05:	8b 0d f5 62 00 00    	mov    ecx,DWORD PTR [rip+0x62f5]        # 8000 <heard>
    1d0b:	48 8d 05 f2 62 00 00 	lea    rax,[rip+0x62f2]        # 8004 <__bss_start>
    1d12:	c6 04 08 28          	mov    BYTE PTR [rax+rcx*1],0x28
    1d16:	ff 05 e4 62 00 00    	inc    DWORD PTR [rip+0x62e4]        # 8000 <heard>
    1d1c:	48 89 ec             	mov    rsp,rbp
    1d1f:	48 83 ec 08          	sub    rsp,0x8
    1d23:	5d                   	pop    rbp
    1d24:	48 83 ec 08          	sub    rsp,0x8
    1d28:	48 83 ec 08          	sub    rsp,0x8
    1d2c:	59                   	pop    rcx
    1d2d:	48 83 ec 08          	sub    rsp,0x8
    1d31:	ff e1                	jmp    rcx

0000000000001d33 <say41>:
    1d33:	48 83 c4 08          	add    rsp,0x8
    1d37:	48 83 c4 08          	add    rsp,0x8
    1d3b:	55                   	push   rbp
    1d3c:	48 83 c4 08          	add    rsp,0x8
    1d40:	48 89 e5             	mov    rbp,rsp
    1d43:	8b 0d b7 62 00 00    	mov    ecx,DWORD PTR [rip+0x62b7]        # 8000 <heard>
    1d49:	48 8d 05 b4 62 00 00 	lea    rax,[rip+0x62b4]        # 8004 <__bss_start>
    1d50:	c6 04 08 29          	mov    BYTE PTR [rax+rcx*1],0x29
    1d54:	ff 05 a6 62 00 00    	inc    DWORD PTR [rip+0x62a6]        # 8000 <heard>
    1d5a:	48 89 ec             	mov    rsp,rbp
    1d5d:	48 83 ec 08          	sub    rsp,0x8
    1d61:	5d                   	pop    rbp
    1d62:	48 83 ec 08          	sub    rsp,0x8
    1d66:	48 83 ec 08          	sub    rsp,0x8
    1d6a:	59                   	pop    rcx
    1d6b:	48 83 ec 08          	sub    rsp,0x8
    1d6f:	ff e1                	jmp    rcx

0000000000001d71 <say42>:
    1d71:	48 83 c4 08          	add    rsp,0x8
    1d75:	48 83 c4 08          	add    rsp,0x8
    1d79:	55                   	push   rbp
    1d7a:	48 83 c4 08          	add    rsp,0x8
    1d7e:	48 89 e5             	mov    rbp,rsp
    1d81:	8b 0d 79 62 00 00    	mov    ecx,DWORD PTR [rip+0x6279]        # 8000 <heard>
    1d87:	48 8d 05 76 62 00 00 	lea    rax,[rip+0x6276]        # 8004 <__bss_start>
    1d8e:	c6 04 08 2a          	mov    BYTE PTR [rax+rcx*1],0x2a
    1d92:	ff 05 68 62 00 00    	inc    DWORD PTR [rip+0x6268]        # 8000 <heard>
    1d98:	48 89 ec             	mov    rsp,rbp
    1d9b:	48 83 ec 08          	sub    rsp,0x8
    1d9f:	5d                   	pop    rbp
    1da0:	48 83 ec 08          	sub    rsp,0x8
    1da4:	48 83 ec 08          	sub    rsp,0x8
    1da8:	59                   	pop    rcx
    1da9:	48 83 ec 08          	sub    rsp,0x8
    1dad:	ff e1                	jmp    rcx

0000000000001daf <say43>:
    1daf:	48 83 c4 08          	add    rsp,0x8
    1db3:	48 83 c4 08          	add    rsp,0x8
    1db7:	55                   	push   rbp
    1db8:	48 83 c4 08          	add    rsp,0x8
    1dbc:	48 89 e5             	mov    rbp,rsp
    1dbf:	8b 0d 3b 62 00 00    	mov    ecx,DWORD PTR [rip+0x623b]        # 8000 <heard>
    1dc5:	48 8d 05 38 62 00 00 	lea    rax,[rip+0x6238]        # 8004 <__bss_start>
    1dcc:	c6 04 08 2b          	mov    BYTE PTR [rax+rcx*1],0x2b
    1dd0:	ff 05 2a 62 00 00    	inc    DWORD PTR [rip+0x622a]        # 8000 <heard>
    1dd6:	48 89 ec             	mov    rsp,rbp
    1dd9:	48 83 ec 08          	sub    rsp,0x8
    1ddd:	5d                   	pop    rbp
    1dde:	48 83 ec 08          	sub    rsp,0x8
    1de2:	48 83 ec 08          	sub    rsp,0x8
    1de6:	59                   	pop    rcx
    1de7:	48 83 ec 08          	sub    rsp,0x8
    1deb:	ff e1                	jmp    rcx

0000000000001ded <say44>:
    1ded:	48 83 c4 08          	add    rsp,0x8
    1df1:	48 83 c4 08          	add    rsp,0x8
    1df5:	55                   	push   rbp
    1df6:	48 83 c4 08          	add    rsp,0x8
    1dfa:	48 89 e5             	mov    rbp,rsp
    1dfd:	8b 0d fd 61 00 00    	mov    ecx,DWORD PTR [rip+0x61fd]        # 8000 <heard>
    1e03:	48 8d 05 fa 61 00 00 	lea    rax,[rip+0x61fa]        # 8004 <__bss_start>
    1e0a:	c6 04 08 2c          	mov    BYTE PTR [rax+rcx*1],0x2c
    1e0e:	ff 05 ec 61 00 00    	inc    DWORD PTR [rip+0x61ec]        # 8000 <heard>
    1e14:	48 89 ec             	mov    rsp,rbp
    1e17:	48 83 ec 08          	sub    rsp,0x8
    1e1b:	5d                   	pop    rbp
    1e1c:	48 83 ec 08          	sub    rsp,0x8
    1e20:	48 83 ec 08          	sub    rsp,0x8
    1e24:	59                   	pop    rcx
    1e25:	48 83 ec 08          	sub    rsp,0x8
    1e29:	ff e1                	jmp    rcx

0000000000001e2b <say45>:
    1e2b:	48 83 c4 08          	add    rsp,0x8
    1e2f:	48 83 c4 08          	add    rsp,0x8
    1e33:	55                   	push   rbp
    1e34:	48 83 c4 08          	add    rsp,0x8
    1e38:	48 89 e5             	mov    rbp,rsp
    1e3b:	8b 0d bf 61 00 00    	mov    ecx,DWORD PTR [rip+0x61bf]        # 8000 <heard>
    1e41:	48 8d 05 bc 61 00 00 	lea    rax,[rip+0x61bc]        # 8004 <__bss_start>
    1e48:	c6 04 08 2d          	mov    BYTE PTR [rax+rcx*1],0x2d
    1e4c:	ff 05 ae 61 00 00    	inc    DWORD PTR [rip+0x61ae]        # 8000 <heard>
    1e52:	48 89 ec             	mov    rsp,rbp
    1e55:	48 83 ec 08          	sub    rsp,0x8
    1e59:	5d                   	pop    rbp
    1e5a:	48 83 ec 08          	sub    rsp,0x8
    1e5e:	48 83 ec 08          	sub    rsp,0x8
    1e62:	59                   	pop    rcx
    1e63:	48 83 ec 08          	sub    rsp,0x8
    1e67:	ff e1                	jmp    rcx

0000000000001e69 <say46>:
    1e69:	48 83 c4 08          	add    rsp,0x8
    1e6d:	48 83 c4 08          	add    rsp,0x8
    1e71:	55                   	push   rbp
    1e72:	48 83 c4 08          	add    rsp,0x8
    1e76:	48 89 e5             	mov    rbp,rsp
    1e79:	8b 0d 81 61 00 00    	mov    ecx,DWORD PTR [rip+0x6181]        # 8000 <heard>
    1e7f:	48 8d 05 7e 61 00 00 	lea    rax,[rip+0x617e]        # 8004 <__bss_start>
    1e86:	c6 04 08 2e          	mov    BYTE PTR [rax+rcx*1],0x2e
    1e8a:	ff 05 70 61 00 00    	inc    DWORD PTR [rip+0x6170]        # 8000 <heard>
    1e90:	48 89 ec             	mov    rsp,rbp
    1e93:	48 83 ec 08          	sub    rsp,0x8
    1e97:	5d                   	pop    rbp
    1e98:	48 83 ec 08          	sub    rsp,0x8
    1e9c:	48 83 ec 08          	sub    rsp,0x8
    1ea0:	59                   	pop    rcx
    1ea1:	48 83 ec 08          	sub    rsp,0x8
    1ea5:	ff e1                	jmp    rcx

0000000000001ea7 <say47>:
    1ea7:	48 83 c4 08          	add    rsp,0x8
    1eab:	48 83 c4 08          	add    rsp,0x8
    1eaf:	55                   	push   rbp
    1eb0:	48 83 c4 08          	add    rsp,0x8
    1eb4:	48 89 e5             	mov    rbp,rsp
    1eb7:	8b 0d 43 61 00 00    	mov    ecx,DWORD PTR [rip+0x6143]        # 8000 <heard>
    1ebd:	48 8d 05 40 61 00 00 	lea    rax,[rip+0x6140]        # 8004 <__bss_start>
    1ec4:	c6 04 08 2f          	mov    BYTE PTR [rax+rcx*1],0x2f
    1ec8:	ff 05 32 61 00 00    	inc    DWORD PTR [rip+0x6132]        # 8000 <heard>
    1ece:	48 89 ec             	mov    rsp,rbp
    1ed1:	48 83 ec 08          	sub    rsp,0x8
    1ed5:	5d                   	pop    rbp
    1ed6:	48 83 ec 08          	sub    rsp,0x8
    1eda:	48 83 ec 08          	sub    rsp,0x8
    1ede:	59                   	pop    rcx
    1edf:	48 83 ec 08          	sub    rsp,0x8
    1ee3:	ff e1                	jmp    rcx

0000000000001ee5 <say48>:
    1ee5:	48 83 c4 08          	add    rsp,0x8
    1ee9:	48 83 c4 08          	add    rsp,0x8
    1eed:	55                   	push   rbp
    1eee:	48 83 c4 08          	add    rsp,0x8
    1ef2:	48 89 e5             	mov    rbp,rsp
    1ef5:	8b 0d 05 61 00 00    	mov    ecx,DWORD PTR [rip+0x6105]        # 8000 <heard>
    1efb:	48 8d 05 02 61 00 00 	lea    rax,[rip+0x6102]        # 8004 <__bss_start>
    1f02:	c6 04 08 30          	mov    BYTE PTR [rax+rcx*1],0x30
    1f06:	ff 05 f4 60 00 00    	inc    DWORD PTR [rip+0x60f4]        # 8000 <heard>
    1f0c:	48 89 ec             	mov    rsp,rbp
    1f0f:	48 83 ec 08          	sub    rsp,0x8
    1f13:	5d                   	pop    rbp
    1f14:	48 83 ec 08          	sub    rsp,0x8
    1f18:	48 83 ec 08          	sub    rsp,0x8
    1f1c:	59                   	pop    rcx
    1f1d:	48 83 ec 08          	sub    rsp,0x8
    1f21:	ff e1                	jmp    rcx

0000000000001f23 <say49>:
    1f23:	48 83 c4 08          	add    rsp,0x8
    1f27:	48 83 c4 08          	add    rsp,0x8
    1f2b:	55                   	push   rbp
    1f2c:	48 83 c4 08          	add    rsp,0x8
    1f30:	48 89 e5             	mov    rbp,rsp
    1f33:	8b 0d c7 60 00 00    	mov    ecx,DWORD PTR [rip+0x60c7]        # 8000 <heard>
    1f39:	48 8d 05 c4 60 00 00 	lea    rax,[rip+0x60c4]        # 8004 <__bss_start>
    1f40:	c6 04 08 31          	mov    BYTE PTR [rax+rcx*1],0x31
    1f44:	ff 05 b6 60 00 00    	inc    DWORD PTR [rip+0x60b6]        # 8000 <heard>
    1f4a:	48 89 ec             	mov    rsp,rbp
    1f4d:	48 83 ec 08          	sub    rsp,0x8
    1f51:	5d                   	pop    rbp
    1f52:	48 83 ec 08          	sub    rsp,0x8
    1f56:	48 83 ec 08          	sub    rsp,0x8
    1f5a:	59                   	pop    rcx
    1f5b:	48 83 ec 08          	sub    rsp,0x8
    1f5f:	ff e1                	jmp    rcx

0000000000001f61 <say50>:
    1f61:	48 83 c4 08          	add    rsp,0x8
    1f65:	48 83 c4 08          	add    rsp,0x8
    1f69:	55                   	push   rbp
    1f6a:	48 83 c4 08          	add    rsp,0x8
    1f6e:	48 89 e5             	mov    rbp,rsp
    1f71:	8b 0d 89 60 00 00    	mov    ecx,DWORD PTR [rip+0x6089]        # 8000 <heard>
    1f77:	48 8d 05 86 60 00 00 	lea    rax,[rip+0x6086]        # 8004 <__bss_start>
    1f7e:	c6 04 08 32          	mov    BYTE PTR [rax+rcx*1],0x32
    1f82:	ff 05 78 60 00 00    	inc    DWORD PTR [rip+0x6078]        # 8000 <heard>
    1f88:	48 89 ec             	mov    rsp,rbp
    1f8b:	48 83 ec 08          	sub    rsp,0x8
    1f8f:	5d                   	pop    rbp
    1f90:	48 83 ec 08          	sub    rsp,0x8
    1f94:	48 83 ec 08          	sub    rsp,0x8
    1f98:	59                   	pop    rcx
    1f99:	48 83 ec 08          	sub    rsp,0x8
    1f9d:	ff e1                	jmp    rcx

0000000000001f9f <say51>:
    1f9f:	48 83 c4 08          	add    rsp,0x8
    1fa3:	48 83 c4 08          	add    rsp,0x8
    1fa7:	55                   	push   rbp
    1fa8:	48 83 c4 08          	add    rsp,0x8
    1fac:	48 89 e5             	mov    rbp,rsp
    1faf:	8b 0d 4b 60 00 00    	mov    ecx,DWORD PTR [rip+0x604b]        # 8000 <heard>
    1fb5:	48 8d 05 48 60 00 00 	lea    rax,[rip+0x6048]        # 8004 <__bss_start>
    1fbc:	c6 04 08 33          	mov    BYTE PTR [rax+rcx*1],0x33
    1fc0:	ff 05 3a 60 00 00    	inc    DWORD PTR [rip+0x603a]        # 8000 <heard>
    1fc6:	48 89 ec             	mov    rsp,rbp
    1fc9:	48 83 ec 08          	sub    rsp,0x8
    1fcd:	5d                   	pop    rbp
    1fce:	48 83 ec 08          	sub    rsp,0x8
    1fd2:	48 83 ec 08          	sub    rsp,0x8
    1fd6:	59                   	pop    rcx
    1fd7:	48 83 ec 08          	sub    rsp,0x8
    1fdb:	ff e1                	jmp    rcx

0000000000001fdd <say52>:
    1fdd:	48 83 c4 08          	add    rsp,0x8
    1fe1:	48 83 c4 08          	add    rsp,0x8
    1fe5:	55                   	push   rbp
    1fe6:	48 83 c4 08          	add    rsp,0x8
    1fea:	48 89 e5             	mov    rbp,rsp
    1fed:	8b 0d 0d 60 00 00    	mov    ecx,DWORD PTR [rip+0x600d]        # 8000 <heard>
    1ff3:	48 8d 05 0a 60 00 00 	lea    rax,[rip+0x600a]        # 8004 <__bss_start>
    1ffa:	c6 04 08 34          	mov    BYTE PTR [rax+rcx*1],0x34
    1ffe:	ff 05 fc 5f 00 00    	inc    DWORD PTR [rip+0x5ffc]        # 8000 <heard>
    2004:	48 89 ec             	mov    rsp,rbp
    2007:	48 83 ec 08          	sub    rsp,0x8
    200b:	5d                   	pop    rbp
    200c:	48 83 ec 08          	sub    rsp,0x8
    2010:	48 83 ec 08          	sub    rsp,0x8
    2014:	59                   	pop    rcx
    2015:	48 83 ec 08          	sub    rsp,0x8
    2019:	ff e1                	jmp    rcx

000000000000201b <say53>:
    201b:	48 83 c4 08          	add    rsp,0x8
    201f:	48 83 c4 08          	add    rsp,0x8
    2023:	55                   	push   rbp
    2024:	48 83 c4 08          	add    rsp,0x8
    2028:	48 89 e5             	mov    rbp,rsp
    202b:	8b 0d cf 5f 00 00    	mov    ecx,DWORD PTR [rip+0x5fcf]        # 8000 <heard>
    2031:	48 8d 05 cc 5f 00 00 	lea    rax,[rip+0x5fcc]        # 8004 <__bss_start>
    2038:	c6 04 08 35          	mov    BYTE PTR [rax+rcx*1],0x35
    203c:	ff 05 be 5f 00 00    	inc    DWORD PTR [rip+0x5fbe]        # 8000 <heard>
    2042:	48 89 ec             	mov    rsp,rbp
    2045:	48 83 ec 08          	sub    rsp,0x8
    2049:	5d                   	pop    rbp
    204a:	48 83 ec 08          	sub    rsp,0x8
    204e:	48 83 ec 08          	sub    rsp,0x8
    2052:	59                   	pop    rcx
    2053:	48 83 ec 08          	sub    rsp,0x8
    2057:	ff e1                	jmp    rcx

0000000000002059 <say54>:
    2059:	48 83 c4 08          	add    rsp,0x8
    205d:	48 83 c4 08          	add    rsp,0x8
    2061:	55                   	push   rbp
    2062:	48 83 c4 08          	add    rsp,0x8
    2066:	48 89 e5             	mov    rbp,rsp
    2069:	8b 0d 91 5f 00 00    	mov    ecx,DWORD PTR [rip+0x5f91]        # 8000 <heard>
    206f:	48 8d 05 8e 5f 00 00 	lea    rax,[rip+0x5f8e]        # 8004 <__bss_start>
    2076:	c6 04 08 36          	mov    BYTE PTR [rax+rcx*1],0x36
    207a:	ff 05 80 5f 00 00    	inc    DWORD PTR [rip+0x5f80]        # 8000 <heard>
    2080:	48 89 ec             	mov    rsp,rbp
    2083:	48 83 ec 08          	sub    rsp,0x8
    2087:	5d                   	pop    rbp
    2088:	48 83 ec 08          	sub    rsp,0x8
    208c:	48 83 ec 08          	sub    rsp,0x8
    2090:	59                   	pop    rcx
    2091:	48 83 ec 08          	sub    rsp,0x8
    2095:	ff e1                	jmp    rcx

0000000000002097 <say55>:
    2097:	48 83 c4 08          	add    rsp,0x8
    209b:	48 83 c4 08          	add    rsp,0x8
    209f:	55                   	push   rbp
    20a0:	48 83 c4 08          	add    rsp,0x8
    20a4:	48 89 e5             	mov    rbp,rsp
    20a7:	8b 0d 53 5f 00 00    	mov    ecx,DWORD PTR [rip+0x5f53]        # 8000 <heard>
    20ad:	48 8d 05 50 5f 00 00 	lea    rax,[rip+0x5f50]        # 8004 <__bss_start>
    20b4:	c6 04 08 37          	mov    BYTE PTR [rax+rcx*1],0x37
    20b8:	ff 05 42 5f 00 00    	inc    DWORD PTR [rip+0x5f42]        # 8000 <heard>
    20be:	48 89 ec             	mov    rsp,rbp
    20c1:	48 83 ec 08          	sub    rsp,0x8
    20c5:	5d                   	pop    rbp
    20c6:	48 83 ec 08          	sub    rsp,0x8
    20ca:	48 83 ec 08          	sub    rsp,0x8
    20ce:	59                   	pop    rcx
    20cf:	48 83 ec 08          	sub    rsp,0x8
    20d3:	ff e1                	jmp    rcx

00000000000020d5 <say56>:
    20d5:	48 83 c4 08          	add    rsp,0x8
    20d9:	48 83 c4 08          	add    rsp,0x8
    20dd:	55                   	push   rbp
    20de:	48 83 c4 08          	add    rsp,0x8
    20e2:	48 89 e5             	mov    rbp,rsp
    20e5:	8b 0d 15 5f 00 00    	mov    ecx,DWORD PTR [rip+0x5f15]        # 8000 <heard>
    20eb:	48 8d 05 12 5f 00 00 	lea    rax,[rip+0x5f12]        # 8004 <__bss_start>
    20f2:	c6 04 08 38          	mov    BYTE PTR [rax+rcx*1],0x38
    20f6:	ff 05 04 5f 00 00    	inc    DWORD PTR [rip+0x5f04]        # 8000 <heard>
    20fc:	48 89 ec             	mov    rsp,rbp
    20ff:	48 83 ec 08          	sub    rsp,0x8
    2103:	5d                   	pop    rbp
    2104:	48 83 ec 08          	sub    rsp,0x8
    2108:	48 83 ec 08          	sub    rsp,0x8
    210c:	59                   	pop    rcx
    210d:	48 83 ec 08          	sub    rsp,0x8
    2111:	ff e1                	jmp    rcx

0000000000002113 <say57>:
    2113:	48 83 c4 08          	add    rsp,0x8
    2117:	48 83 c4 08          	add    rsp,0x8
    211b:	55                   	push   rbp
    211c:	48 83 c4 08          	add    rsp,0x8
    2120:	48 89 e5             	mov    rbp,rsp
    2123:	8b 0d d7 5e 00 00    	mov    ecx,DWORD PTR [rip+0x5ed7]        # 8000 <heard>
    2129:	48 8d 05 d4 5e 00 00 	lea    rax,[rip+0x5ed4]        # 8004 <__bss_start>
    2130:	c6 04 08 39          	mov    BYTE PTR [rax+rcx*1],0x39
    2134:	ff 05 c6 5e 00 00    	inc    DWORD PTR [rip+0x5ec6]        # 8000 <heard>
    213a:	48 89 ec             	mov    rsp,rbp
    213d:	48 83 ec 08          	sub    rsp,0x8
    2141:	5d                   	pop    rbp
    2142:	48 83 ec 08          	sub    rsp,0x8
    2146:	48 83 ec 08          	sub    rsp,0x8
    214a:	59                   	pop    rcx
    214b:	48 83 ec 08          	sub    rsp,0x8
    214f:	ff e1                	jmp    rcx

0000000000002151 <say58>:
    2151:	48 83 c4 08          	add    rsp,0x8
    2155:	48 83 c4 08          	add    rsp,0x8
    2159:	55                   	push   rbp
    215a:	48 83 c4 08          	add    rsp,0x8
    215e:	48 89 e5             	mov    rbp,rsp
    2161:	8b 0d 99 5e 00 00    	mov    ecx,DWORD PTR [rip+0x5e99]        # 8000 <heard>
    2167:	48 8d 05 96 5e 00 00 	lea    rax,[rip+0x5e96]        # 8004 <__bss_start>
    216e:	c6 04 08 3a          	mov    BYTE PTR [rax+rcx*1],0x3a
    2172:	ff 05 88 5e 00 00    	inc    DWORD PTR [rip+0x5e88]        # 8000 <heard>
    2178:	48 89 ec             	mov    rsp,rbp
    217b:	48 83 ec 08          	sub    rsp,0x8
    217f:	5d                   	pop    rbp
    2180:	48 83 ec 08          	sub    rsp,0x8
    2184:	48 83 ec 08          	sub    rsp,0x8
    2188:	59                   	pop    rcx
    2189:	48 83 ec 08          	sub    rsp,0x8
    218d:	ff e1                	jmp    rcx

000000000000218f <say59>:
    218f:	48 83 c4 08          	add    rsp,0x8
    2193:	48 83 c4 08          	add    rsp,0x8
    2197:	55                   	push   rbp
    2198:	48 83 c4 08          	add    rsp,0x8
    219c:	48 89 e5             	mov    rbp,rsp
    219f:	8b 0d 5b 5e 00 00    	mov    ecx,DWORD PTR [rip+0x5e5b]        # 8000 <heard>
    21a5:	48 8d 05 58 5e 00 00 	lea    rax,[rip+0x5e58]        # 8004 <__bss_start>
    21ac:	c6 04 08 3b          	mov    BYTE PTR [rax+rcx*1],0x3b
    21b0:	ff 05 4a 5e 00 00    	inc    DWORD PTR [rip+0x5e4a]        # 8000 <heard>
    21b6:	48 89 ec             	mov    rsp,rbp
    21b9:	48 83 ec 08          	sub    rsp,0x8
    21bd:	5d                   	pop    rbp
    21be:	48 83 ec 08          	sub    rsp,0x8
    21c2:	48 83 ec 08          	sub    rsp,0x8
    21c6:	59                   	pop    rcx
    21c7:	48 83 ec 08          	sub    rsp,0x8
    21cb:	ff e1                	jmp    rcx

00000000000021cd <say60>:
    21cd:	48 83 c4 08          	add    rsp,0x8
    21d1:	48 83 c4 08          	add    rsp,0x8
    21d5:	55                   	push   rbp
    21d6:	48 83 c4 08          	add    rsp,0x8
    21da:	48 89 e5             	mov    rbp,rsp
    21dd:	8b 0d 1d 5e 00 00    	mov    ecx,DWORD PTR [rip+0x5e1d]        # 8000 <heard>
    21e3:	48 8d 05 1a 5e 00 00 	lea    rax,[rip+0x5e1a]        # 8004 <__bss_start>
    21ea:	c6 04 08 3c          	mov    BYTE PTR [rax+rcx*1],0x3c
    21ee:	ff 05 0c 5e 00 00    	inc    DWORD PTR [rip+0x5e0c]        # 8000 <heard>
    21f4:	48 89 ec             	mov    rsp,rbp
    21f7:	48 83 ec 08          	sub    rsp,0x8
    21fb:	5d                   	pop    rbp
    21fc:	48 83 ec 08          	sub    rsp,0x8
    2200:	48 83 ec 08          	sub    rsp,0x8
    2204:	59                   	pop    rcx
    2205:	48 83 ec 08          	sub    rsp,0x8
    2209:	ff e1                	jmp    rcx

000000000000220b <say61>:
    220b:	48 83 c4 08          	add    rsp,0x8
    220f:	48 83 c4 08          	add    rsp,0x8
    2213:	55                   	push   rbp
    2214:	48 83 c4 08          	add    rsp,0x8
    2218:	48 89 e5             	mov    rbp,rsp
    221b:	8b 0d df 5d 00 00    	mov    ecx,DWORD PTR [rip+0x5ddf]        # 8000 <heard>
    2221:	48 8d 05 dc 5d 00 00 	lea    rax,[rip+0x5ddc]        # 8004 <__bss_start>
    2228:	c6 04 08 3d          	mov    BYTE PTR [rax+rcx*1],0x3d
    222c:	ff 05 ce 5d 00 00    	inc    DWORD PTR [rip+0x5dce]        # 8000 <heard>
    2232:	48 89 ec             	mov    rsp,rbp
    2235:	48 83 ec 08          	sub    rsp,0x8
    2239:	5d                   	pop    rbp
    223a:	48 83 ec 08          	sub    rsp,0x8
    223e:	48 83 ec 08          	sub    rsp,0x8
    2242:	59                   	pop    rcx
    2243:	48 83 ec 08          	sub    rsp,0x8
    2247:	ff e1                	jmp    rcx

0000000000002249 <say62>:
    2249:	48 83 c4 08          	add    rsp,0x8
    224d:	48 83 c4 08          	add    rsp,0x8
    2251:	55                   	push   rbp
    2252:	48 83 c4 08          	add    rsp,0x8
    2256:	48 89 e5             	mov    rbp,rsp
    2259:	8b 0d a1 5d 00 00    	mov    ecx,DWORD PTR [rip+0x5da1]        # 8000 <heard>
    225f:	48 8d 05 9e 5d 00 00 	lea    rax,[rip+0x5d9e]        # 8004 <__bss_start>
    2266:	c6 04 08 3e          	mov    BYTE PTR [rax+rcx*1],0x3e
    226a:	ff 05 90 5d 00 00    	inc    DWORD PTR [rip+0x5d90]        # 8000 <heard>
    2270:	48 89 ec             	mov    rsp,rbp
    2273:	48 83 ec 08          	sub    rsp,0x8
    2277:	5d                   	pop    rbp
    2278:	48 83 ec 08          	sub    rsp,0x8
    227c:	48 83 ec 08          	sub    rsp,0x8
    2280:	59                   	pop    rcx
    2281:	48 83 ec 08          	sub    rsp,0x8
    2285:	ff e1                	jmp    rcx

0000000000002287 <say63>:
    2287:	48 83 c4 08          	add    rsp,0x8
    228b:	48 83 c4 08          	add    rsp,0x8
    228f:	55                   	push   rbp
    2290:	48 83 c4 08          	add    rsp,0x8
    2294:	48 89 e5             	mov    rbp,rsp
    2297:	8b 0d 63 5d 00 00    	mov    ecx,DWORD PTR [rip+0x5d63]        # 8000 <heard>
    229d:	48 8d 05 60 5d 00 00 	lea    rax,[rip+0x5d60]        # 8004 <__bss_start>
    22a4:	c6 04 08 3f          	mov    BYTE PTR [rax+rcx*1],0x3f
    22a8:	ff 05 52 5d 00 00    	inc    DWORD PTR [rip+0x5d52]        # 8000 <heard>
    22ae:	48 89 ec             	mov    rsp,rbp
    22b1:	48 83 ec 08          	sub    rsp,0x8
    22b5:	5d                   	pop    rbp
    22b6:	48 83 ec 08          	sub    rsp,0x8
    22ba:	48 83 ec 08          	sub    rsp,0x8
    22be:	59                   	pop    rcx
    22bf:	48 83 ec 08          	sub    rsp,0x8
    22c3:	ff e1                	jmp    rcx

00000000000022c5 <say64>:
    22c5:	48 83 c4 08          	add    rsp,0x8
    22c9:	48 83 c4 08          	add    rsp,0x8
    22cd:	55                   	push   rbp
    22ce:	48 83 c4 08          	add    rsp,0x8
    22d2:	48 89 e5             	mov    rbp,rsp
    22d5:	8b 0d 25 5d 00 00    	mov    ecx,DWORD PTR [rip+0x5d25]        # 8000 <heard>
    22db:	48 8d 05 22 5d 00 00 	lea    rax,[rip+0x5d22]        # 8004 <__bss_start>
    22e2:	c6 04 08 40          	mov    BYTE PTR [rax+rcx*1],0x40
    22e6:	ff 05 14 5d 00 00    	inc    DWORD PTR [rip+0x5d14]        # 8000 <heard>
    22ec:	48 89 ec             	mov    rsp,rbp
    22ef:	48 83 ec 08          	sub    rsp,0x8
    22f3:	5d                   	pop    rbp
    22f4:	48 83 ec 08          	sub    rsp,0x8
    22f8:	48 83 ec 08          	sub    rsp,0x8
    22fc:	59                   	pop    rcx
    22fd:	48 83 ec 08          	sub    rsp,0x8
    2301:	ff e1                	jmp    rcx

0000000000002303 <say65>:
    2303:	48 83 c4 08          	add    rsp,0x8
    2307:	48 83 c4 08          	add    rsp,0x8
    230b:	55                   	push   rbp
    230c:	48 83 c4 08          	add    rsp,0x8
    2310:	48 89 e5             	mov    rbp,rsp
    2313:	8b 0d e7 5c 00 00    	mov    ecx,DWORD PTR [rip+0x5ce7]        # 8000 <heard>
    2319:	48 8d 05 e4 5c 00 00 	lea    rax,[rip+0x5ce4]        # 8004 <__bss_start>
    2320:	c6 04 08 41          	mov    BYTE PTR [rax+rcx*1],0x41
    2324:	ff 05 d6 5c 00 00    	inc    DWORD PTR [rip+0x5cd6]        # 8000 <heard>
    232a:	48 89 ec             	mov    rsp,rbp
    232d:	48 83 ec 08          	sub    rsp,0x8
    2331:	5d                   	pop    rbp
    2332:	48 83 ec 08          	sub    rsp,0x8
    2336:	48 83 ec 08          	sub    rsp,0x8
    233a:	59                   	pop    rcx
    233b:	48 83 ec 08          	sub    rsp,0x8
    233f:	ff e1                	jmp    rcx

0000000000002341 <say66>:
    2341:	48 83 c4 08          	add    rsp,0x8
    2345:	48 83 c4 08          	add    rsp,0x8
    2349:	55                   	push   rbp
    234a:	48 83 c4 08          	add    rsp,0x8
    234e:	48 89 e5             	mov    rbp,rsp
    2351:	8b 0d a9 5c 00 00    	mov    ecx,DWORD PTR [rip+0x5ca9]        # 8000 <heard>
    2357:	48 8d 05 a6 5c 00 00 	lea    rax,[rip+0x5ca6]        # 8004 <__bss_start>
    235e:	c6 04 08 42          	mov    BYTE PTR [rax+rcx*1],0x42
    2362:	ff 05 98 5c 00 00    	inc    DWORD PTR [rip+0x5c98]        # 8000 <heard>
    2368:	48 89 ec             	mov    rsp,rbp
    236b:	48 83 ec 08          	sub    rsp,0x8
    236f:	5d                   	pop    rbp
    2370:	48 83 ec 08          	sub    rsp,0x8
    2374:	48 83 ec 08          	sub    rsp,0x8
    2378:	59                   	pop    rcx
    2379:	48 83 ec 08          	sub    rsp,0x8
    237d:	ff e1                	jmp    rcx

000000000000237f <say67>:
    237f:	48 83 c4 08          	add    rsp,0x8
    2383:	48 83 c4 08          	add    rsp,0x8
    2387:	55                   	push   rbp
    2388:	48 83 c4 08          	add    rsp,0x8
    238c:	48 89 e5             	mov    rbp,rsp
    238f:	8b 0d 6b 5c 00 00    	mov    ecx,DWORD PTR [rip+0x5c6b]        # 8000 <heard>
    2395:	48 8d 05 68 5c 00 00 	lea    rax,[rip+0x5c68]        # 8004 <__bss_start>
    239c:	c6 04 08 43          	mov    BYTE PTR [rax+rcx*1],0x43
    23a0:	ff 05 5a 5c 00 00    	inc    DWORD PTR [rip+0x5c5a]        # 8000 <heard>
    23a6:	48 89 ec             	mov    rsp,rbp
    23a9:	48 83 ec 08          	sub    rsp,0x8
    23ad:	5d                   	pop    rbp
    23ae:	48 83 ec 08          	sub    rsp,0x8
    23b2:	48 83 ec 08          	sub    rsp,0x8
    23b6:	59                   	pop    rcx
    23b7:	48 83 ec 08          	sub    rsp,0x8
    23bb:	ff e1                	jmp    rcx

00000000000023bd <say68>:
    23bd:	48 83 c4 08          	add    rsp,0x8
    23c1:	48 83 c4 08          	add    rsp,0x8
    23c5:	55                   	push   rbp
    23c6:	48 83 c4 08          	add    rsp,0x8
    23ca:	48 89 e5             	mov    rbp,rsp
    23cd:	8b 0d 2d 5c 00 00    	mov    ecx,DWORD PTR [rip+0x5c2d]        # 8000 <heard>
    23d3:	48 8d 05 2a 5c 00 00 	lea    rax,[rip+0x5c2a]        # 8004 <__bss_start>
    23da:	c6 04 08 44          	mov    BYTE PTR [rax+rcx*1],0x44
    23de:	ff 05 1c 5c 00 00    	inc    DWORD PTR [rip+0x5c1c]        # 8000 <heard>
    23e4:	48 89 ec             	mov    rsp,rbp
    23e7:	48 83 ec 08          	sub    rsp,0x8
    23eb:	5d                   	pop    rbp
    23ec:	48 83 ec 08          	sub    rsp,0x8
    23f0:	48 83 ec 08          	sub    rsp,0x8
    23f4:	59                   	pop    rcx
    23f5:	48 83 ec 08          	sub    rsp,0x8
    23f9:	ff e1                	jmp    rcx

00000000000023fb <say69>:
    23fb:	48 83 c4 08          	add    rsp,0x8
    23ff:	48 83 c4 08          	add    rsp,0x8
    2403:	55                   	push   rbp
    2404:	48 83 c4 08          	add    rsp,0x8
    2408:	48 89 e5             	mov    rbp,rsp
    240b:	8b 0d ef 5b 00 00    	mov    ecx,DWORD PTR [rip+0x5bef]        # 8000 <heard>
    2411:	48 8d 05 ec 5b 00 00 	lea    rax,[rip+0x5bec]        # 8004 <__bss_start>
    2418:	c6 04 08 45          	mov    BYTE PTR [rax+rcx*1],0x45
    241c:	ff 05 de 5b 00 00    	inc    DWORD PTR [rip+0x5bde]        # 8000 <heard>
    2422:	48 89 ec             	mov    rsp,rbp
    2425:	48 83 ec 08          	sub    rsp,0x8
    2429:	5d                   	pop    rbp
    242a:	48 83 ec 08          	sub    rsp,0x8
    242e:	48 83 ec 08          	sub    rsp,0x8
    2432:	59                   	pop    rcx
    2433:	48 83 ec 08          	sub    rsp,0x8
    2437:	ff e1                	jmp    rcx

0000000000002439 <say70>:
    2439:	48 83 c4 08          	add    rsp,0x8
    243d:	48 83 c4 08          	add    rsp,0x8
    2441:	55                   	push   rbp
    2442:	48 83 c4 08          	add    rsp,0x8
    2446:	48 89 e5             	mov    rbp,rsp
    2449:	8b 0d b1 5b 00 00    	mov    ecx,DWORD PTR [rip+0x5bb1]        # 8000 <heard>
    244f:	48 8d 05 ae 5b 00 00 	lea    rax,[rip+0x5bae]        # 8004 <__bss_start>
    2456:	c6 04 08 46          	mov    BYTE PTR [rax+rcx*1],0x46
    245a:	ff 05 a0 5b 00 00    	inc    DWORD PTR [rip+0x5ba0]        # 8000 <heard>
    2460:	48 89 ec             	mov    rsp,rbp
    2463:	48 83 ec 08          	sub    rsp,0x8
    2467:	5d                   	pop    rbp
    2468:	48 83 ec 08          	sub    rsp,0x8
    246c:	48 83 ec 08          	sub    rsp,0x8
    2470:	59                   	pop    rcx
    2471:	48 83 ec 08          	sub    rsp,0x8
    2475:	ff e1                	jmp    rcx

0000000000002477 <say71>:
    2477:	48 83 c4 08          	add    rsp,0x8
    247b:	48 83 c4 08          	add    rsp,0x8
    247f:	55                   	push   rbp
    2480:	48 83 c4 08          	add    rsp,0x8
    2484:	48 89 e5             	mov    rbp,rsp
    2487:	8b 0d 73 5b 00 00    	mov    ecx,DWORD PTR [rip+0x5b73]        # 8000 <heard>
    248d:	48 8d 05 70 5b 00 00 	lea    rax,[rip+0x5b70]        # 8004 <__bss_start>
    2494:	c6 04 08 47          	mov    BYTE PTR [rax+rcx*1],0x47
    2498:	ff 05 62 5b 00 00    	inc    DWORD PTR [rip+0x5b62]        # 8000 <heard>
    249e:	48 89 ec             	mov    rsp,rbp
    24a1:	48 83 ec 08          	sub    rsp,0x8
    24a5:	5d                   	pop    rbp
    24a6:	48 83 ec 08          	sub    rsp,0x8
    24aa:	48 83 ec 08          	sub    rsp,0x8
    24ae:	59                   	pop    rcx
    24af:	48 83 ec 08          	sub    rsp,0x8
    24b3:	ff e1                	jmp    rcx

00000000000024b5 <say72>:
    24b5:	48 83 c4 08          	add    rsp,0x8
    24b9:	48 83 c4 08          	add    rsp,0x8
    24bd:	55                   	push   rbp
    24be:	48 83 c4 08          	add    rsp,0x8
    24c2:	48 89 e5             	mov    rbp,rsp
    24c5:	8b 0d 35 5b 00 00    	mov    ecx,DWORD PTR [rip+0x5b35]        # 8000 <heard>
    24cb:	48 8d 05 32 5b 00 00 	lea    rax,[rip+0x5b32]        # 8004 <__bss_start>
    24d2:	c6 04 08 48          	mov    BYTE PTR [rax+rcx*1],0x48
    24d6:	ff 05 24 5b 00 00    	inc    DWORD PTR [rip+0x5b24]        # 8000 <heard>
    24dc:	48 89 ec             	mov    rsp,rbp
    24df:	48 83 ec 08          	sub    rsp,0x8
    24e3:	5d                   	pop    rbp
    24e4:	48 83 ec 08          	sub    rsp,0x8
    24e8:	48 83 ec 08          	sub    rsp,0x8
    24ec:	59                   	pop    rcx
    24ed:	48 83 ec 08          	sub    rsp,0x8
    24f1:	ff e1                	jmp    rcx

00000000000024f3 <say73>:
    24f3:	48 83 c4 08          	add    rsp,0x8
    24f7:	48 83 c4 08          	add    rsp,0x8
    24fb:	55                   	push   rbp
    24fc:	48 83 c4 08          	add    rsp,0x8
    2500:	48 89 e5             	mov    rbp,rsp
    2503:	8b 0d f7 5a 00 00    	mov    ecx,DWORD PTR [rip+0x5af7]        # 8000 <heard>
    2509:	48 8d 05 f4 5a 00 00 	lea    rax,[rip+0x5af4]        # 8004 <__bss_start>
    2510:	c6 04 08 49          	mov    BYTE PTR [rax+rcx*1],0x49
    2514:	ff 05 e6 5a 00 00    	inc    DWORD PTR [rip+0x5ae6]        # 8000 <heard>
    251a:	48 89 ec             	mov    rsp,rbp
    251d:	48 83 ec 08          	sub    rsp,0x8
    2521:	5d                   	pop    rbp
    2522:	48 83 ec 08          	sub    rsp,0x8
    2526:	48 83 ec 08          	sub    rsp,0x8
    252a:	59                   	pop    rcx
    252b:	48 83 ec 08          	sub    rsp,0x8
    252f:	ff e1                	jmp    rcx

0000000000002531 <say74>:
    2531:	48 83 c4 08          	add    rsp,0x8
    2535:	48 83 c4 08          	add    rsp,0x8
    2539:	55                   	push   rbp
    253a:	48 83 c4 08          	add    rsp,0x8
    253e:	48 89 e5             	mov    rbp,rsp
    2541:	8b 0d b9 5a 00 00    	mov    ecx,DWORD PTR [rip+0x5ab9]        # 8000 <heard>
    2547:	48 8d 05 b6 5a 00 00 	lea    rax,[rip+0x5ab6]        # 8004 <__bss_start>
    254e:	c6 04 08 4a          	mov    BYTE PTR [rax+rcx*1],0x4a
    2552:	ff 05 a8 5a 00 00    	inc    DWORD PTR [rip+0x5aa8]        # 8000 <heard>
    2558:	48 89 ec             	mov    rsp,rbp
    255b:	48 83 ec 08          	sub    rsp,0x8
    255f:	5d                   	pop    rbp
    2560:	48 83 ec 08          	sub    rsp,0x8
    2564:	48 83 ec 08          	sub    rsp,0x8
    2568:	59                   	pop    rcx
    2569:	48 83 ec 08          	sub    rsp,0x8
    256d:	ff e1                	jmp    rcx

000000000000256f <say75>:
    256f:	48 83 c4 08          	add    rsp,0x8
    2573:	48 83 c4 08          	add    rsp,0x8
    2577:	55                   	push   rbp
    2578:	48 83 c4 08          	add    rsp,0x8
    257c:	48 89 e5             	mov    rbp,rsp
    257f:	8b 0d 7b 5a 00 00    	mov    ecx,DWORD PTR [rip+0x5a7b]        # 8000 <heard>
    2585:	48 8d 05 78 5a 00 00 	lea    rax,[rip+0x5a78]        # 8004 <__bss_start>
    258c:	c6 04 08 4b          	mov    BYTE PTR [rax+rcx*1],0x4b
    2590:	ff 05 6a 5a 00 00    	inc    DWORD PTR [rip+0x5a6a]        # 8000 <heard>
    2596:	48 89 ec             	mov    rsp,rbp
    2599:	48 83 ec 08          	sub    rsp,0x8
    259d:	5d                   	pop    rbp
    259e:	48 83 ec 08          	sub    rsp,0x8
    25a2:	48 83 ec 08          	sub    rsp,0x8
    25a6:	59                   	pop    rcx
    25a7:	48 83 ec 08          	sub    rsp,0x8
    25ab:	ff e1                	jmp    rcx

00000000000025ad <say76>:
    25ad:	48 83 c4 08          	add    rsp,0x8
    25b1:	48 83 c4 08          	add    rsp,0x8
    25b5:	55                   	push   rbp
    25b6:	48 83 c4 08          	add    rsp,0x8
    25ba:	48 89 e5             	mov    rbp,rsp
    25bd:	8b 0d 3d 5a 00 00    	mov    ecx,DWORD PTR [rip+0x5a3d]        # 8000 <heard>
    25c3:	48 8d 05 3a 5a 00 00 	lea    rax,[rip+0x5a3a]        # 8004 <__bss_start>
    25ca:	c6 04 08 4c          	mov    BYTE PTR [rax+rcx*1],0x4c
    25ce:	ff 05 2c 5a 00 00    	inc    DWORD PTR [rip+0x5a2c]        # 8000 <heard>
    25d4:	48 89 ec             	mov    rsp,rbp
    25d7:	48 83 ec 08          	sub    rsp,0x8
    25db:	5d                   	pop    rbp
    25dc:	48 83 ec 08          	sub    rsp,0x8
    25e0:	48 83 ec 08          	sub    rsp,0x8
    25e4:	59                   	pop    rcx
    25e5:	48 83 ec 08          	sub    rsp,0x8
    25e9:	ff e1                	jmp    rcx

00000000000025eb <say77>:
    25eb:	48 83 c4 08          	add    rsp,0x8
    25ef:	48 83 c4 08          	add    rsp,0x8
    25f3:	55                   	push   rbp
    25f4:	48 83 c4 08          	add    rsp,0x8
    25f8:	48 89 e5             	mov    rbp,rsp
    25fb:	8b 0d ff 59 00 00    	mov    ecx,DWORD PTR [rip+0x59ff]        # 8000 <heard>
    2601:	48 8d 05 fc 59 00 00 	lea    rax,[rip+0x59fc]        # 8004 <__bss_start>
    2608:	c6 04 08 4d          	mov    BYTE PTR [rax+rcx*1],0x4d
    260c:	ff 05 ee 59 00 00    	inc    DWORD PTR [rip+0x59ee]        # 8000 <heard>
    2612:	48 89 ec             	mov    rsp,rbp
    2615:	48 83 ec 08          	sub    rsp,0x8
    2619:	5d                   	pop    rbp
    261a:	48 83 ec 08          	sub    rsp,0x8
    261e:	48 83 ec 08          	sub    rsp,0x8
    2622:	59                   	pop    rcx
    2623:	48 83 ec 08          	sub    rsp,0x8
    2627:	ff e1                	jmp    rcx

0000000000002629 <say78>:
    2629:	48 83 c4 08          	add    rsp,0x8
    262d:	48 83 c4 08          	add    rsp,0x8
    2631:	55                   	push   rbp
    2632:	48 83 c4 08          	add    rsp,0x8
    2636:	48 89 e5             	mov    rbp,rsp
    2639:	8b 0d c1 59 00 00    	mov    ecx,DWORD PTR [rip+0x59c1]        # 8000 <heard>
    263f:	48 8d 05 be 59 00 00 	lea    rax,[rip+0x59be]        # 8004 <__bss_start>
    2646:	c6 04 08 4e          	mov    BYTE PTR [rax+rcx*1],0x4e
    264a:	ff 05 b0 59 00 00    	inc    DWORD PTR [rip+0x59b0]        # 8000 <heard>
    2650:	48 89 ec             	mov    rsp,rbp
    2653:	48 83 ec 08          	sub    rsp,0x8
    2657:	5d                   	pop    rbp
    2658:	48 83 ec 08          	sub    rsp,0x8
    265c:	48 83 ec 08          	sub    rsp,0x8
    2660:	59                   	pop    rcx
    2661:	48 83 ec 08          	sub    rsp,0x8
    2665:	ff e1                	jmp    rcx

0000000000002667 <say79>:
    2667:	48 83 c4 08          	add    rsp,0x8
    266b:	48 83 c4 08          	add    rsp,0x8
    266f:	55                   	push   rbp
    2670:	48 83 c4 08          	add    rsp,0x8
    2674:	48 89 e5             	mov    rbp,rsp
    2677:	8b 0d 83 59 00 00    	mov    ecx,DWORD PTR [rip+0x5983]        # 8000 <heard>
    267d:	48 8d 05 80 59 00 00 	lea    rax,[rip+0x5980]        # 8004 <__bss_start>
    2684:	c6 04 08 4f          	mov    BYTE PTR [rax+rcx*1],0x4f
    2688:	ff 05 72 59 00 00    	inc    DWORD PTR [rip+0x5972]        # 8000 <heard>
    268e:	48 89 ec             	mov    rsp,rbp
    2691:	48 83 ec 08          	sub    rsp,0x8
    2695:	5d                   	pop    rbp
    2696:	48 83 ec 08          	sub    rsp,0x8
    269a:	48 83 ec 08          	sub    rsp,0x8
    269e:	59                   	pop    rcx
    269f:	48 83 ec 08          	sub    rsp,0x8
    26a3:	ff e1                	jmp    rcx

00000000000026a5 <say80>:
    26a5:	48 83 c4 08          	add    rsp,0x8
    26a9:	48 83 c4 08          	add    rsp,0x8
    26ad:	55                   	push   rbp
    26ae:	48 83 c4 08          	add    rsp,0x8
    26b2:	48 89 e5             	mov    rbp,rsp
    26b5:	8b 0d 45 59 00 00    	mov    ecx,DWORD PTR [rip+0x5945]        # 8000 <heard>
    26bb:	48 8d 05 42 59 00 00 	lea    rax,[rip+0x5942]        # 8004 <__bss_start>
    26c2:	c6 04 08 50          	mov    BYTE PTR [rax+rcx*1],0x50
    26c6:	ff 05 34 59 00 00    	inc    DWORD PTR [rip+0x5934]        # 8000 <heard>
    26cc:	48 89 ec             	mov    rsp,rbp
    26cf:	48 83 ec 08          	sub    rsp,0x8
    26d3:	5d                   	pop    rbp
    26d4:	48 83 ec 08          	sub    rsp,0x8
    26d8:	48 83 ec 08          	sub    rsp,0x8
    26dc:	59                   	pop    rcx
    26dd:	48 83 ec 08          	sub    rsp,0x8
    26e1:	ff e1                	jmp    rcx

00000000000026e3 <say81>:
    26e3:	48 83 c4 08          	add    rsp,0x8
    26e7:	48 83 c4 08          	add    rsp,0x8
    26eb:	55                   	push   rbp
    26ec:	48 83 c4 08          	add    rsp,0x8
    26f0:	48 89 e5             	mov    rbp,rsp
    26f3:	8b 0d 07 59 00 00    	mov    ecx,DWORD PTR [rip+0x5907]        # 8000 <heard>
    26f9:	48 8d 05 04 59 00 00 	lea    rax,[rip+0x5904]        # 8004 <__bss_start>
    2700:	c6 04 08 51          	mov    BYTE PTR [rax+rcx*1],0x51
    2704:	ff 05 f6 58 00 00    	inc    DWORD PTR [rip+0x58f6]        # 8000 <heard>
    270a:	48 89 ec             	mov    rsp,rbp
    270d:	48 83 ec 08          	sub    rsp,0x8
    2711:	5d                   	pop    rbp
    2712:	48 83 ec 08          	sub    rsp,0x8
    2716:	48 83 ec 08          	sub    rsp,0x8
    271a:	59                   	pop    rcx
    271b:	48 83 ec 08          	sub    rsp,0x8
    271f:	ff e1                	jmp    rcx

0000000000002721 <say82>:
    2721:	48 83 c4 08          	add    rsp,0x8
    2725:	48 83 c4 08          	add    rsp,0x8
    2729:	55                   	push   rbp
    272a:	48 83 c4 08          	add    rsp,0x8
    272e:	48 89 e5             	mov    rbp,rsp
    2731:	8b 0d c9 58 00 00    	mov    ecx,DWORD PTR [rip+0x58c9]        # 8000 <heard>
    2737:	48 8d 05 c6 58 00 00 	lea    rax,[rip+0x58c6]        # 8004 <__bss_start>
    273e:	c6 04 08 52          	mov    BYTE PTR [rax+rcx*1],0x52
    2742:	ff 05 b8 58 00 00    	inc    DWORD PTR [rip+0x58b8]        # 8000 <heard>
    2748:	48 89 ec             	mov    rsp,rbp
    274b:	48 83 ec 08          	sub    rsp,0x8
    274f:	5d                   	pop    rbp
    2750:	48 83 ec 08          	sub    rsp,0x8
    2754:	48 83 ec 08          	sub    rsp,0x8
    2758:	59                   	pop    rcx
    2759:	48 83 ec 08          	sub    rsp,0x8
    275d:	ff e1                	jmp    rcx

000000000000275f <say83>:
    275f:	48 83 c4 08          	add    rsp,0x8
    2763:	48 83 c4 08          	add    rsp,0x8
    2767:	55                   	push   rbp
    2768:	48 83 c4 08          	add    rsp,0x8
    276c:	48 89 e5             	mov    rbp,rsp
    276f:	8b 0d 8b 58 00 00    	mov    ecx,DWORD PTR [rip+0x588b]        # 8000 <heard>
    2775:	48 8d 05 88 58 00 00 	lea    rax,[rip+0x5888]        # 8004 <__bss_start>
    277c:	c6 04 08 53          	mov    BYTE PTR [rax+rcx*1],0x53
    2780:	ff 05 7a 58 00 00    	inc    DWORD PTR [rip+0x587a]        # 8000 <heard>
    2786:	48 89 ec             	mov    rsp,rbp
    2789:	48 83 ec 08          	sub    rsp,0x8
    278d:	5d                   	pop    rbp
    278e:	48 83 ec 08          	sub    rsp,0x8
    2792:	48 83 ec 08          	sub    rsp,0x8
    2796:	59                   	pop    rcx
    2797:	48 83 ec 08          	sub    rsp,0x8
    279b:	ff e1                	jmp    rcx

000000000000279d <say84>:
    279d:	48 83 c4 08          	add    rsp,0x8
    27a1:	48 83 c4 08          	add    rsp,0x8
    27a5:	55                   	push   rbp
    27a6:	48 83 c4 08          	add    rsp,0x8
    27aa:	48 89 e5             	mov    rbp,rsp
    27ad:	8b 0d 4d 58 00 00    	mov    ecx,DWORD PTR [rip+0x584d]        # 8000 <heard>
    27b3:	48 8d 05 4a 58 00 00 	lea    rax,[rip+0x584a]        # 8004 <__bss_start>
    27ba:	c6 04 08 54          	mov    BYTE PTR [rax+rcx*1],0x54
    27be:	ff 05 3c 58 00 00    	inc    DWORD PTR [rip+0x583c]        # 8000 <heard>
    27c4:	48 89 ec             	mov    rsp,rbp
    27c7:	48 83 ec 08          	sub    rsp,0x8
    27cb:	5d                   	pop    rbp
    27cc:	48 83 ec 08          	sub    rsp,0x8
    27d0:	48 83 ec 08          	sub    rsp,0x8
    27d4:	59                   	pop    rcx
    27d5:	48 83 ec 08          	sub    rsp,0x8
    27d9:	ff e1                	jmp    rcx

00000000000027db <say85>:
    27db:	48 83 c4 08          	add    rsp,0x8
    27df:	48 83 c4 08          	add    rsp,0x8
    27e3:	55                   	push   rbp
    27e4:	48 83 c4 08          	add    rsp,0x8
    27e8:	48 89 e5             	mov    rbp,rsp
    27eb:	8b 0d 0f 58 00 00    	mov    ecx,DWORD PTR [rip+0x580f]        # 8000 <heard>
    27f1:	48 8d 05 0c 58 00 00 	lea    rax,[rip+0x580c]        # 8004 <__bss_start>
    27f8:	c6 04 08 55          	mov    BYTE PTR [rax+rcx*1],0x55
    27fc:	ff 05 fe 57 00 00    	inc    DWORD PTR [rip+0x57fe]        # 8000 <heard>
    2802:	48 89 ec             	mov    rsp,rbp
    2805:	48 83 ec 08          	sub    rsp,0x8
    2809:	5d                   	pop    rbp
    280a:	48 83 ec 08          	sub    rsp,0x8
    280e:	48 83 ec 08          	sub    rsp,0x8
    2812:	59                   	pop    rcx
    2813:	48 83 ec 08          	sub    rsp,0x8
    2817:	ff e1                	jmp    rcx

0000000000002819 <say86>:
    2819:	48 83 c4 08          	add    rsp,0x8
    281d:	48 83 c4 08          	add    rsp,0x8
    2821:	55                   	push   rbp
    2822:	48 83 c4 08          	add    rsp,0x8
    2826:	48 89 e5             	mov    rbp,rsp
    2829:	8b 0d d1 57 00 00    	mov    ecx,DWORD PTR [rip+0x57d1]        # 8000 <heard>
    282f:	48 8d 05 ce 57 00 00 	lea    rax,[rip+0x57ce]        # 8004 <__bss_start>
    2836:	c6 04 08 56          	mov    BYTE PTR [rax+rcx*1],0x56
    283a:	ff 05 c0 57 00 00    	inc    DWORD PTR [rip+0x57c0]        # 8000 <heard>
    2840:	48 89 ec             	mov    rsp,rbp
    2843:	48 83 ec 08          	sub    rsp,0x8
    2847:	5d                   	pop    rbp
    2848:	48 83 ec 08          	sub    rsp,0x8
    284c:	48 83 ec 08          	sub    rsp,0x8
    2850:	59                   	pop    rcx
    2851:	48 83 ec 08          	sub    rsp,0x8
    2855:	ff e1                	jmp    rcx

0000000000002857 <say87>:
    2857:	48 83 c4 08          	add    rsp,0x8
    285b:	48 83 c4 08          	add    rsp,0x8
    285f:	55                   	push   rbp
    2860:	48 83 c4 08          	add    rsp,0x8
    2864:	48 89 e5             	mov    rbp,rsp
    2867:	8b 0d 93 57 00 00    	mov    ecx,DWORD PTR [rip+0x5793]        # 8000 <heard>
    286d:	48 8d 05 90 57 00 00 	lea    rax,[rip+0x5790]        # 8004 <__bss_start>
    2874:	c6 04 08 57          	mov    BYTE PTR [rax+rcx*1],0x57
    2878:	ff 05 82 57 00 00    	inc    DWORD PTR [rip+0x5782]        # 8000 <heard>
    287e:	48 89 ec             	mov    rsp,rbp
    2881:	48 83 ec 08          	sub    rsp,0x8
    2885:	5d                   	pop    rbp
    2886:	48 83 ec 08          	sub    rsp,0x8
    288a:	48 83 ec 08          	sub    rsp,0x8
    288e:	59                   	pop    rcx
    288f:	48 83 ec 08          	sub    rsp,0x8
    2893:	ff e1                	jmp    rcx

0000000000002895 <say88>:
    2895:	48 83 c4 08          	add    rsp,0x8
    2899:	48 83 c4 08          	add    rsp,0x8
    289d:	55                   	push   rbp
    289e:	48 83 c4 08          	add    rsp,0x8
    28a2:	48 89 e5             	mov    rbp,rsp
    28a5:	8b 0d 55 57 00 00    	mov    ecx,DWORD PTR [rip+0x5755]        # 8000 <heard>
    28ab:	48 8d 05 52 57 00 00 	lea    rax,[rip+0x5752]        # 8004 <__bss_start>
    28b2:	c6 04 08 58          	mov    BYTE PTR [rax+rcx*1],0x58
    28b6:	ff 05 44 57 00 00    	inc    DWORD PTR [rip+0x5744]        # 8000 <heard>
    28bc:	48 89 ec             	mov    rsp,rbp
    28bf:	48 83 ec 08          	sub    rsp,0x8
    28c3:	5d                   	pop    rbp
    28c4:	48 83 ec 08          	sub    rsp,0x8
    28c8:	48 83 ec 08          	sub    rsp,0x8
    28cc:	59                   	pop    rcx
    28cd:	48 83 ec 08          	sub    rsp,0x8
    28d1:	ff e1                	jmp    rcx

00000000000028d3 <say89>:
    28d3:	48 83 c4 08          	add    rsp,0x8
    28d7:	48 83 c4 08          	add    rsp,0x8
    28db:	55                   	push   rbp
    28dc:	48 83 c4 08          	add    rsp,0x8
    28e0:	48 89 e5             	mov    rbp,rsp
    28e3:	8b 0d 17 57 00 00    	mov    ecx,DWORD PTR [rip+0x5717]        # 8000 <heard>
    28e9:	48 8d 05 14 57 00 00 	lea    rax,[rip+0x5714]        # 8004 <__bss_start>
    28f0:	c6 04 08 59          	mov    BYTE PTR [rax+rcx*1],0x59
    28f4:	ff 05 06 57 00 00    	inc    DWORD PTR [rip+0x5706]        # 8000 <heard>
    28fa:	48 89 ec             	mov    rsp,rbp
    28fd:	48 83 ec 08          	sub    rsp,0x8
    2901:	5d                   	pop    rbp
    2902:	48 83 ec 08          	sub    rsp,0x8
    2906:	48 83 ec 08          	sub    rsp,0x8
    290a:	59                   	pop    rcx
    290b:	48 83 ec 08          	sub    rsp,0x8
    290f:	ff e1                	jmp    rcx

0000000000002911 <say90>:
    2911:	48 83 c4 08          	add    rsp,0x8
    2915:	48 83 c4 08          	add    rsp,0x8
    2919:	55                   	push   rbp
    291a:	48 83 c4 08          	add    rsp,0x8
    291e:	48 89 e5             	mov    rbp,rsp
    2921:	8b 0d d9 56 00 00    	mov    ecx,DWORD PTR [rip+0x56d9]        # 8000 <heard>
    2927:	48 8d 05 d6 56 00 00 	lea    rax,[rip+0x56d6]        # 8004 <__bss_start>
    292e:	c6 04 08 5a          	mov    BYTE PTR [rax+rcx*1],0x5a
    2932:	ff 05 c8 56 00 00    	inc    DWORD PTR [rip+0x56c8]        # 8000 <heard>
    2938:	48 89 ec             	mov    rsp,rbp
    293b:	48 83 ec 08          	sub    rsp,0x8
    293f:	5d                   	pop    rbp
    2940:	48 83 ec 08          	sub    rsp,0x8
    2944:	48 83 ec 08          	sub    rsp,0x8
    2948:	59                   	pop    rcx
    2949:	48 83 ec 08          	sub    rsp,0x8
    294d:	ff e1                	jmp    rcx

000000000000294f <say91>:
    294f:	48 83 c4 08          	add    rsp,0x8
    2953:	48 83 c4 08          	add    rsp,0x8
    2957:	55                   	push   rbp
    2958:	48 83 c4 08          	add    rsp,0x8
    295c:	48 89 e5             	mov    rbp,rsp
    295f:	8b 0d 9b 56 00 00    	mov    ecx,DWORD PTR [rip+0x569b]        # 8000 <heard>
    2965:	48 8d 05 98 56 00 00 	lea    rax,[rip+0x5698]        # 8004 <__bss_start>
    296c:	c6 04 08 5b          	mov    BYTE PTR [rax+rcx*1],0x5b
    2970:	ff 05 8a 56 00 00    	inc    DWORD PTR [rip+0x568a]        # 8000 <heard>
    2976:	48 89 ec             	mov    rsp,rbp
    2979:	48 83 ec 08          	sub    rsp,0x8
    297d:	5d                   	pop    rbp
    297e:	48 83 ec 08          	sub    rsp,0x8
    2982:	48 83 ec 08          	sub    rsp,0x8
    2986:	59                   	pop    rcx
    2987:	48 83 ec 08          	sub    rsp,0x8
    298b:	ff e1                	jmp    rcx

000000000000298d <say92>:
    298d:	48 83 c4 08          	add    rsp,0x8
    2991:	48 83 c4 08          	add    rsp,0x8
    2995:	55                   	push   rbp
    2996:	48 83 c4 08          	add    rsp,0x8
    299a:	48 89 e5             	mov    rbp,rsp
    299d:	8b 0d 5d 56 00 00    	mov    ecx,DWORD PTR [rip+0x565d]        # 8000 <heard>
    29a3:	48 8d 05 5a 56 00 00 	lea    rax,[rip+0x565a]        # 8004 <__bss_start>
    29aa:	c6 04 08 5c          	mov    BYTE PTR [rax+rcx*1],0x5c
    29ae:	ff 05 4c 56 00 00    	inc    DWORD PTR [rip+0x564c]        # 8000 <heard>
    29b4:	48 89 ec             	mov    rsp,rbp
    29b7:	48 83 ec 08          	sub    rsp,0x8
    29bb:	5d                   	pop    rbp
    29bc:	48 83 ec 08          	sub    rsp,0x8
    29c0:	48 83 ec 08          	sub    rsp,0x8
    29c4:	59                   	pop    rcx
    29c5:	48 83 ec 08          	sub    rsp,0x8
    29c9:	ff e1                	jmp    rcx

00000000000029cb <say93>:
    29cb:	48 83 c4 08          	add    rsp,0x8
    29cf:	48 83 c4 08          	add    rsp,0x8
    29d3:	55                   	push   rbp
    29d4:	48 83 c4 08          	add    rsp,0x8
    29d8:	48 89 e5             	mov    rbp,rsp
    29db:	8b 0d 1f 56 00 00    	mov    ecx,DWORD PTR [rip+0x561f]        # 8000 <heard>
    29e1:	48 8d 05 1c 56 00 00 	lea    rax,[rip+0x561c]        # 8004 <__bss_start>
    29e8:	c6 04 08 5d          	mov    BYTE PTR [rax+rcx*1],0x5d
    29ec:	ff 05 0e 56 00 00    	inc    DWORD PTR [rip+0x560e]        # 8000 <heard>
    29f2:	48 89 ec             	mov    rsp,rbp
    29f5:	48 83 ec 08          	sub    rsp,0x8
    29f9:	5d                   	pop    rbp
    29fa:	48 83 ec 08          	sub    rsp,0x8
    29fe:	48 83 ec 08          	sub    rsp,0x8
    2a02:	59                   	pop    rcx
    2a03:	48 83 ec 08          	sub    rsp,0x8
    2a07:	ff e1                	jmp    rcx

0000000000002a09 <say94>:
    2a09:	48 83 c4 08          	add    rsp,0x8
    2a0d:	48 83 c4 08          	add    rsp,0x8
    2a11:	55                   	push   rbp
    2a12:	48 83 c4 08          	add    rsp,0x8
    2a16:	48 89 e5             	mov    rbp,rsp
    2a19:	8b 0d e1 55 00 00    	mov    ecx,DWORD PTR [rip+0x55e1]        # 8000 <heard>
    2a1f:	48 8d 05 de 55 00 00 	lea    rax,[rip+0x55de]        # 8004 <__bss_start>
    2a26:	c6 04 08 5e          	mov    BYTE PTR [rax+rcx*1],0x5e
    2a2a:	ff 05 d0 55 00 00    	inc    DWORD PTR [rip+0x55d0]        # 8000 <heard>
    2a30:	48 89 ec             	mov    rsp,rbp
    2a33:	48 83 ec 08          	sub    rsp,0x8
    2a37:	5d                   	pop    rbp
    2a38:	48 83 ec 08          	sub    rsp,0x8
    2a3c:	48 83 ec 08          	sub    rsp,0x8
    2a40:	59                   	pop    rcx
    2a41:	48 83 ec 08          	sub    rsp,0x8
    2a45:	ff e1                	jmp    rcx

0000000000002a47 <say95>:
    2a47:	48 83 c4 08          	add    rsp,0x8
    2a4b:	48 83 c4 08          	add    rsp,0x8
    2a4f:	55                   	push   rbp
    2a50:	48 83 c4 08          	add    rsp,0x8
    2a54:	48 89 e5             	mov    rbp,rsp
    2a57:	8b 0d a3 55 00 00    	mov    ecx,DWORD PTR [rip+0x55a3]        # 8000 <heard>
    2a5d:	48 8d 05 a0 55 00 00 	lea    rax,[rip+0x55a0]        # 8004 <__bss_start>
    2a64:	c6 04 08 5f          	mov    BYTE PTR [rax+rcx*1],0x5f
    2a68:	ff 05 92 55 00 00    	inc    DWORD PTR [rip+0x5592]        # 8000 <heard>
    2a6e:	48 89 ec             	mov    rsp,rbp
    2a71:	48 83 ec 08          	sub    rsp,0x8
    2a75:	5d                   	pop    rbp
    2a76:	48 83 ec 08          	sub    rsp,0x8
    2a7a:	48 83 ec 08          	sub    rsp,0x8
    2a7e:	59                   	pop    rcx
    2a7f:	48 83 ec 08          	sub    rsp,0x8
    2a83:	ff e1                	jmp    rcx

0000000000002a85 <say96>:
    2a85:	48 83 c4 08          	add    rsp,0x8
    2a89:	48 83 c4 08          	add    rsp,0x8
    2a8d:	55                   	push   rbp
    2a8e:	48 83 c4 08          	add    rsp,0x8
    2a92:	48 89 e5             	mov    rbp,rsp
    2a95:	8b 0d 65 55 00 00    	mov    ecx,DWORD PTR [rip+0x5565]        # 8000 <heard>
    2a9b:	48 8d 05 62 55 00 00 	lea    rax,[rip+0x5562]        # 8004 <__bss_start>
    2aa2:	c6 04 08 60          	mov    BYTE PTR [rax+rcx*1],0x60
    2aa6:	ff 05 54 55 00 00    	inc    DWORD PTR [rip+0x5554]        # 8000 <heard>
    2aac:	48 89 ec             	mov    rsp,rbp
    2aaf:	48 83 ec 08          	sub    rsp,0x8
    2ab3:	5d                   	pop    rbp
    2ab4:	48 83 ec 08          	sub    rsp,0x8
    2ab8:	48 83 ec 08          	sub    rsp,0x8
    2abc:	59                   	pop    rcx
    2abd:	48 83 ec 08          	sub    rsp,0x8
    2ac1:	ff e1                	jmp    rcx

0000000000002ac3 <say97>:
    2ac3:	48 83 c4 08          	add    rsp,0x8
    2ac7:	48 83 c4 08          	add    rsp,0x8
    2acb:	55                   	push   rbp
    2acc:	48 83 c4 08          	add    rsp,0x8
    2ad0:	48 89 e5             	mov    rbp,rsp
    2ad3:	8b 0d 27 55 00 00    	mov    ecx,DWORD PTR [rip+0x5527]        # 8000 <heard>
    2ad9:	48 8d 05 24 55 00 00 	lea    rax,[rip+0x5524]        # 8004 <__bss_start>
    2ae0:	c6 04 08 61          	mov    BYTE PTR [rax+rcx*1],0x61
    2ae4:	ff 05 16 55 00 00    	inc    DWORD PTR [rip+0x5516]        # 8000 <heard>
    2aea:	48 89 ec             	mov    rsp,rbp
    2aed:	48 83 ec 08          	sub    rsp,0x8
    2af1:	5d                   	pop    rbp
    2af2:	48 83 ec 08          	sub    rsp,0x8
    2af6:	48 83 ec 08          	sub    rsp,0x8
    2afa:	59                   	pop    rcx
    2afb:	48 83 ec 08          	sub    rsp,0x8
    2aff:	ff e1                	jmp    rcx

0000000000002b01 <say98>:
    2b01:	48 83 c4 08          	add    rsp,0x8
    2b05:	48 83 c4 08          	add    rsp,0x8
    2b09:	55                   	push   rbp
    2b0a:	48 83 c4 08          	add    rsp,0x8
    2b0e:	48 89 e5             	mov    rbp,rsp
    2b11:	8b 0d e9 54 00 00    	mov    ecx,DWORD PTR [rip+0x54e9]        # 8000 <heard>
    2b17:	48 8d 05 e6 54 00 00 	lea    rax,[rip+0x54e6]        # 8004 <__bss_start>
    2b1e:	c6 04 08 62          	mov    BYTE PTR [rax+rcx*1],0x62
    2b22:	ff 05 d8 54 00 00    	inc    DWORD PTR [rip+0x54d8]        # 8000 <heard>
    2b28:	48 89 ec             	mov    rsp,rbp
    2b2b:	48 83 ec 08          	sub    rsp,0x8
    2b2f:	5d                   	pop    rbp
    2b30:	48 83 ec 08          	sub    rsp,0x8
    2b34:	48 83 ec 08          	sub    rsp,0x8
    2b38:	59                   	pop    rcx
    2b39:	48 83 ec 08          	sub    rsp,0x8
    2b3d:	ff e1                	jmp    rcx

0000000000002b3f <say99>:
    2b3f:	48 83 c4 08          	add    rsp,0x8
    2b43:	48 83 c4 08          	add    rsp,0x8
    2b47:	55                   	push   rbp
    2b48:	48 83 c4 08          	add    rsp,0x8
    2b4c:	48 89 e5             	mov    rbp,rsp
    2b4f:	8b 0d ab 54 00 00    	mov    ecx,DWORD PTR [rip+0x54ab]        # 8000 <heard>
    2b55:	48 8d 05 a8 54 00 00 	lea    rax,[rip+0x54a8]        # 8004 <__bss_start>
    2b5c:	c6 04 08 63          	mov    BYTE PTR [rax+rcx*1],0x63
    2b60:	ff 05 9a 54 00 00    	inc    DWORD PTR [rip+0x549a]        # 8000 <heard>
    2b66:	48 89 ec             	mov    rsp,rbp
    2b69:	48 83 ec 08          	sub    rsp,0x8
    2b6d:	5d                   	pop    rbp
    2b6e:	48 83 ec 08          	sub    rsp,0x8
    2b72:	48 83 ec 08          	sub    rsp,0x8
    2b76:	59                   	pop    rcx
    2b77:	48 83 ec 08          	sub    rsp,0x8
    2b7b:	ff e1                	jmp    rcx

0000000000002b7d <say100>:
    2b7d:	48 83 c4 08          	add    rsp,0x8
    2b81:	48 83 c4 08          	add    rsp,0x8
    2b85:	55                   	push   rbp
    2b86:	48 83 c4 08          	add    rsp,0x8
    2b8a:	48 89 e5             	mov    rbp,rsp
    2b8d:	8b 0d 6d 54 00 00    	mov    ecx,DWORD PTR [rip+0x546d]        # 8000 <heard>
    2b93:	48 8d 05 6a 54 00 00 	lea    rax,[rip+0x546a]        # 8004 <__bss_start>
    2b9a:	c6 04 08 64          	mov    BYTE PTR [rax+rcx*1],0x64
    2b9e:	ff 05 5c 54 00 00    	inc    DWORD PTR [rip+0x545c]        # 8000 <heard>
    2ba4:	48 89 ec             	mov    rsp,rbp
    2ba7:	48 83 ec 08          	sub    rsp,0x8
    2bab:	5d                   	pop    rbp
    2bac:	48 83 ec 08          	sub    rsp,0x8
    2bb0:	48 83 ec 08          	sub    rsp,0x8
    2bb4:	59                   	pop    rcx
    2bb5:	48 83 ec 08          	sub    rsp,0x8
    2bb9:	ff e1                	jmp    rcx

0000000000002bbb <say101>:
    2bbb:	48 83 c4 08          	add    rsp,0x8
    2bbf:	48 83 c4 08          	add    rsp,0x8
    2bc3:	55                   	push   rbp
    2bc4:	48 83 c4 08          	add    rsp,0x8
    2bc8:	48 89 e5             	mov    rbp,rsp
    2bcb:	8b 0d 2f 54 00 00    	mov    ecx,DWORD PTR [rip+0x542f]        # 8000 <heard>
    2bd1:	48 8d 05 2c 54 00 00 	lea    rax,[rip+0x542c]        # 8004 <__bss_start>
    2bd8:	c6 04 08 65          	mov    BYTE PTR [rax+rcx*1],0x65
    2bdc:	ff 05 1e 54 00 00    	inc    DWORD PTR [rip+0x541e]        # 8000 <heard>
    2be2:	48 89 ec             	mov    rsp,rbp
    2be5:	48 83 ec 08          	sub    rsp,0x8
    2be9:	5d                   	pop    rbp
    2bea:	48 83 ec 08          	sub    rsp,0x8
    2bee:	48 83 ec 08          	sub    rsp,0x8
    2bf2:	59                   	pop    rcx
    2bf3:	48 83 ec 08          	sub    rsp,0x8
    2bf7:	ff e1                	jmp    rcx

0000000000002bf9 <say102>:
    2bf9:	48 83 c4 08          	add    rsp,0x8
    2bfd:	48 83 c4 08          	add    rsp,0x8
    2c01:	55                   	push   rbp
    2c02:	48 83 c4 08          	add    rsp,0x8
    2c06:	48 89 e5             	mov    rbp,rsp
    2c09:	8b 0d f1 53 00 00    	mov    ecx,DWORD PTR [rip+0x53f1]        # 8000 <heard>
    2c0f:	48 8d 05 ee 53 00 00 	lea    rax,[rip+0x53ee]        # 8004 <__bss_start>
    2c16:	c6 04 08 66          	mov    BYTE PTR [rax+rcx*1],0x66
    2c1a:	ff 05 e0 53 00 00    	inc    DWORD PTR [rip+0x53e0]        # 8000 <heard>
    2c20:	48 89 ec             	mov    rsp,rbp
    2c23:	48 83 ec 08          	sub    rsp,0x8
    2c27:	5d                   	pop    rbp
    2c28:	48 83 ec 08          	sub    rsp,0x8
    2c2c:	48 83 ec 08          	sub    rsp,0x8
    2c30:	59                   	pop    rcx
    2c31:	48 83 ec 08          	sub    rsp,0x8
    2c35:	ff e1                	jmp    rcx

0000000000002c37 <say103>:
    2c37:	48 83 c4 08          	add    rsp,0x8
    2c3b:	48 83 c4 08          	add    rsp,0x8
    2c3f:	55                   	push   rbp
    2c40:	48 83 c4 08          	add    rsp,0x8
    2c44:	48 89 e5             	mov    rbp,rsp
    2c47:	8b 0d b3 53 00 00    	mov    ecx,DWORD PTR [rip+0x53b3]        # 8000 <heard>
    2c4d:	48 8d 05 b0 53 00 00 	lea    rax,[rip+0x53b0]        # 8004 <__bss_start>
    2c54:	c6 04 08 67          	mov    BYTE PTR [rax+rcx*1],0x67
    2c58:	ff 05 a2 53 00 00    	inc    DWORD PTR [rip+0x53a2]        # 8000 <heard>
    2c5e:	48 89 ec             	mov    rsp,rbp
    2c61:	48 83 ec 08          	sub    rsp,0x8
    2c65:	5d                   	pop    rbp
    2c66:	48 83 ec 08          	sub    rsp,0x8
    2c6a:	48 83 ec 08          	sub    rsp,0x8
    2c6e:	59                   	pop    rcx
    2c6f:	48 83 ec 08          	sub    rsp,0x8
    2c73:	ff e1                	jmp    rcx

0000000000002c75 <say104>:
    2c75:	48 83 c4 08          	add    rsp,0x8
    2c79:	48 83 c4 08          	add    rsp,0x8
    2c7d:	55                   	push   rbp
    2c7e:	48 83 c4 08          	add    rsp,0x8
    2c82:	48 89 e5             	mov    rbp,rsp
    2c85:	8b 0d 75 53 00 00    	mov    ecx,DWORD PTR [rip+0x5375]        # 8000 <heard>
    2c8b:	48 8d 05 72 53 00 00 	lea    rax,[rip+0x5372]        # 8004 <__bss_start>
    2c92:	c6 04 08 68          	mov    BYTE PTR [rax+rcx*1],0x68
    2c96:	ff 05 64 53 00 00    	inc    DWORD PTR [rip+0x5364]        # 8000 <heard>
    2c9c:	48 89 ec             	mov    rsp,rbp
    2c9f:	48 83 ec 08          	sub    rsp,0x8
    2ca3:	5d                   	pop    rbp
    2ca4:	48 83 ec 08          	sub    rsp,0x8
    2ca8:	48 83 ec 08          	sub    rsp,0x8
    2cac:	59                   	pop    rcx
    2cad:	48 83 ec 08          	sub    rsp,0x8
    2cb1:	ff e1                	jmp    rcx

0000000000002cb3 <say105>:
    2cb3:	48 83 c4 08          	add    rsp,0x8
    2cb7:	48 83 c4 08          	add    rsp,0x8
    2cbb:	55                   	push   rbp
    2cbc:	48 83 c4 08          	add    rsp,0x8
    2cc0:	48 89 e5             	mov    rbp,rsp
    2cc3:	8b 0d 37 53 00 00    	mov    ecx,DWORD PTR [rip+0x5337]        # 8000 <heard>
    2cc9:	48 8d 05 34 53 00 00 	lea    rax,[rip+0x5334]        # 8004 <__bss_start>
    2cd0:	c6 04 08 69          	mov    BYTE PTR [rax+rcx*1],0x69
    2cd4:	ff 05 26 53 00 00    	inc    DWORD PTR [rip+0x5326]        # 8000 <heard>
    2cda:	48 89 ec             	mov    rsp,rbp
    2cdd:	48 83 ec 08          	sub    rsp,0x8
    2ce1:	5d                   	pop    rbp
    2ce2:	48 83 ec 08          	sub    rsp,0x8
    2ce6:	48 83 ec 08          	sub    rsp,0x8
    2cea:	59                   	pop    rcx
    2ceb:	48 83 ec 08          	sub    rsp,0x8
    2cef:	ff e1                	jmp    rcx

0000000000002cf1 <say106>:
    2cf1:	48 83 c4 08          	add    rsp,0x8
    2cf5:	48 83 c4 08          	add    rsp,0x8
    2cf9:	55                   	push   rbp
    2cfa:	48 83 c4 08          	add    rsp,0x8
    2cfe:	48 89 e5             	mov    rbp,rsp
    2d01:	8b 0d f9 52 00 00    	mov    ecx,DWORD PTR [rip+0x52f9]        # 8000 <heard>
    2d07:	48 8d 05 f6 52 00 00 	lea    rax,[rip+0x52f6]        # 8004 <__bss_start>
    2d0e:	c6 04 08 6a          	mov    BYTE PTR [rax+rcx*1],0x6a
    2d12:	ff 05 e8 52 00 00    	inc    DWORD PTR [rip+0x52e8]        # 8000 <heard>
    2d18:	48 89 ec             	mov    rsp,rbp
    2d1b:	48 83 ec 08          	sub    rsp,0x8
    2d1f:	5d                   	pop    rbp
    2d20:	48 83 ec 08          	sub    rsp,0x8
    2d24:	48 83 ec 08          	sub    rsp,0x8
    2d28:	59                   	pop    rcx
    2d29:	48 83 ec 08          	sub    rsp,0x8
    2d2d:	ff e1                	jmp    rcx

0000000000002d2f <say107>:
    2d2f:	48 83 c4 08          	add    rsp,0x8
    2d33:	48 83 c4 08          	add    rsp,0x8
    2d37:	55                   	push   rbp
    2d38:	48 83 c4 08          	add    rsp,0x8
    2d3c:	48 89 e5             	mov    rbp,rsp
    2d3f:	8b 0d bb 52 00 00    	mov    ecx,DWORD PTR [rip+0x52bb]        # 8000 <heard>
    2d45:	48 8d 05 b8 52 00 00 	lea    rax,[rip+0x52b8]        # 8004 <__bss_start>
    2d4c:	c6 04 08 6b          	mov    BYTE PTR [rax+rcx*1],0x6b
    2d50:	ff 05 aa 52 00 00    	inc    DWORD PTR [rip+0x52aa]        # 8000 <heard>
    2d56:	48 89 ec             	mov    rsp,rbp
    2d59:	48 83 ec 08          	sub    rsp,0x8
    2d5d:	5d                   	pop    rbp
    2d5e:	48 83 ec 08          	sub    rsp,0x8
    2d62:	48 83 ec 08          	sub    rsp,0x8
    2d66:	59                   	pop    rcx
    2d67:	48 83 ec 08          	sub    rsp,0x8
    2d6b:	ff e1                	jmp    rcx

0000000000002d6d <say108>:
    2d6d:	48 83 c4 08          	add    rsp,0x8
    2d71:	48 83 c4 08          	add    rsp,0x8
    2d75:	55                   	push   rbp
    2d76:	48 83 c4 08          	add    rsp,0x8
    2d7a:	48 89 e5             	mov    rbp,rsp
    2d7d:	8b 0d 7d 52 00 00    	mov    ecx,DWORD PTR [rip+0x527d]        # 8000 <heard>
    2d83:	48 8d 05 7a 52 00 00 	lea    rax,[rip+0x527a]        # 8004 <__bss_start>
    2d8a:	c6 04 08 6c          	mov    BYTE PTR [rax+rcx*1],0x6c
    2d8e:	ff 05 6c 52 00 00    	inc    DWORD PTR [rip+0x526c]        # 8000 <heard>
    2d94:	48 89 ec             	mov    rsp,rbp
    2d97:	48 83 ec 08          	sub    rsp,0x8
    2d9b:	5d                   	pop    rbp
    2d9c:	48 83 ec 08          	sub    rsp,0x8
    2da0:	48 83 ec 08          	sub    rsp,0x8
    2da4:	59                   	pop    rcx
    2da5:	48 83 ec 08          	sub    rsp,0x8
    2da9:	ff e1                	jmp    rcx

0000000000002dab <say109>:
    2dab:	48 83 c4 08          	add    rsp,0x8
    2daf:	48 83 c4 08          	add    rsp,0x8
    2db3:	55                   	push   rbp
    2db4:	48 83 c4 08          	add    rsp,0x8
    2db8:	48 89 e5             	mov    rbp,rsp
    2dbb:	8b 0d 3f 52 00 00    	mov    ecx,DWORD PTR [rip+0x523f]        # 8000 <heard>
    2dc1:	48 8d 05 3c 52 00 00 	lea    rax,[rip+0x523c]        # 8004 <__bss_start>
    2dc8:	c6 04 08 6d          	mov    BYTE PTR [rax+rcx*1],0x6d
    2dcc:	ff 05 2e 52 00 00    	inc    DWORD PTR [rip+0x522e]        # 8000 <heard>
    2dd2:	48 89 ec             	mov    rsp,rbp
    2dd5:	48 83 ec 08          	sub    rsp,0x8
    2dd9:	5d                   	pop    rbp
    2dda:	48 83 ec 08          	sub    rsp,0x8
    2dde:	48 83 ec 08          	sub    rsp,0x8
    2de2:	59                   	pop    rcx
    2de3:	48 83 ec 08          	sub    rsp,0x8
    2de7:	ff e1                	jmp    rcx

0000000000002de9 <say110>:
    2de9:	48 83 c4 08          	add    rsp,0x8
    2ded:	48 83 c4 08          	add    rsp,0x8
    2df1:	55                   	push   rbp
    2df2:	48 83 c4 08          	add    rsp,0x8
    2df6:	48 89 e5             	mov    rbp,rsp
    2df9:	8b 0d 01 52 00 00    	mov    ecx,DWORD PTR [rip+0x5201]        # 8000 <heard>
    2dff:	48 8d 05 fe 51 00 00 	lea    rax,[rip+0x51fe]        # 8004 <__bss_start>
    2e06:	c6 04 08 6e          	mov    BYTE PTR [rax+rcx*1],0x6e
    2e0a:	ff 05 f0 51 00 00    	inc    DWORD PTR [rip+0x51f0]        # 8000 <heard>
    2e10:	48 89 ec             	mov    rsp,rbp
    2e13:	48 83 ec 08          	sub    rsp,0x8
    2e17:	5d                   	pop    rbp
    2e18:	48 83 ec 08          	sub    rsp,0x8
    2e1c:	48 83 ec 08          	sub    rsp,0x8
    2e20:	59                   	pop    rcx
    2e21:	48 83 ec 08          	sub    rsp,0x8
    2e25:	ff e1                	jmp    rcx

0000000000002e27 <say111>:
    2e27:	48 83 c4 08          	add    rsp,0x8
    2e2b:	48 83 c4 08          	add    rsp,0x8
    2e2f:	55                   	push   rbp
    2e30:	48 83 c4 08          	add    rsp,0x8
    2e34:	48 89 e5             	mov    rbp,rsp
    2e37:	8b 0d c3 51 00 00    	mov    ecx,DWORD PTR [rip+0x51c3]        # 8000 <heard>
    2e3d:	48 8d 05 c0 51 00 00 	lea    rax,[rip+0x51c0]        # 8004 <__bss_start>
    2e44:	c6 04 08 6f          	mov    BYTE PTR [rax+rcx*1],0x6f
    2e48:	ff 05 b2 51 00 00    	inc    DWORD PTR [rip+0x51b2]        # 8000 <heard>
    2e4e:	48 89 ec             	mov    rsp,rbp
    2e51:	48 83 ec 08          	sub    rsp,0x8
    2e55:	5d                   	pop    rbp
    2e56:	48 83 ec 08          	sub    rsp,0x8
    2e5a:	48 83 ec 08          	sub    rsp,0x8
    2e5e:	59                   	pop    rcx
    2e5f:	48 83 ec 08          	sub    rsp,0x8
    2e63:	ff e1                	jmp    rcx

0000000000002e65 <say112>:
    2e65:	48 83 c4 08          	add    rsp,0x8
    2e69:	48 83 c4 08          	add    rsp,0x8
    2e6d:	55                   	push   rbp
    2e6e:	48 83 c4 08          	add    rsp,0x8
    2e72:	48 89 e5             	mov    rbp,rsp
    2e75:	8b 0d 85 51 00 00    	mov    ecx,DWORD PTR [rip+0x5185]        # 8000 <heard>
    2e7b:	48 8d 05 82 51 00 00 	lea    rax,[rip+0x5182]        # 8004 <__bss_start>
    2e82:	c6 04 08 70          	mov    BYTE PTR [rax+rcx*1],0x70
    2e86:	ff 05 74 51 00 00    	inc    DWORD PTR [rip+0x5174]        # 8000 <heard>
    2e8c:	48 89 ec             	mov    rsp,rbp
    2e8f:	48 83 ec 08          	sub    rsp,0x8
    2e93:	5d                   	pop    rbp
    2e94:	48 83 ec 08          	sub    rsp,0x8
    2e98:	48 83 ec 08          	sub    rsp,0x8
    2e9c:	59                   	pop    rcx
    2e9d:	48 83 ec 08          	sub    rsp,0x8
    2ea1:	ff e1                	jmp    rcx

0000000000002ea3 <say113>:
    2ea3:	48 83 c4 08          	add    rsp,0x8
    2ea7:	48 83 c4 08          	add    rsp,0x8
    2eab:	55                   	push   rbp
    2eac:	48 83 c4 08          	add    rsp,0x8
    2eb0:	48 89 e5             	mov    rbp,rsp
    2eb3:	8b 0d 47 51 00 00    	mov    ecx,DWORD PTR [rip+0x5147]        # 8000 <heard>
    2eb9:	48 8d 05 44 51 00 00 	lea    rax,[rip+0x5144]        # 8004 <__bss_start>
    2ec0:	c6 04 08 71          	mov    BYTE PTR [rax+rcx*1],0x71
    2ec4:	ff 05 36 51 00 00    	inc    DWORD PTR [rip+0x5136]        # 8000 <heard>
    2eca:	48 89 ec             	mov    rsp,rbp
    2ecd:	48 83 ec 08          	sub    rsp,0x8
    2ed1:	5d                   	pop    rbp
    2ed2:	48 83 ec 08          	sub    rsp,0x8
    2ed6:	48 83 ec 08          	sub    rsp,0x8
    2eda:	59                   	pop    rcx
    2edb:	48 83 ec 08          	sub    rsp,0x8
    2edf:	ff e1                	jmp    rcx

0000000000002ee1 <say114>:
    2ee1:	48 83 c4 08          	add    rsp,0x8
    2ee5:	48 83 c4 08          	add    rsp,0x8
    2ee9:	55                   	push   rbp
    2eea:	48 83 c4 08          	add    rsp,0x8
    2eee:	48 89 e5             	mov    rbp,rsp
    2ef1:	8b 0d 09 51 00 00    	mov    ecx,DWORD PTR [rip+0x5109]        # 8000 <heard>
    2ef7:	48 8d 05 06 51 00 00 	lea    rax,[rip+0x5106]        # 8004 <__bss_start>
    2efe:	c6 04 08 72          	mov    BYTE PTR [rax+rcx*1],0x72
    2f02:	ff 05 f8 50 00 00    	inc    DWORD PTR [rip+0x50f8]        # 8000 <heard>
    2f08:	48 89 ec             	mov    rsp,rbp
    2f0b:	48 83 ec 08          	sub    rsp,0x8
    2f0f:	5d                   	pop    rbp
    2f10:	48 83 ec 08          	sub    rsp,0x8
    2f14:	48 83 ec 08          	sub    rsp,0x8
    2f18:	59                   	pop    rcx
    2f19:	48 83 ec 08          	sub    rsp,0x8
    2f1d:	ff e1                	jmp    rcx

0000000000002f1f <say115>:
    2f1f:	48 83 c4 08          	add    rsp,0x8
    2f23:	48 83 c4 08          	add    rsp,0x8
    2f27:	55                   	push   rbp
    2f28:	48 83 c4 08          	add    rsp,0x8
    2f2c:	48 89 e5             	mov    rbp,rsp
    2f2f:	8b 0d cb 50 00 00    	mov    ecx,DWORD PTR [rip+0x50cb]        # 8000 <heard>
    2f35:	48 8d 05 c8 50 00 00 	lea    rax,[rip+0x50c8]        # 8004 <__bss_start>
    2f3c:	c6 04 08 73          	mov    BYTE PTR [rax+rcx*1],0x73
    2f40:	ff 05 ba 50 00 00    	inc    DWORD PTR [rip+0x50ba]        # 8000 <heard>
    2f46:	48 89 ec             	mov    rsp,rbp
    2f49:	48 83 ec 08          	sub    rsp,0x8
    2f4d:	5d                   	pop    rbp
    2f4e:	48 83 ec 08          	sub    rsp,0x8
    2f52:	48 83 ec 08          	sub    rsp,0x8
    2f56:	59                   	pop    rcx
    2f57:	48 83 ec 08          	sub    rsp,0x8
    2f5b:	ff e1                	jmp    rcx

0000000000002f5d <say116>:
    2f5d:	48 83 c4 08          	add    rsp,0x8
    2f61:	48 83 c4 08          	add    rsp,0x8
    2f65:	55                   	push   rbp
    2f66:	48 83 c4 08          	add    rsp,0x8
    2f6a:	48 89 e5             	mov    rbp,rsp
    2f6d:	8b 0d 8d 50 00 00    	mov    ecx,DWORD PTR [rip+0x508d]        # 8000 <heard>
    2f73:	48 8d 05 8a 50 00 00 	lea    rax,[rip+0x508a]        # 8004 <__bss_start>
    2f7a:	c6 04 08 74          	mov    BYTE PTR [rax+rcx*1],0x74
    2f7e:	ff 05 7c 50 00 00    	inc    DWORD PTR [rip+0x507c]        # 8000 <heard>
    2f84:	48 89 ec             	mov    rsp,rbp
    2f87:	48 83 ec 08          	sub    rsp,0x8
    2f8b:	5d                   	pop    rbp
    2f8c:	48 83 ec 08          	sub    rsp,0x8
    2f90:	48 83 ec 08          	sub    rsp,0x8
    2f94:	59                   	pop    rcx
    2f95:	48 83 ec 08          	sub    rsp,0x8
    2f99:	ff e1                	jmp    rcx

0000000000002f9b <say117>:
    2f9b:	48 83 c4 08          	add    rsp,0x8
    2f9f:	48 83 c4 08          	add    rsp,0x8
    2fa3:	55                   	push   rbp
    2fa4:	48 83 c4 08          	add    rsp,0x8
    2fa8:	48 89 e5             	mov    rbp,rsp
    2fab:	8b 0d 4f 50 00 00    	mov    ecx,DWORD PTR [rip+0x504f]        # 8000 <heard>
    2fb1:	48 8d 05 4c 50 00 00 	lea    rax,[rip+0x504c]        # 8004 <__bss_start>
    2fb8:	c6 04 08 75          	mov    BYTE PTR [rax+rcx*1],0x75
    2fbc:	ff 05 3e 50 00 00    	inc    DWORD PTR [rip+0x503e]        # 8000 <heard>
    2fc2:	48 89 ec             	mov    rsp,rbp
    2fc5:	48 83 ec 08          	sub    rsp,0x8
    2fc9:	5d                   	pop    rbp
    2fca:	48 83 ec 08          	sub    rsp,0x8
    2fce:	48 83 ec 08          	sub    rsp,0x8
    2fd2:	59                   	pop    rcx
    2fd3:	48 83 ec 08          	sub    rsp,0x8
    2fd7:	ff e1                	jmp    rcx

0000000000002fd9 <say118>:
    2fd9:	48 83 c4 08          	add    rsp,0x8
    2fdd:	48 83 c4 08          	add    rsp,0x8
    2fe1:	55                   	push   rbp
    2fe2:	48 83 c4 08          	add    rsp,0x8
    2fe6:	48 89 e5             	mov    rbp,rsp
    2fe9:	8b 0d 11 50 00 00    	mov    ecx,DWORD PTR [rip+0x5011]        # 8000 <heard>
    2fef:	48 8d 05 0e 50 00 00 	lea    rax,[rip+0x500e]        # 8004 <__bss_start>
    2ff6:	c6 04 08 76          	mov    BYTE PTR [rax+rcx*1],0x76
    2ffa:	ff 05 00 50 00 00    	inc    DWORD PTR [rip+0x5000]        # 8000 <heard>
    3000:	48 89 ec             	mov    rsp,rbp
    3003:	48 83 ec 08          	sub    rsp,0x8
    3007:	5d                   	pop    rbp
    3008:	48 83 ec 08          	sub    rsp,0x8
    300c:	48 83 ec 08          	sub    rsp,0x8
    3010:	59                   	pop    rcx
    3011:	48 83 ec 08          	sub    rsp,0x8
    3015:	ff e1                	jmp    rcx

0000000000003017 <say119>:
    3017:	48 83 c4 08          	add    rsp,0x8
    301b:	48 83 c4 08          	add    rsp,0x8
    301f:	55                   	push   rbp
    3020:	48 83 c4 08          	add    rsp,0x8
    3024:	48 89 e5             	mov    rbp,rsp
    3027:	8b 0d d3 4f 00 00    	mov    ecx,DWORD PTR [rip+0x4fd3]        # 8000 <heard>
    302d:	48 8d 05 d0 4f 00 00 	lea    rax,[rip+0x4fd0]        # 8004 <__bss_start>
    3034:	c6 04 08 77          	mov    BYTE PTR [rax+rcx*1],0x77
    3038:	ff 05 c2 4f 00 00    	inc    DWORD PTR [rip+0x4fc2]        # 8000 <heard>
    303e:	48 89 ec             	mov    rsp,rbp
    3041:	48 83 ec 08          	sub    rsp,0x8
    3045:	5d                   	pop    rbp
    3046:	48 83 ec 08          	sub    rsp,0x8
    304a:	48 83 ec 08          	sub    rsp,0x8
    304e:	59                   	pop    rcx
    304f:	48 83 ec 08          	sub    rsp,0x8
    3053:	ff e1                	jmp    rcx

0000000000003055 <say120>:
    3055:	48 83 c4 08          	add    rsp,0x8
    3059:	48 83 c4 08          	add    rsp,0x8
    305d:	55                   	push   rbp
    305e:	48 83 c4 08          	add    rsp,0x8
    3062:	48 89 e5             	mov    rbp,rsp
    3065:	8b 0d 95 4f 00 00    	mov    ecx,DWORD PTR [rip+0x4f95]        # 8000 <heard>
    306b:	48 8d 05 92 4f 00 00 	lea    rax,[rip+0x4f92]        # 8004 <__bss_start>
    3072:	c6 04 08 78          	mov    BYTE PTR [rax+rcx*1],0x78
    3076:	ff 05 84 4f 00 00    	inc    DWORD PTR [rip+0x4f84]        # 8000 <heard>
    307c:	48 89 ec             	mov    rsp,rbp
    307f:	48 83 ec 08          	sub    rsp,0x8
    3083:	5d                   	pop    rbp
    3084:	48 83 ec 08          	sub    rsp,0x8
    3088:	48 83 ec 08          	sub    rsp,0x8
    308c:	59                   	pop    rcx
    308d:	48 83 ec 08          	sub    rsp,0x8
    3091:	ff e1                	jmp    rcx

0000000000003093 <say121>:
    3093:	48 83 c4 08          	add    rsp,0x8
    3097:	48 83 c4 08          	add    rsp,0x8
    309b:	55                   	push   rbp
    309c:	48 83 c4 08          	add    rsp,0x8
    30a0:	48 89 e5             	mov    rbp,rsp
    30a3:	8b 0d 57 4f 00 00    	mov    ecx,DWORD PTR [rip+0x4f57]        # 8000 <heard>
    30a9:	48 8d 05 54 4f 00 00 	lea    rax,[rip+0x4f54]        # 8004 <__bss_start>
    30b0:	c6 04 08 79          	mov    BYTE PTR [rax+rcx*1],0x79
    30b4:	ff 05 46 4f 00 00    	inc    DWORD PTR [rip+0x4f46]        # 8000 <heard>
    30ba:	48 89 ec             	mov    rsp,rbp
    30bd:	48 83 ec 08          	sub    rsp,0x8
    30c1:	5d                   	pop    rbp
    30c2:	48 83 ec 08          	sub    rsp,0x8
    30c6:	48 83 ec 08          	sub    rsp,0x8
    30ca:	59                   	pop    rcx
    30cb:	48 83 ec 08          	sub    rsp,0x8
    30cf:	ff e1                	jmp    rcx

00000000000030d1 <say122>:
    30d1:	48 83 c4 08          	add    rsp,0x8
    30d5:	48 83 c4 08          	add    rsp,0x8
    30d9:	55                   	push   rbp
    30da:	48 83 c4 08          	add    rsp,0x8
    30de:	48 89 e5             	mov    rbp,rsp
    30e1:	8b 0d 19 4f 00 00    	mov    ecx,DWORD PTR [rip+0x4f19]        # 8000 <heard>
    30e7:	48 8d 05 16 4f 00 00 	lea    rax,[rip+0x4f16]        # 8004 <__bss_start>
    30ee:	c6 04 08 7a          	mov    BYTE PTR [rax+rcx*1],0x7a
    30f2:	ff 05 08 4f 00 00    	inc    DWORD PTR [rip+0x4f08]        # 8000 <heard>
    30f8:	48 89 ec             	mov    rsp,rbp
    30fb:	48 83 ec 08          	sub    rsp,0x8
    30ff:	5d                   	pop    rbp
    3100:	48 83 ec 08          	sub    rsp,0x8
    3104:	48 83 ec 08          	sub    rsp,0x8
    3108:	59                   	pop    rcx
    3109:	48 83 ec 08          	sub    rsp,0x8
    310d:	ff e1                	jmp    rcx

000000000000310f <say123>:
    310f:	48 83 c4 08          	add    rsp,0x8
    3113:	48 83 c4 08          	add    rsp,0x8
    3117:	55                   	push   rbp
    3118:	48 83 c4 08          	add    rsp,0x8
    311c:	48 89 e5             	mov    rbp,rsp
    311f:	8b 0d db 4e 00 00    	mov    ecx,DWORD PTR [rip+0x4edb]        # 8000 <heard>
    3125:	48 8d 05 d8 4e 00 00 	lea    rax,[rip+0x4ed8]        # 8004 <__bss_start>
    312c:	c6 04 08 7b          	mov    BYTE PTR [rax+rcx*1],0x7b
    3130:	ff 05 ca 4e 00 00    	inc    DWORD PTR [rip+0x4eca]        # 8000 <heard>
    3136:	48 89 ec             	mov    rsp,rbp
    3139:	48 83 ec 08          	sub    rsp,0x8
    313d:	5d                   	pop    rbp
    313e:	48 83 ec 08          	sub    rsp,0x8
    3142:	48 83 ec 08          	sub    rsp,0x8
    3146:	59                   	pop    rcx
    3147:	48 83 ec 08          	sub    rsp,0x8
    314b:	ff e1                	jmp    rcx

000000000000314d <say124>:
    314d:	48 83 c4 08          	add    rsp,0x8
    3151:	48 83 c4 08          	add    rsp,0x8
    3155:	55                   	push   rbp
    3156:	48 83 c4 08          	add    rsp,0x8
    315a:	48 89 e5             	mov    rbp,rsp
    315d:	8b 0d 9d 4e 00 00    	mov    ecx,DWORD PTR [rip+0x4e9d]        # 8000 <heard>
    3163:	48 8d 05 9a 4e 00 00 	lea    rax,[rip+0x4e9a]        # 8004 <__bss_start>
    316a:	c6 04 08 7c          	mov    BYTE PTR [rax+rcx*1],0x7c
    316e:	ff 05 8c 4e 00 00    	inc    DWORD PTR [rip+0x4e8c]        # 8000 <heard>
    3174:	48 89 ec             	mov    rsp,rbp
    3177:	48 83 ec 08          	sub    rsp,0x8
    317b:	5d                   	pop    rbp
    317c:	48 83 ec 08          	sub    rsp,0x8
    3180:	48 83 ec 08          	sub    rsp,0x8
    3184:	59                   	pop    rcx
    3185:	48 83 ec 08          	sub    rsp,0x8
    3189:	ff e1                	jmp    rcx

000000000000318b <say125>:
    318b:	48 83 c4 08          	add    rsp,0x8
    318f:	48 83 c4 08          	add    rsp,0x8
    3193:	55                   	push   rbp
    3194:	48 83 c4 08          	add    rsp,0x8
    3198:	48 89 e5             	mov    rbp,rsp
    319b:	8b 0d 5f 4e 00 00    	mov    ecx,DWORD PTR [rip+0x4e5f]        # 8000 <heard>
    31a1:	48 8d 05 5c 4e 00 00 	lea    rax,[rip+0x4e5c]        # 8004 <__bss_start>
    31a8:	c6 04 08 7d          	mov    BYTE PTR [rax+rcx*1],0x7d
    31ac:	ff 05 4e 4e 00 00    	inc    DWORD PTR [rip+0x4e4e]        # 8000 <heard>
    31b2:	48 89 ec             	mov    rsp,rbp
    31b5:	48 83 ec 08          	sub    rsp,0x8
    31b9:	5d                   	pop    rbp
    31ba:	48 83 ec 08          	sub    rsp,0x8
    31be:	48 83 ec 08          	sub    rsp,0x8
    31c2:	59                   	pop    rcx
    31c3:	48 83 ec 08          	sub    rsp,0x8
    31c7:	ff e1                	jmp    rcx

00000000000031c9 <say126>:
    31c9:	48 83 c4 08          	add    rsp,0x8
    31cd:	48 83 c4 08          	add    rsp,0x8
    31d1:	55                   	push   rbp
    31d2:	48 83 c4 08          	add    rsp,0x8
    31d6:	48 89 e5             	mov    rbp,rsp
    31d9:	8b 0d 21 4e 00 00    	mov    ecx,DWORD PTR [rip+0x4e21]        # 8000 <heard>
    31df:	48 8d 05 1e 4e 00 00 	lea    rax,[rip+0x4e1e]        # 8004 <__bss_start>
    31e6:	c6 04 08 7e          	mov    BYTE PTR [rax+rcx*1],0x7e
    31ea:	ff 05 10 4e 00 00    	inc    DWORD PTR [rip+0x4e10]        # 8000 <heard>
    31f0:	48 89 ec             	mov    rsp,rbp
    31f3:	48 83 ec 08          	sub    rsp,0x8
    31f7:	5d                   	pop    rbp
    31f8:	48 83 ec 08          	sub    rsp,0x8
    31fc:	48 83 ec 08          	sub    rsp,0x8
    3200:	59                   	pop    rcx
    3201:	48 83 ec 08          	sub    rsp,0x8
    3205:	ff e1                	jmp    rcx

0000000000003207 <say127>:
    3207:	48 83 c4 08          	add    rsp,0x8
    320b:	48 83 c4 08          	add    rsp,0x8
    320f:	55                   	push   rbp
    3210:	48 83 c4 08          	add    rsp,0x8
    3214:	48 89 e5             	mov    rbp,rsp
    3217:	8b 0d e3 4d 00 00    	mov    ecx,DWORD PTR [rip+0x4de3]        # 8000 <heard>
    321d:	48 8d 05 e0 4d 00 00 	lea    rax,[rip+0x4de0]        # 8004 <__bss_start>
    3224:	c6 04 08 7f          	mov    BYTE PTR [rax+rcx*1],0x7f
    3228:	ff 05 d2 4d 00 00    	inc    DWORD PTR [rip+0x4dd2]        # 8000 <heard>
    322e:	48 89 ec             	mov    rsp,rbp
    3231:	48 83 ec 08          	sub    rsp,0x8
    3235:	5d                   	pop    rbp
    3236:	48 83 ec 08          	sub    rsp,0x8
    323a:	48 83 ec 08          	sub    rsp,0x8
    323e:	59                   	pop    rcx
    323f:	48 83 ec 08          	sub    rsp,0x8
    3243:	ff e1                	jmp    rcx

0000000000003245 <say128>:
    3245:	48 83 c4 08          	add    rsp,0x8
    3249:	48 83 c4 08          	add    rsp,0x8
    324d:	55                   	push   rbp
    324e:	48 83 c4 08          	add    rsp,0x8
    3252:	48 89 e5             	mov    rbp,rsp
    3255:	8b 0d a5 4d 00 00    	mov    ecx,DWORD PTR [rip+0x4da5]        # 8000 <heard>
    325b:	48 8d 05 a2 4d 00 00 	lea    rax,[rip+0x4da2]        # 8004 <__bss_start>
    3262:	c6 04 08 80          	mov    BYTE PTR [rax+rcx*1],0x80
    3266:	ff 05 94 4d 00 00    	inc    DWORD PTR [rip+0x4d94]        # 8000 <heard>
    326c:	48 89 ec             	mov    rsp,rbp
    326f:	48 83 ec 08          	sub    rsp,0x8
    3273:	5d                   	pop    rbp
    3274:	48 83 ec 08          	sub    rsp,0x8
    3278:	48 83 ec 08          	sub    rsp,0x8
    327c:	59                   	pop    rcx
    327d:	48 83 ec 08          	sub    rsp,0x8
    3281:	ff e1                	jmp    rcx

0000000000003283 <say129>:
    3283:	48 83 c4 08          	add    rsp,0x8
    3287:	48 83 c4 08          	add    rsp,0x8
    328b:	55                   	push   rbp
    328c:	48 83 c4 08          	add    rsp,0x8
    3290:	48 89 e5             	mov    rbp,rsp
    3293:	8b 0d 67 4d 00 00    	mov    ecx,DWORD PTR [rip+0x4d67]        # 8000 <heard>
    3299:	48 8d 05 64 4d 00 00 	lea    rax,[rip+0x4d64]        # 8004 <__bss_start>
    32a0:	c6 04 08 81          	mov    BYTE PTR [rax+rcx*1],0x81
    32a4:	ff 05 56 4d 00 00    	inc    DWORD PTR [rip+0x4d56]        # 8000 <heard>
    32aa:	48 89 ec             	mov    rsp,rbp
    32ad:	48 83 ec 08          	sub    rsp,0x8
    32b1:	5d                   	pop    rbp
    32b2:	48 83 ec 08          	sub    rsp,0x8
    32b6:	48 83 ec 08          	sub    rsp,0x8
    32ba:	59                   	pop    rcx
    32bb:	48 83 ec 08          	sub    rsp,0x8
    32bf:	ff e1                	jmp    rcx

00000000000032c1 <say130>:
    32c1:	48 83 c4 08          	add    rsp,0x8
    32c5:	48 83 c4 08          	add    rsp,0x8
    32c9:	55                   	push   rbp
    32ca:	48 83 c4 08          	add    rsp,0x8
    32ce:	48 89 e5             	mov    rbp,rsp
    32d1:	8b 0d 29 4d 00 00    	mov    ecx,DWORD PTR [rip+0x4d29]        # 8000 <heard>
    32d7:	48 8d 05 26 4d 00 00 	lea    rax,[rip+0x4d26]        # 8004 <__bss_start>
    32de:	c6 04 08 82          	mov    BYTE PTR [rax+rcx*1],0x82
    32e2:	ff 05 18 4d 00 00    	inc    DWORD PTR [rip+0x4d18]        # 8000 <heard>
    32e8:	48 89 ec             	mov    rsp,rbp
    32eb:	48 83 ec 08          	sub    rsp,0x8
    32ef:	5d                   	pop    rbp
    32f0:	48 83 ec 08          	sub    rsp,0x8
    32f4:	48 83 ec 08          	sub    rsp,0x8
    32f8:	59                   	pop    rcx
    32f9:	48 83 ec 08          	sub    rsp,0x8
    32fd:	ff e1                	jmp    rcx

00000000000032ff <say131>:
    32ff:	48 83 c4 08          	add    rsp,0x8
    3303:	48 83 c4 08          	add    rsp,0x8
    3307:	55                   	push   rbp
    3308:	48 83 c4 08          	add    rsp,0x8
    330c:	48 89 e5             	mov    rbp,rsp
    330f:	8b 0d eb 4c 00 00    	mov    ecx,DWORD PTR [rip+0x4ceb]        # 8000 <heard>
    3315:	48 8d 05 e8 4c 00 00 	lea    rax,[rip+0x4ce8]        # 8004 <__bss_start>
    331c:	c6 04 08 83          	mov    BYTE PTR [rax+rcx*1],0x83
    3320:	ff 05 da 4c 00 00    	inc    DWORD PTR [rip+0x4cda]        # 8000 <heard>
    3326:	48 89 ec             	mov    rsp,rbp
    3329:	48 83 ec 08          	sub    rsp,0x8
    332d:	5d                   	pop    rbp
    332e:	48 83 ec 08          	sub    rsp,0x8
    3332:	48 83 ec 08          	sub    rsp,0x8
    3336:	59                   	pop    rcx
    3337:	48 83 ec 08          	sub    rsp,0x8
    333b:	ff e1                	jmp    rcx

000000000000333d <say132>:
    333d:	48 83 c4 08          	add    rsp,0x8
    3341:	48 83 c4 08          	add    rsp,0x8
    3345:	55                   	push   rbp
    3346:	48 83 c4 08          	add    rsp,0x8
    334a:	48 89 e5             	mov    rbp,rsp
    334d:	8b 0d ad 4c 00 00    	mov    ecx,DWORD PTR [rip+0x4cad]        # 8000 <heard>
    3353:	48 8d 05 aa 4c 00 00 	lea    rax,[rip+0x4caa]        # 8004 <__bss_start>
    335a:	c6 04 08 84          	mov    BYTE PTR [rax+rcx*1],0x84
    335e:	ff 05 9c 4c 00 00    	inc    DWORD PTR [rip+0x4c9c]        # 8000 <heard>
    3364:	48 89 ec             	mov    rsp,rbp
    3367:	48 83 ec 08          	sub    rsp,0x8
    336b:	5d                   	pop    rbp
    336c:	48 83 ec 08          	sub    rsp,0x8
    3370:	48 83 ec 08          	sub    rsp,0x8
    3374:	59                   	pop    rcx
    3375:	48 83 ec 08          	sub    rsp,0x8
    3379:	ff e1                	jmp    rcx

000000000000337b <say133>:
    337b:	48 83 c4 08          	add    rsp,0x8
    337f:	48 83 c4 08          	add    rsp,0x8
    3383:	55                   	push   rbp
    3384:	48 83 c4 08          	add    rsp,0x8
    3388:	48 89 e5             	mov    rbp,rsp
    338b:	8b 0d 6f 4c 00 00    	mov    ecx,DWORD PTR [rip+0x4c6f]        # 8000 <heard>
    3391:	48 8d 05 6c 4c 00 00 	lea    rax,[rip+0x4c6c]        # 8004 <__bss_start>
    3398:	c6 04 08 85          	mov    BYTE PTR [rax+rcx*1],0x85
    339c:	ff 05 5e 4c 00 00    	inc    DWORD PTR [rip+0x4c5e]        # 8000 <heard>
    33a2:	48 89 ec             	mov    rsp,rbp
    33a5:	48 83 ec 08          	sub    rsp,0x8
    33a9:	5d                   	pop    rbp
    33aa:	48 83 ec 08          	sub    rsp,0x8
    33ae:	48 83 ec 08          	sub    rsp,0x8
    33b2:	59                   	pop    rcx
    33b3:	48 83 ec 08          	sub    rsp,0x8
    33b7:	ff e1                	jmp    rcx

00000000000033b9 <say134>:
    33b9:	48 83 c4 08          	add    rsp,0x8
    33bd:	48 83 c4 08          	add    rsp,0x8
    33c1:	55                   	push   rbp
    33c2:	48 83 c4 08          	add    rsp,0x8
    33c6:	48 89 e5             	mov    rbp,rsp
    33c9:	8b 0d 31 4c 00 00    	mov    ecx,DWORD PTR [rip+0x4c31]        # 8000 <heard>
    33cf:	48 8d 05 2e 4c 00 00 	lea    rax,[rip+0x4c2e]        # 8004 <__bss_start>
    33d6:	c6 04 08 86          	mov    BYTE PTR [rax+rcx*1],0x86
    33da:	ff 05 20 4c 00 00    	inc    DWORD PTR [rip+0x4c20]        # 8000 <heard>
    33e0:	48 89 ec             	mov    rsp,rbp
    33e3:	48 83 ec 08          	sub    rsp,0x8
    33e7:	5d                   	pop    rbp
    33e8:	48 83 ec 08          	sub    rsp,0x8
    33ec:	48 83 ec 08          	sub    rsp,0x8
    33f0:	59                   	pop    rcx
    33f1:	48 83 ec 08          	sub    rsp,0x8
    33f5:	ff e1                	jmp    rcx

00000000000033f7 <say135>:
    33f7:	48 83 c4 08          	add    rsp,0x8
    33fb:	48 83 c4 08          	add    rsp,0x8
    33ff:	55                   	push   rbp
    3400:	48 83 c4 08          	add    rsp,0x8
    3404:	48 89 e5             	mov    rbp,rsp
    3407:	8b 0d f3 4b 00 00    	mov    ecx,DWORD PTR [rip+0x4bf3]        # 8000 <heard>
    340d:	48 8d 05 f0 4b 00 00 	lea    rax,[rip+0x4bf0]        # 8004 <__bss_start>
    3414:	c6 04 08 87          	mov    BYTE PTR [rax+rcx*1],0x87
    3418:	ff 05 e2 4b 00 00    	inc    DWORD PTR [rip+0x4be2]        # 8000 <heard>
    341e:	48 89 ec             	mov    rsp,rbp
    3421:	48 83 ec 08          	sub    rsp,0x8
    3425:	5d                   	pop    rbp
    3426:	48 83 ec 08          	sub    rsp,0x8
    342a:	48 83 ec 08          	sub    rsp,0x8
    342e:	59                   	pop    rcx
    342f:	48 83 ec 08          	sub    rsp,0x8
    3433:	ff e1                	jmp    rcx

0000000000003435 <say136>:
    3435:	48 83 c4 08          	add    rsp,0x8
    3439:	48 83 c4 08          	add    rsp,0x8
    343d:	55                   	push   rbp
    343e:	48 83 c4 08          	add    rsp,0x8
    3442:	48 89 e5             	mov    rbp,rsp
    3445:	8b 0d b5 4b 00 00    	mov    ecx,DWORD PTR [rip+0x4bb5]        # 8000 <heard>
    344b:	48 8d 05 b2 4b 00 00 	lea    rax,[rip+0x4bb2]        # 8004 <__bss_start>
    3452:	c6 04 08 88          	mov    BYTE PTR [rax+rcx*1],0x88
    3456:	ff 05 a4 4b 00 00    	inc    DWORD PTR [rip+0x4ba4]        # 8000 <heard>
    345c:	48 89 ec             	mov    rsp,rbp
    345f:	48 83 ec 08          	sub    rsp,0x8
    3463:	5d                   	pop    rbp
    3464:	48 83 ec 08          	sub    rsp,0x8
    3468:	48 83 ec 08          	sub    rsp,0x8
    346c:	59                   	pop    rcx
    346d:	48 83 ec 08          	sub    rsp,0x8
    3471:	ff e1                	jmp    rcx

0000000000003473 <say137>:
    3473:	48 83 c4 08          	add    rsp,0x8
    3477:	48 83 c4 08          	add    rsp,0x8
    347b:	55                   	push   rbp
    347c:	48 83 c4 08          	add    rsp,0x8
    3480:	48 89 e5             	mov    rbp,rsp
    3483:	8b 0d 77 4b 00 00    	mov    ecx,DWORD PTR [rip+0x4b77]        # 8000 <heard>
    3489:	48 8d 05 74 4b 00 00 	lea    rax,[rip+0x4b74]        # 8004 <__bss_start>
    3490:	c6 04 08 89          	mov    BYTE PTR [rax+rcx*1],0x89
    3494:	ff 05 66 4b 00 00    	inc    DWORD PTR [rip+0x4b66]        # 8000 <heard>
    349a:	48 89 ec             	mov    rsp,rbp
    349d:	48 83 ec 08          	sub    rsp,0x8
    34a1:	5d                   	pop    rbp
    34a2:	48 83 ec 08          	sub    rsp,0x8
    34a6:	48 83 ec 08          	sub    rsp,0x8
    34aa:	59                   	pop    rcx
    34ab:	48 83 ec 08          	sub    rsp,0x8
    34af:	ff e1                	jmp    rcx

00000000000034b1 <say138>:
    34b1:	48 83 c4 08          	add    rsp,0x8
    34b5:	48 83 c4 08          	add    rsp,0x8
    34b9:	55                   	push   rbp
    34ba:	48 83 c4 08          	add    rsp,0x8
    34be:	48 89 e5             	mov    rbp,rsp
    34c1:	8b 0d 39 4b 00 00    	mov    ecx,DWORD PTR [rip+0x4b39]        # 8000 <heard>
    34c7:	48 8d 05 36 4b 00 00 	lea    rax,[rip+0x4b36]        # 8004 <__bss_start>
    34ce:	c6 04 08 8a          	mov    BYTE PTR [rax+rcx*1],0x8a
    34d2:	ff 05 28 4b 00 00    	inc    DWORD PTR [rip+0x4b28]        # 8000 <heard>
    34d8:	48 89 ec             	mov    rsp,rbp
    34db:	48 83 ec 08          	sub    rsp,0x8
    34df:	5d                   	pop    rbp
    34e0:	48 83 ec 08          	sub    rsp,0x8
    34e4:	48 83 ec 08          	sub    rsp,0x8
    34e8:	59                   	pop    rcx
    34e9:	48 83 ec 08          	sub    rsp,0x8
    34ed:	ff e1                	jmp    rcx

00000000000034ef <say139>:
    34ef:	48 83 c4 08          	add    rsp,0x8
    34f3:	48 83 c4 08          	add    rsp,0x8
    34f7:	55                   	push   rbp
    34f8:	48 83 c4 08          	add    rsp,0x8
    34fc:	48 89 e5             	mov    rbp,rsp
    34ff:	8b 0d fb 4a 00 00    	mov    ecx,DWORD PTR [rip+0x4afb]        # 8000 <heard>
    3505:	48 8d 05 f8 4a 00 00 	lea    rax,[rip+0x4af8]        # 8004 <__bss_start>
    350c:	c6 04 08 8b          	mov    BYTE PTR [rax+rcx*1],0x8b
    3510:	ff 05 ea 4a 00 00    	inc    DWORD PTR [rip+0x4aea]        # 8000 <heard>
    3516:	48 89 ec             	mov    rsp,rbp
    3519:	48 83 ec 08          	sub    rsp,0x8
    351d:	5d                   	pop    rbp
    351e:	48 83 ec 08          	sub    rsp,0x8
    3522:	48 83 ec 08          	sub    rsp,0x8
    3526:	59                   	pop    rcx
    3527:	48 83 ec 08          	sub    rsp,0x8
    352b:	ff e1                	jmp    rcx

000000000000352d <say140>:
    352d:	48 83 c4 08          	add    rsp,0x8
    3531:	48 83 c4 08          	add    rsp,0x8
    3535:	55                   	push   rbp
    3536:	48 83 c4 08          	add    rsp,0x8
    353a:	48 89 e5             	mov    rbp,rsp
    353d:	8b 0d bd 4a 00 00    	mov    ecx,DWORD PTR [rip+0x4abd]        # 8000 <heard>
    3543:	48 8d 05 ba 4a 00 00 	lea    rax,[rip+0x4aba]        # 8004 <__bss_start>
    354a:	c6 04 08 8c          	mov    BYTE PTR [rax+rcx*1],0x8c
    354e:	ff 05 ac 4a 00 00    	inc    DWORD PTR [rip+0x4aac]        # 8000 <heard>
    3554:	48 89 ec             	mov    rsp,rbp
    3557:	48 83 ec 08          	sub    rsp,0x8
    355b:	5d                   	pop    rbp
    355c:	48 83 ec 08          	sub    rsp,0x8
    3560:	48 83 ec 08          	sub    rsp,0x8
    3564:	59                   	pop    rcx
    3565:	48 83 ec 08          	sub    rsp,0x8
    3569:	ff e1                	jmp    rcx

000000000000356b <say141>:
    356b:	48 83 c4 08          	add    rsp,0x8
    356f:	48 83 c4 08          	add    rsp,0x8
    3573:	55                   	push   rbp
    3574:	48 83 c4 08          	add    rsp,0x8
    3578:	48 89 e5             	mov    rbp,rsp
    357b:	8b 0d 7f 4a 00 00    	mov    ecx,DWORD PTR [rip+0x4a7f]        # 8000 <heard>
    3581:	48 8d 05 7c 4a 00 00 	lea    rax,[rip+0x4a7c]        # 8004 <__bss_start>
    3588:	c6 04 08 8d          	mov    BYTE PTR [rax+rcx*1],0x8d
    358c:	ff 05 6e 4a 00 00    	inc    DWORD PTR [rip+0x4a6e]        # 8000 <heard>
    3592:	48 89 ec             	mov    rsp,rbp
    3595:	48 83 ec 08          	sub    rsp,0x8
    3599:	5d                   	pop    rbp
    359a:	48 83 ec 08          	sub    rsp,0x8
    359e:	48 83 ec 08          	sub    rsp,0x8
    35a2:	59                   	pop    rcx
    35a3:	48 83 ec 08          	sub    rsp,0x8
    35a7:	ff e1                	jmp    rcx

00000000000035a9 <say142>:
    35a9:	48 83 c4 08          	add    rsp,0x8
    35ad:	48 83 c4 08          	add    rsp,0x8
    35b1:	55                   	push   rbp
    35b2:	48 83 c4 08          	add    rsp,0x8
    35b6:	48 89 e5             	mov    rbp,rsp
    35b9:	8b 0d 41 4a 00 00    	mov    ecx,DWORD PTR [rip+0x4a41]        # 8000 <heard>
    35bf:	48 8d 05 3e 4a 00 00 	lea    rax,[rip+0x4a3e]        # 8004 <__bss_start>
    35c6:	c6 04 08 8e          	mov    BYTE PTR [rax+rcx*1],0x8e
    35ca:	ff 05 30 4a 00 00    	inc    DWORD PTR [rip+0x4a30]        # 8000 <heard>
    35d0:	48 89 ec             	mov    rsp,rbp
    35d3:	48 83 ec 08          	sub    rsp,0x8
    35d7:	5d                   	pop    rbp
    35d8:	48 83 ec 08          	sub    rsp,0x8
    35dc:	48 83 ec 08          	sub    rsp,0x8
    35e0:	59                   	pop    rcx
    35e1:	48 83 ec 08          	sub    rsp,0x8
    35e5:	ff e1                	jmp    rcx

00000000000035e7 <say143>:
    35e7:	48 83 c4 08          	add    rsp,0x8
    35eb:	48 83 c4 08          	add    rsp,0x8
    35ef:	55                   	push   rbp
    35f0:	48 83 c4 08          	add    rsp,0x8
    35f4:	48 89 e5             	mov    rbp,rsp
    35f7:	8b 0d 03 4a 00 00    	mov    ecx,DWORD PTR [rip+0x4a03]        # 8000 <heard>
    35fd:	48 8d 05 00 4a 00 00 	lea    rax,[rip+0x4a00]        # 8004 <__bss_start>
    3604:	c6 04 08 8f          	mov    BYTE PTR [rax+rcx*1],0x8f
    3608:	ff 05 f2 49 00 00    	inc    DWORD PTR [rip+0x49f2]        # 8000 <heard>
    360e:	48 89 ec             	mov    rsp,rbp
    3611:	48 83 ec 08          	sub    rsp,0x8
    3615:	5d                   	pop    rbp
    3616:	48 83 ec 08          	sub    rsp,0x8
    361a:	48 83 ec 08          	sub    rsp,0x8
    361e:	59                   	pop    rcx
    361f:	48 83 ec 08          	sub    rsp,0x8
    3623:	ff e1                	jmp    rcx

0000000000003625 <say144>:
    3625:	48 83 c4 08          	add    rsp,0x8
    3629:	48 83 c4 08          	add    rsp,0x8
    362d:	55                   	push   rbp
    362e:	48 83 c4 08          	add    rsp,0x8
    3632:	48 89 e5             	mov    rbp,rsp
    3635:	8b 0d c5 49 00 00    	mov    ecx,DWORD PTR [rip+0x49c5]        # 8000 <heard>
    363b:	48 8d 05 c2 49 00 00 	lea    rax,[rip+0x49c2]        # 8004 <__bss_start>
    3642:	c6 04 08 90          	mov    BYTE PTR [rax+rcx*1],0x90
    3646:	ff 05 b4 49 00 00    	inc    DWORD PTR [rip+0x49b4]        # 8000 <heard>
    364c:	48 89 ec             	mov    rsp,rbp
    364f:	48 83 ec 08          	sub    rsp,0x8
    3653:	5d                   	pop    rbp
    3654:	48 83 ec 08          	sub    rsp,0x8
    3658:	48 83 ec 08          	sub    rsp,0x8
    365c:	59                   	pop    rcx
    365d:	48 83 ec 08          	sub    rsp,0x8
    3661:	ff e1                	jmp    rcx

0000000000003663 <say145>:
    3663:	48 83 c4 08          	add    rsp,0x8
    3667:	48 83 c4 08          	add    rsp,0x8
    366b:	55                   	push   rbp
    366c:	48 83 c4 08          	add    rsp,0x8
    3670:	48 89 e5             	mov    rbp,rsp
    3673:	8b 0d 87 49 00 00    	mov    ecx,DWORD PTR [rip+0x4987]        # 8000 <heard>
    3679:	48 8d 05 84 49 00 00 	lea    rax,[rip+0x4984]        # 8004 <__bss_start>
    3680:	c6 04 08 91          	mov    BYTE PTR [rax+rcx*1],0x91
    3684:	ff 05 76 49 00 00    	inc    DWORD PTR [rip+0x4976]        # 8000 <heard>
    368a:	48 89 ec             	mov    rsp,rbp
    368d:	48 83 ec 08          	sub    rsp,0x8
    3691:	5d                   	pop    rbp
    3692:	48 83 ec 08          	sub    rsp,0x8
    3696:	48 83 ec 08          	sub    rsp,0x8
    369a:	59                   	pop    rcx
    369b:	48 83 ec 08          	sub    rsp,0x8
    369f:	ff e1                	jmp    rcx

00000000000036a1 <say146>:
    36a1:	48 83 c4 08          	add    rsp,0x8
    36a5:	48 83 c4 08          	add    rsp,0x8
    36a9:	55                   	push   rbp
    36aa:	48 83 c4 08          	add    rsp,0x8
    36ae:	48 89 e5             	mov    rbp,rsp
    36b1:	8b 0d 49 49 00 00    	mov    ecx,DWORD PTR [rip+0x4949]        # 8000 <heard>
    36b7:	48 8d 05 46 49 00 00 	lea    rax,[rip+0x4946]        # 8004 <__bss_start>
    36be:	c6 04 08 92          	mov    BYTE PTR [rax+rcx*1],0x92
    36c2:	ff 05 38 49 00 00    	inc    DWORD PTR [rip+0x4938]        # 8000 <heard>
    36c8:	48 89 ec             	mov    rsp,rbp
    36cb:	48 83 ec 08          	sub    rsp,0x8
    36cf:	5d                   	pop    rbp
    36d0:	48 83 ec 08          	sub    rsp,0x8
    36d4:	48 83 ec 08          	sub    rsp,0x8
    36d8:	59                   	pop    rcx
    36d9:	48 83 ec 08          	sub    rsp,0x8
    36dd:	ff e1                	jmp    rcx

00000000000036df <say147>:
    36df:	48 83 c4 08          	add    rsp,0x8
    36e3:	48 83 c4 08          	add    rsp,0x8
    36e7:	55                   	push   rbp
    36e8:	48 83 c4 08          	add    rsp,0x8
    36ec:	48 89 e5             	mov    rbp,rsp
    36ef:	8b 0d 0b 49 00 00    	mov    ecx,DWORD PTR [rip+0x490b]        # 8000 <heard>
    36f5:	48 8d 05 08 49 00 00 	lea    rax,[rip+0x4908]        # 8004 <__bss_start>
    36fc:	c6 04 08 93          	mov    BYTE PTR [rax+rcx*1],0x93
    3700:	ff 05 fa 48 00 00    	inc    DWORD PTR [rip+0x48fa]        # 8000 <heard>
    3706:	48 89 ec             	mov    rsp,rbp
    3709:	48 83 ec 08          	sub    rsp,0x8
    370d:	5d                   	pop    rbp
    370e:	48 83 ec 08          	sub    rsp,0x8
    3712:	48 83 ec 08          	sub    rsp,0x8
    3716:	59                   	pop    rcx
    3717:	48 83 ec 08          	sub    rsp,0x8
    371b:	ff e1                	jmp    rcx

000000000000371d <say148>:
    371d:	48 83 c4 08          	add    rsp,0x8
    3721:	48 83 c4 08          	add    rsp,0x8
    3725:	55                   	push   rbp
    3726:	48 83 c4 08          	add    rsp,0x8
    372a:	48 89 e5             	mov    rbp,rsp
    372d:	8b 0d cd 48 00 00    	mov    ecx,DWORD PTR [rip+0x48cd]        # 8000 <heard>
    3733:	48 8d 05 ca 48 00 00 	lea    rax,[rip+0x48ca]        # 8004 <__bss_start>
    373a:	c6 04 08 94          	mov    BYTE PTR [rax+rcx*1],0x94
    373e:	ff 05 bc 48 00 00    	inc    DWORD PTR [rip+0x48bc]        # 8000 <heard>
    3744:	48 89 ec             	mov    rsp,rbp
    3747:	48 83 ec 08          	sub    rsp,0x8
    374b:	5d                   	pop    rbp
    374c:	48 83 ec 08          	sub    rsp,0x8
    3750:	48 83 ec 08          	sub    rsp,0x8
    3754:	59                   	pop    rcx
    3755:	48 83 ec 08          	sub    rsp,0x8
    3759:	ff e1                	jmp    rcx

000000000000375b <say149>:
    375b:	48 83 c4 08          	add    rsp,0x8
    375f:	48 83 c4 08          	add    rsp,0x8
    3763:	55                   	push   rbp
    3764:	48 83 c4 08          	add    rsp,0x8
    3768:	48 89 e5             	mov    rbp,rsp
    376b:	8b 0d 8f 48 00 00    	mov    ecx,DWORD PTR [rip+0x488f]        # 8000 <heard>
    3771:	48 8d 05 8c 48 00 00 	lea    rax,[rip+0x488c]        # 8004 <__bss_start>
    3778:	c6 04 08 95          	mov    BYTE PTR [rax+rcx*1],0x95
    377c:	ff 05 7e 48 00 00    	inc    DWORD PTR [rip+0x487e]        # 8000 <heard>
    3782:	48 89 ec             	mov    rsp,rbp
    3785:	48 83 ec 08          	sub    rsp,0x8
    3789:	5d                   	pop    rbp
    378a:	48 83 ec 08          	sub    rsp,0x8
    378e:	48 83 ec 08          	sub    rsp,0x8
    3792:	59                   	pop    rcx
    3793:	48 83 ec 08          	sub    rsp,0x8
    3797:	ff e1                	jmp    rcx

0000000000003799 <say150>:
    3799:	48 83 c4 08          	add    rsp,0x8
    379d:	48 83 c4 08          	add    rsp,0x8
    37a1:	55                   	push   rbp
    37a2:	48 83 c4 08          	add    rsp,0x8
    37a6:	48 89 e5             	mov    rbp,rsp
    37a9:	8b 0d 51 48 00 00    	mov    ecx,DWORD PTR [rip+0x4851]        # 8000 <heard>
    37af:	48 8d 05 4e 48 00 00 	lea    rax,[rip+0x484e]        # 8004 <__bss_start>
    37b6:	c6 04 08 96          	mov    BYTE PTR [rax+rcx*1],0x96
    37ba:	ff 05 40 48 00 00    	inc    DWORD PTR [rip+0x4840]        # 8000 <heard>
    37c0:	48 89 ec             	mov    rsp,rbp
    37c3:	48 83 ec 08          	sub    rsp,0x8
    37c7:	5d                   	pop    rbp
    37c8:	48 83 ec 08          	sub    rsp,0x8
    37cc:	48 83 ec 08          	sub    rsp,0x8
    37d0:	59                   	pop    rcx
    37d1:	48 83 ec 08          	sub    rsp,0x8
    37d5:	ff e1                	jmp    rcx

00000000000037d7 <say151>:
    37d7:	48 83 c4 08          	add    rsp,0x8
    37db:	48 83 c4 08          	add    rsp,0x8
    37df:	55                   	push   rbp
    37e0:	48 83 c4 08          	add    rsp,0x8
    37e4:	48 89 e5             	mov    rbp,rsp
    37e7:	8b 0d 13 48 00 00    	mov    ecx,DWORD PTR [rip+0x4813]        # 8000 <heard>
    37ed:	48 8d 05 10 48 00 00 	lea    rax,[rip+0x4810]        # 8004 <__bss_start>
    37f4:	c6 04 08 97          	mov    BYTE PTR [rax+rcx*1],0x97
    37f8:	ff 05 02 48 00 00    	inc    DWORD PTR [rip+0x4802]        # 8000 <heard>
    37fe:	48 89 ec             	mov    rsp,rbp
    3801:	48 83 ec 08          	sub    rsp,0x8
    3805:	5d                   	pop    rbp
    3806:	48 83 ec 08          	sub    rsp,0x8
    380a:	48 83 ec 08          	sub    rsp,0x8
    380e:	59                   	pop    rcx
    380f:	48 83 ec 08          	sub    rsp,0x8
    3813:	ff e1                	jmp    rcx

0000000000003815 <say152>:
    3815:	48 83 c4 08          	add    rsp,0x8
    3819:	48 83 c4 08          	add    rsp,0x8
    381d:	55                   	push   rbp
    381e:	48 83 c4 08          	add    rsp,0x8
    3822:	48 89 e5             	mov    rbp,rsp
    3825:	8b 0d d5 47 00 00    	mov    ecx,DWORD PTR [rip+0x47d5]        # 8000 <heard>
    382b:	48 8d 05 d2 47 00 00 	lea    rax,[rip+0x47d2]        # 8004 <__bss_start>
    3832:	c6 04 08 98          	mov    BYTE PTR [rax+rcx*1],0x98
    3836:	ff 05 c4 47 00 00    	inc    DWORD PTR [rip+0x47c4]        # 8000 <heard>
    383c:	48 89 ec             	mov    rsp,rbp
    383f:	48 83 ec 08          	sub    rsp,0x8
    3843:	5d                   	pop    rbp
    3844:	48 83 ec 08          	sub    rsp,0x8
    3848:	48 83 ec 08          	sub    rsp,0x8
    384c:	59                   	pop    rcx
    384d:	48 83 ec 08          	sub    rsp,0x8
    3851:	ff e1                	jmp    rcx

0000000000003853 <say153>:
    3853:	48 83 c4 08          	add    rsp,0x8
    3857:	48 83 c4 08          	add    rsp,0x8
    385b:	55                   	push   rbp
    385c:	48 83 c4 08          	add    rsp,0x8
    3860:	48 89 e5             	mov    rbp,rsp
    3863:	8b 0d 97 47 00 00    	mov    ecx,DWORD PTR [rip+0x4797]        # 8000 <heard>
    3869:	48 8d 05 94 47 00 00 	lea    rax,[rip+0x4794]        # 8004 <__bss_start>
    3870:	c6 04 08 99          	mov    BYTE PTR [rax+rcx*1],0x99
    3874:	ff 05 86 47 00 00    	inc    DWORD PTR [rip+0x4786]        # 8000 <heard>
    387a:	48 89 ec             	mov    rsp,rbp
    387d:	48 83 ec 08          	sub    rsp,0x8
    3881:	5d                   	pop    rbp
    3882:	48 83 ec 08          	sub    rsp,0x8
    3886:	48 83 ec 08          	sub    rsp,0x8
    388a:	59                   	pop    rcx
    388b:	48 83 ec 08          	sub    rsp,0x8
    388f:	ff e1                	jmp    rcx

0000000000003891 <say154>:
    3891:	48 83 c4 08          	add    rsp,0x8
    3895:	48 83 c4 08          	add    rsp,0x8
    3899:	55                   	push   rbp
    389a:	48 83 c4 08          	add    rsp,0x8
    389e:	48 89 e5             	mov    rbp,rsp
    38a1:	8b 0d 59 47 00 00    	mov    ecx,DWORD PTR [rip+0x4759]        # 8000 <heard>
    38a7:	48 8d 05 56 47 00 00 	lea    rax,[rip+0x4756]        # 8004 <__bss_start>
    38ae:	c6 04 08 9a          	mov    BYTE PTR [rax+rcx*1],0x9a
    38b2:	ff 05 48 47 00 00    	inc    DWORD PTR [rip+0x4748]        # 8000 <heard>
    38b8:	48 89 ec             	mov    rsp,rbp
    38bb:	48 83 ec 08          	sub    rsp,0x8
    38bf:	5d                   	pop    rbp
    38c0:	48 83 ec 08          	sub    rsp,0x8
    38c4:	48 83 ec 08          	sub    rsp,0x8
    38c8:	59                   	pop    rcx
    38c9:	48 83 ec 08          	sub    rsp,0x8
    38cd:	ff e1                	jmp    rcx

00000000000038cf <say155>:
    38cf:	48 83 c4 08          	add    rsp,0x8
    38d3:	48 83 c4 08          	add    rsp,0x8
    38d7:	55                   	push   rbp
    38d8:	48 83 c4 08          	add    rsp,0x8
    38dc:	48 89 e5             	mov    rbp,rsp
    38df:	8b 0d 1b 47 00 00    	mov    ecx,DWORD PTR [rip+0x471b]        # 8000 <heard>
    38e5:	48 8d 05 18 47 00 00 	lea    rax,[rip+0x4718]        # 8004 <__bss_start>
    38ec:	c6 04 08 9b          	mov    BYTE PTR [rax+rcx*1],0x9b
    38f0:	ff 05 0a 47 00 00    	inc    DWORD PTR [rip+0x470a]        # 8000 <heard>
    38f6:	48 89 ec             	mov    rsp,rbp
    38f9:	48 83 ec 08          	sub    rsp,0x8
    38fd:	5d                   	pop    rbp
    38fe:	48 83 ec 08          	sub    rsp,0x8
    3902:	48 83 ec 08          	sub    rsp,0x8
    3906:	59                   	pop    rcx
    3907:	48 83 ec 08          	sub    rsp,0x8
    390b:	ff e1                	jmp    rcx

000000000000390d <say156>:
    390d:	48 83 c4 08          	add    rsp,0x8
    3911:	48 83 c4 08          	add    rsp,0x8
    3915:	55                   	push   rbp
    3916:	48 83 c4 08          	add    rsp,0x8
    391a:	48 89 e5             	mov    rbp,rsp
    391d:	8b 0d dd 46 00 00    	mov    ecx,DWORD PTR [rip+0x46dd]        # 8000 <heard>
    3923:	48 8d 05 da 46 00 00 	lea    rax,[rip+0x46da]        # 8004 <__bss_start>
    392a:	c6 04 08 9c          	mov    BYTE PTR [rax+rcx*1],0x9c
    392e:	ff 05 cc 46 00 00    	inc    DWORD PTR [rip+0x46cc]        # 8000 <heard>
    3934:	48 89 ec             	mov    rsp,rbp
    3937:	48 83 ec 08          	sub    rsp,0x8
    393b:	5d                   	pop    rbp
    393c:	48 83 ec 08          	sub    rsp,0x8
    3940:	48 83 ec 08          	sub    rsp,0x8
    3944:	59                   	pop    rcx
    3945:	48 83 ec 08          	sub    rsp,0x8
    3949:	ff e1                	jmp    rcx

000000000000394b <say157>:
    394b:	48 83 c4 08          	add    rsp,0x8
    394f:	48 83 c4 08          	add    rsp,0x8
    3953:	55                   	push   rbp
    3954:	48 83 c4 08          	add    rsp,0x8
    3958:	48 89 e5             	mov    rbp,rsp
    395b:	8b 0d 9f 46 00 00    	mov    ecx,DWORD PTR [rip+0x469f]        # 8000 <heard>
    3961:	48 8d 05 9c 46 00 00 	lea    rax,[rip+0x469c]        # 8004 <__bss_start>
    3968:	c6 04 08 9d          	mov    BYTE PTR [rax+rcx*1],0x9d
    396c:	ff 05 8e 46 00 00    	inc    DWORD PTR [rip+0x468e]        # 8000 <heard>
    3972:	48 89 ec             	mov    rsp,rbp
    3975:	48 83 ec 08          	sub    rsp,0x8
    3979:	5d                   	pop    rbp
    397a:	48 83 ec 08          	sub    rsp,0x8
    397e:	48 83 ec 08          	sub    rsp,0x8
    3982:	59                   	pop    rcx
    3983:	48 83 ec 08          	sub    rsp,0x8
    3987:	ff e1                	jmp    rcx

0000000000003989 <say158>:
    3989:	48 83 c4 08          	add    rsp,0x8
    398d:	48 83 c4 08          	add    rsp,0x8
    3991:	55                   	push   rbp
    3992:	48 83 c4 08          	add    rsp,0x8
    3996:	48 89 e5             	mov    rbp,rsp
    3999:	8b 0d 61 46 00 00    	mov    ecx,DWORD PTR [rip+0x4661]        # 8000 <heard>
    399f:	48 8d 05 5e 46 00 00 	lea    rax,[rip+0x465e]        # 8004 <__bss_start>
    39a6:	c6 04 08 9e          	mov    BYTE PTR [rax+rcx*1],0x9e
    39aa:	ff 05 50 46 00 00    	inc    DWORD PTR [rip+0x4650]        # 8000 <heard>
    39b0:	48 89 ec             	mov    rsp,rbp
    39b3:	48 83 ec 08          	sub    rsp,0x8
    39b7:	5d                   	pop    rbp
    39b8:	48 83 ec 08          	sub    rsp,0x8
    39bc:	48 83 ec 08          	sub    rsp,0x8
    39c0:	59                   	pop    rcx
    39c1:	48 83 ec 08          	sub    rsp,0x8
    39c5:	ff e1                	jmp    rcx

00000000000039c7 <say159>:
    39c7:	48 83 c4 08          	add    rsp,0x8
    39cb:	48 83 c4 08          	add    rsp,0x8
    39cf:	55                   	push   rbp
    39d0:	48 83 c4 08          	add    rsp,0x8
    39d4:	48 89 e5             	mov    rbp,rsp
    39d7:	8b 0d 23 46 00 00    	mov    ecx,DWORD PTR [rip+0x4623]        # 8000 <heard>
    39dd:	48 8d 05 20 46 00 00 	lea    rax,[rip+0x4620]        # 8004 <__bss_start>
    39e4:	c6 04 08 9f          	mov    BYTE PTR [rax+rcx*1],0x9f
    39e8:	ff 05 12 46 00 00    	inc    DWORD PTR [rip+0x4612]        # 8000 <heard>
    39ee:	48 89 ec             	mov    rsp,rbp
    39f1:	48 83 ec 08          	sub    rsp,0x8
    39f5:	5d                   	pop    rbp
    39f6:	48 83 ec 08          	sub    rsp,0x8
    39fa:	48 83 ec 08          	sub    rsp,0x8
    39fe:	59                   	pop    rcx
    39ff:	48 83 ec 08          	sub    rsp,0x8
    3a03:	ff e1                	jmp    rcx

0000000000003a05 <say160>:
    3a05:	48 83 c4 08          	add    rsp,0x8
    3a09:	48 83 c4 08          	add    rsp,0x8
    3a0d:	55                   	push   rbp
    3a0e:	48 83 c4 08          	add    rsp,0x8
    3a12:	48 89 e5             	mov    rbp,rsp
    3a15:	8b 0d e5 45 00 00    	mov    ecx,DWORD PTR [rip+0x45e5]        # 8000 <heard>
    3a1b:	48 8d 05 e2 45 00 00 	lea    rax,[rip+0x45e2]        # 8004 <__bss_start>
    3a22:	c6 04 08 a0          	mov    BYTE PTR [rax+rcx*1],0xa0
    3a26:	ff 05 d4 45 00 00    	inc    DWORD PTR [rip+0x45d4]        # 8000 <heard>
    3a2c:	48 89 ec             	mov    rsp,rbp
    3a2f:	48 83 ec 08          	sub    rsp,0x8
    3a33:	5d                   	pop    rbp
    3a34:	48 83 ec 08          	sub    rsp,0x8
    3a38:	48 83 ec 08          	sub    rsp,0x8
    3a3c:	59                   	pop    rcx
    3a3d:	48 83 ec 08          	sub    rsp,0x8
    3a41:	ff e1                	jmp    rcx

0000000000003a43 <say161>:
    3a43:	48 83 c4 08          	add    rsp,0x8
    3a47:	48 83 c4 08          	add    rsp,0x8
    3a4b:	55                   	push   rbp
    3a4c:	48 83 c4 08          	add    rsp,0x8
    3a50:	48 89 e5             	mov    rbp,rsp
    3a53:	8b 0d a7 45 00 00    	mov    ecx,DWORD PTR [rip+0x45a7]        # 8000 <heard>
    3a59:	48 8d 05 a4 45 00 00 	lea    rax,[rip+0x45a4]        # 8004 <__bss_start>
    3a60:	c6 04 08 a1          	mov    BYTE PTR [rax+rcx*1],0xa1
    3a64:	ff 05 96 45 00 00    	inc    DWORD PTR [rip+0x4596]        # 8000 <heard>
    3a6a:	48 89 ec             	mov    rsp,rbp
    3a6d:	48 83 ec 08          	sub    rsp,0x8
    3a71:	5d                   	pop    rbp
    3a72:	48 83 ec 08          	sub    rsp,0x8
    3a76:	48 83 ec 08          	sub    rsp,0x8
    3a7a:	59                   	pop    rcx
    3a7b:	48 83 ec 08          	sub    rsp,0x8
    3a7f:	ff e1                	jmp    rcx

0000000000003a81 <say162>:
    3a81:	48 83 c4 08          	add    rsp,0x8
    3a85:	48 83 c4 08          	add    rsp,0x8
    3a89:	55                   	push   rbp
    3a8a:	48 83 c4 08          	add    rsp,0x8
    3a8e:	48 89 e5             	mov    rbp,rsp
    3a91:	8b 0d 69 45 00 00    	mov    ecx,DWORD PTR [rip+0x4569]        # 8000 <heard>
    3a97:	48 8d 05 66 45 00 00 	lea    rax,[rip+0x4566]        # 8004 <__bss_start>
    3a9e:	c6 04 08 a2          	mov    BYTE PTR [rax+rcx*1],0xa2
    3aa2:	ff 05 58 45 00 00    	inc    DWORD PTR [rip+0x4558]        # 8000 <heard>
    3aa8:	48 89 ec             	mov    rsp,rbp
    3aab:	48 83 ec 08          	sub    rsp,0x8
    3aaf:	5d                   	pop    rbp
    3ab0:	48 83 ec 08          	sub    rsp,0x8
    3ab4:	48 83 ec 08          	sub    rsp,0x8
    3ab8:	59                   	pop    rcx
    3ab9:	48 83 ec 08          	sub    rsp,0x8
    3abd:	ff e1                	jmp    rcx

0000000000003abf <say163>:
    3abf:	48 83 c4 08          	add    rsp,0x8
    3ac3:	48 83 c4 08          	add    rsp,0x8
    3ac7:	55                   	push   rbp
    3ac8:	48 83 c4 08          	add    rsp,0x8
    3acc:	48 89 e5             	mov    rbp,rsp
    3acf:	8b 0d 2b 45 00 00    	mov    ecx,DWORD PTR [rip+0x452b]        # 8000 <heard>
    3ad5:	48 8d 05 28 45 00 00 	lea    rax,[rip+0x4528]        # 8004 <__bss_start>
    3adc:	c6 04 08 a3          	mov    BYTE PTR [rax+rcx*1],0xa3
    3ae0:	ff 05 1a 45 00 00    	inc    DWORD PTR [rip+0x451a]        # 8000 <heard>
    3ae6:	48 89 ec             	mov    rsp,rbp
    3ae9:	48 83 ec 08          	sub    rsp,0x8
    3aed:	5d                   	pop    rbp
    3aee:	48 83 ec 08          	sub    rsp,0x8
    3af2:	48 83 ec 08          	sub    rsp,0x8
    3af6:	59                   	pop    rcx
    3af7:	48 83 ec 08          	sub    rsp,0x8
    3afb:	ff e1                	jmp    rcx

0000000000003afd <say164>:
    3afd:	48 83 c4 08          	add    rsp,0x8
    3b01:	48 83 c4 08          	add    rsp,0x8
    3b05:	55                   	push   rbp
    3b06:	48 83 c4 08          	add    rsp,0x8
    3b0a:	48 89 e5             	mov    rbp,rsp
    3b0d:	8b 0d ed 44 00 00    	mov    ecx,DWORD PTR [rip+0x44ed]        # 8000 <heard>
    3b13:	48 8d 05 ea 44 00 00 	lea    rax,[rip+0x44ea]        # 8004 <__bss_start>
    3b1a:	c6 04 08 a4          	mov    BYTE PTR [rax+rcx*1],0xa4
    3b1e:	ff 05 dc 44 00 00    	inc    DWORD PTR [rip+0x44dc]        # 8000 <heard>
    3b24:	48 89 ec             	mov    rsp,rbp
    3b27:	48 83 ec 08          	sub    rsp,0x8
    3b2b:	5d                   	pop    rbp
    3b2c:	48 83 ec 08          	sub    rsp,0x8
    3b30:	48 83 ec 08          	sub    rsp,0x8
    3b34:	59                   	pop    rcx
    3b35:	48 83 ec 08          	sub    rsp,0x8
    3b39:	ff e1                	jmp    rcx

0000000000003b3b <say165>:
    3b3b:	48 83 c4 08          	add    rsp,0x8
    3b3f:	48 83 c4 08          	add    rsp,0x8
    3b43:	55                   	push   rbp
    3b44:	48 83 c4 08          	add    rsp,0x8
    3b48:	48 89 e5             	mov    rbp,rsp
    3b4b:	8b 0d af 44 00 00    	mov    ecx,DWORD PTR [rip+0x44af]        # 8000 <heard>
    3b51:	48 8d 05 ac 44 00 00 	lea    rax,[rip+0x44ac]        # 8004 <__bss_start>
    3b58:	c6 04 08 a5          	mov    BYTE PTR [rax+rcx*1],0xa5
    3b5c:	ff 05 9e 44 00 00    	inc    DWORD PTR [rip+0x449e]        # 8000 <heard>
    3b62:	48 89 ec             	mov    rsp,rbp
    3b65:	48 83 ec 08          	sub    rsp,0x8
    3b69:	5d                   	pop    rbp
    3b6a:	48 83 ec 08          	sub    rsp,0x8
    3b6e:	48 83 ec 08          	sub    rsp,0x8
    3b72:	59                   	pop    rcx
    3b73:	48 83 ec 08          	sub    rsp,0x8
    3b77:	ff e1                	jmp    rcx

0000000000003b79 <say166>:
    3b79:	48 83 c4 08          	add    rsp,0x8
    3b7d:	48 83 c4 08          	add    rsp,0x8
    3b81:	55                   	push   rbp
    3b82:	48 83 c4 08          	add    rsp,0x8
    3b86:	48 89 e5             	mov    rbp,rsp
    3b89:	8b 0d 71 44 00 00    	mov    ecx,DWORD PTR [rip+0x4471]        # 8000 <heard>
    3b8f:	48 8d 05 6e 44 00 00 	lea    rax,[rip+0x446e]        # 8004 <__bss_start>
    3b96:	c6 04 08 a6          	mov    BYTE PTR [rax+rcx*1],0xa6
    3b9a:	ff 05 60 44 00 00    	inc    DWORD PTR [rip+0x4460]        # 8000 <heard>
    3ba0:	48 89 ec             	mov    rsp,rbp
    3ba3:	48 83 ec 08          	sub    rsp,0x8
    3ba7:	5d                   	pop    rbp
    3ba8:	48 83 ec 08          	sub    rsp,0x8
    3bac:	48 83 ec 08          	sub    rsp,0x8
    3bb0:	59                   	pop    rcx
    3bb1:	48 83 ec 08          	sub    rsp,0x8
    3bb5:	ff e1                	jmp    rcx

0000000000003bb7 <say167>:
    3bb7:	48 83 c4 08          	add    rsp,0x8
    3bbb:	48 83 c4 08          	add    rsp,0x8
    3bbf:	55                   	push   rbp
    3bc0:	48 83 c4 08          	add    rsp,0x8
    3bc4:	48 89 e5             	mov    rbp,rsp
    3bc7:	8b 0d 33 44 00 00    	mov    ecx,DWORD PTR [rip+0x4433]        # 8000 <heard>
    3bcd:	48 8d 05 30 44 00 00 	lea    rax,[rip+0x4430]        # 8004 <__bss_start>
    3bd4:	c6 04 08 a7          	mov    BYTE PTR [rax+rcx*1],0xa7
    3bd8:	ff 05 22 44 00 00    	inc    DWORD PTR [rip+0x4422]        # 8000 <heard>
    3bde:	48 89 ec             	mov    rsp,rbp
    3be1:	48 83 ec 08          	sub    rsp,0x8
    3be5:	5d                   	pop    rbp
    3be6:	48 83 ec 08          	sub    rsp,0x8
    3bea:	48 83 ec 08          	sub    rsp,0x8
    3bee:	59                   	pop    rcx
    3bef:	48 83 ec 08          	sub    rsp,0x8
    3bf3:	ff e1                	jmp    rcx

0000000000003bf5 <say168>:
    3bf5:	48 83 c4 08          	add    rsp,0x8
    3bf9:	48 83 c4 08          	add    rsp,0x8
    3bfd:	55                   	push   rbp
    3bfe:	48 83 c4 08          	add    rsp,0x8
    3c02:	48 89 e5             	mov    rbp,rsp
    3c05:	8b 0d f5 43 00 00    	mov    ecx,DWORD PTR [rip+0x43f5]        # 8000 <heard>
    3c0b:	48 8d 05 f2 43 00 00 	lea    rax,[rip+0x43f2]        # 8004 <__bss_start>
    3c12:	c6 04 08 a8          	mov    BYTE PTR [rax+rcx*1],0xa8
    3c16:	ff 05 e4 43 00 00    	inc    DWORD PTR [rip+0x43e4]        # 8000 <heard>
    3c1c:	48 89 ec             	mov    rsp,rbp
    3c1f:	48 83 ec 08          	sub    rsp,0x8
    3c23:	5d                   	pop    rbp
    3c24:	48 83 ec 08          	sub    rsp,0x8
    3c28:	48 83 ec 08          	sub    rsp,0x8
    3c2c:	59                   	pop    rcx
    3c2d:	48 83 ec 08          	sub    rsp,0x8
    3c31:	ff e1                	jmp    rcx

0000000000003c33 <say169>:
    3c33:	48 83 c4 08          	add    rsp,0x8
    3c37:	48 83 c4 08          	add    rsp,0x8
    3c3b:	55                   	push   rbp
    3c3c:	48 83 c4 08          	add    rsp,0x8
    3c40:	48 89 e5             	mov    rbp,rsp
    3c43:	8b 0d b7 43 00 00    	mov    ecx,DWORD PTR [rip+0x43b7]        # 8000 <heard>
    3c49:	48 8d 05 b4 43 00 00 	lea    rax,[rip+0x43b4]        # 8004 <__bss_start>
    3c50:	c6 04 08 a9          	mov    BYTE PTR [rax+rcx*1],0xa9
    3c54:	ff 05 a6 43 00 00    	inc    DWORD PTR [rip+0x43a6]        # 8000 <heard>
    3c5a:	48 89 ec             	mov    rsp,rbp
    3c5d:	48 83 ec 08          	sub    rsp,0x8
    3c61:	5d                   	pop    rbp
    3c62:	48 83 ec 08          	sub    rsp,0x8
    3c66:	48 83 ec 08          	sub    rsp,0x8
    3c6a:	59                   	pop    rcx
    3c6b:	48 83 ec 08          	sub    rsp,0x8
    3c6f:	ff e1                	jmp    rcx

0000000000003c71 <say170>:
    3c71:	48 83 c4 08          	add    rsp,0x8
    3c75:	48 83 c4 08          	add    rsp,0x8
    3c79:	55                   	push   rbp
    3c7a:	48 83 c4 08          	add    rsp,0x8
    3c7e:	48 89 e5             	mov    rbp,rsp
    3c81:	8b 0d 79 43 00 00    	mov    ecx,DWORD PTR [rip+0x4379]        # 8000 <heard>
    3c87:	48 8d 05 76 43 00 00 	lea    rax,[rip+0x4376]        # 8004 <__bss_start>
    3c8e:	c6 04 08 aa          	mov    BYTE PTR [rax+rcx*1],0xaa
    3c92:	ff 05 68 43 00 00    	inc    DWORD PTR [rip+0x4368]        # 8000 <heard>
    3c98:	48 89 ec             	mov    rsp,rbp
    3c9b:	48 83 ec 08          	sub    rsp,0x8
    3c9f:	5d                   	pop    rbp
    3ca0:	48 83 ec 08          	sub    rsp,0x8
    3ca4:	48 83 ec 08          	sub    rsp,0x8
    3ca8:	59                   	pop    rcx
    3ca9:	48 83 ec 08          	sub    rsp,0x8
    3cad:	ff e1                	jmp    rcx

0000000000003caf <say171>:
    3caf:	48 83 c4 08          	add    rsp,0x8
    3cb3:	48 83 c4 08          	add    rsp,0x8
    3cb7:	55                   	push   rbp
    3cb8:	48 83 c4 08          	add    rsp,0x8
    3cbc:	48 89 e5             	mov    rbp,rsp
    3cbf:	8b 0d 3b 43 00 00    	mov    ecx,DWORD PTR [rip+0x433b]        # 8000 <heard>
    3cc5:	48 8d 05 38 43 00 00 	lea    rax,[rip+0x4338]        # 8004 <__bss_start>
    3ccc:	c6 04 08 ab          	mov    BYTE PTR [rax+rcx*1],0xab
    3cd0:	ff 05 2a 43 00 00    	inc    DWORD PTR [rip+0x432a]        # 8000 <heard>
    3cd6:	48 89 ec             	mov    rsp,rbp
    3cd9:	48 83 ec 08          	sub    rsp,0x8
    3cdd:	5d                   	pop    rbp
    3cde:	48 83 ec 08          	sub    rsp,0x8
    3ce2:	48 83 ec 08          	sub    rsp,0x8
    3ce6:	59                   	pop    rcx
    3ce7:	48 83 ec 08          	sub    rsp,0x8
    3ceb:	ff e1                	jmp    rcx

0000000000003ced <say172>:
    3ced:	48 83 c4 08          	add    rsp,0x8
    3cf1:	48 83 c4 08          	add    rsp,0x8
    3cf5:	55                   	push   rbp
    3cf6:	48 83 c4 08          	add    rsp,0x8
    3cfa:	48 89 e5             	mov    rbp,rsp
    3cfd:	8b 0d fd 42 00 00    	mov    ecx,DWORD PTR [rip+0x42fd]        # 8000 <heard>
    3d03:	48 8d 05 fa 42 00 00 	lea    rax,[rip+0x42fa]        # 8004 <__bss_start>
    3d0a:	c6 04 08 ac          	mov    BYTE PTR [rax+rcx*1],0xac
    3d0e:	ff 05 ec 42 00 00    	inc    DWORD PTR [rip+0x42ec]        # 8000 <heard>
    3d14:	48 89 ec             	mov    rsp,rbp
    3d17:	48 83 ec 08          	sub    rsp,0x8
    3d1b:	5d                   	pop    rbp
    3d1c:	48 83 ec 08          	sub    rsp,0x8
    3d20:	48 83 ec 08          	sub    rsp,0x8
    3d24:	59                   	pop    rcx
    3d25:	48 83 ec 08          	sub    rsp,0x8
    3d29:	ff e1                	jmp    rcx

0000000000003d2b <say173>:
    3d2b:	48 83 c4 08          	add    rsp,0x8
    3d2f:	48 83 c4 08          	add    rsp,0x8
    3d33:	55                   	push   rbp
    3d34:	48 83 c4 08          	add    rsp,0x8
    3d38:	48 89 e5             	mov    rbp,rsp
    3d3b:	8b 0d bf 42 00 00    	mov    ecx,DWORD PTR [rip+0x42bf]        # 8000 <heard>
    3d41:	48 8d 05 bc 42 00 00 	lea    rax,[rip+0x42bc]        # 8004 <__bss_start>
    3d48:	c6 04 08 ad          	mov    BYTE PTR [rax+rcx*1],0xad
    3d4c:	ff 05 ae 42 00 00    	inc    DWORD PTR [rip+0x42ae]        # 8000 <heard>
    3d52:	48 89 ec             	mov    rsp,rbp
    3d55:	48 83 ec 08          	sub    rsp,0x8
    3d59:	5d                   	pop    rbp
    3d5a:	48 83 ec 08          	sub    rsp,0x8
    3d5e:	48 83 ec 08          	sub    rsp,0x8
    3d62:	59                   	pop    rcx
    3d63:	48 83 ec 08          	sub    rsp,0x8
    3d67:	ff e1                	jmp    rcx

0000000000003d69 <say174>:
    3d69:	48 83 c4 08          	add    rsp,0x8
    3d6d:	48 83 c4 08          	add    rsp,0x8
    3d71:	55                   	push   rbp
    3d72:	48 83 c4 08          	add    rsp,0x8
    3d76:	48 89 e5             	mov    rbp,rsp
    3d79:	8b 0d 81 42 00 00    	mov    ecx,DWORD PTR [rip+0x4281]        # 8000 <heard>
    3d7f:	48 8d 05 7e 42 00 00 	lea    rax,[rip+0x427e]        # 8004 <__bss_start>
    3d86:	c6 04 08 ae          	mov    BYTE PTR [rax+rcx*1],0xae
    3d8a:	ff 05 70 42 00 00    	inc    DWORD PTR [rip+0x4270]        # 8000 <heard>
    3d90:	48 89 ec             	mov    rsp,rbp
    3d93:	48 83 ec 08          	sub    rsp,0x8
    3d97:	5d                   	pop    rbp
    3d98:	48 83 ec 08          	sub    rsp,0x8
    3d9c:	48 83 ec 08          	sub    rsp,0x8
    3da0:	59                   	pop    rcx
    3da1:	48 83 ec 08          	sub    rsp,0x8
    3da5:	ff e1                	jmp    rcx

0000000000003da7 <say175>:
    3da7:	48 83 c4 08          	add    rsp,0x8
    3dab:	48 83 c4 08          	add    rsp,0x8
    3daf:	55                   	push   rbp
    3db0:	48 83 c4 08          	add    rsp,0x8
    3db4:	48 89 e5             	mov    rbp,rsp
    3db7:	8b 0d 43 42 00 00    	mov    ecx,DWORD PTR [rip+0x4243]        # 8000 <heard>
    3dbd:	48 8d 05 40 42 00 00 	lea    rax,[rip+0x4240]        # 8004 <__bss_start>
    3dc4:	c6 04 08 af          	mov    BYTE PTR [rax+rcx*1],0xaf
    3dc8:	ff 05 32 42 00 00    	inc    DWORD PTR [rip+0x4232]        # 8000 <heard>
    3dce:	48 89 ec             	mov    rsp,rbp
    3dd1:	48 83 ec 08          	sub    rsp,0x8
    3dd5:	5d                   	pop    rbp
    3dd6:	48 83 ec 08          	sub    rsp,0x8
    3dda:	48 83 ec 08          	sub    rsp,0x8
    3dde:	59                   	pop    rcx
    3ddf:	48 83 ec 08          	sub    rsp,0x8
    3de3:	ff e1                	jmp    rcx

0000000000003de5 <say176>:
    3de5:	48 83 c4 08          	add    rsp,0x8
    3de9:	48 83 c4 08          	add    rsp,0x8
    3ded:	55                   	push   rbp
    3dee:	48 83 c4 08          	add    rsp,0x8
    3df2:	48 89 e5             	mov    rbp,rsp
    3df5:	8b 0d 05 42 00 00    	mov    ecx,DWORD PTR [rip+0x4205]        # 8000 <heard>
    3dfb:	48 8d 05 02 42 00 00 	lea    rax,[rip+0x4202]        # 8004 <__bss_start>
    3e02:	c6 04 08 b0          	mov    BYTE PTR [rax+rcx*1],0xb0
    3e06:	ff 05 f4 41 00 00    	inc    DWORD PTR [rip+0x41f4]        # 8000 <heard>
    3e0c:	48 89 ec             	mov    rsp,rbp
    3e0f:	48 83 ec 08          	sub    rsp,0x8
    3e13:	5d                   	pop    rbp
    3e14:	48 83 ec 08          	sub    rsp,0x8
    3e18:	48 83 ec 08          	sub    rsp,0x8
    3e1c:	59                   	pop    rcx
    3e1d:	48 83 ec 08          	sub    rsp,0x8
    3e21:	ff e1                	jmp    rcx

0000000000003e23 <say177>:
    3e23:	48 83 c4 08          	add    rsp,0x8
    3e27:	48 83 c4 08          	add    rsp,0x8
    3e2b:	55                   	push   rbp
    3e2c:	48 83 c4 08          	add    rsp,0x8
    3e30:	48 89 e5             	mov    rbp,rsp
    3e33:	8b 0d c7 41 00 00    	mov    ecx,DWORD PTR [rip+0x41c7]        # 8000 <heard>
    3e39:	48 8d 05 c4 41 00 00 	lea    rax,[rip+0x41c4]        # 8004 <__bss_start>
    3e40:	c6 04 08 b1          	mov    BYTE PTR [rax+rcx*1],0xb1
    3e44:	ff 05 b6 41 00 00    	inc    DWORD PTR [rip+0x41b6]        # 8000 <heard>
    3e4a:	48 89 ec             	mov    rsp,rbp
    3e4d:	48 83 ec 08          	sub    rsp,0x8
    3e51:	5d                   	pop    rbp
    3e52:	48 83 ec 08          	sub    rsp,0x8
    3e56:	48 83 ec 08          	sub    rsp,0x8
    3e5a:	59                   	pop    rcx
    3e5b:	48 83 ec 08          	sub    rsp,0x8
    3e5f:	ff e1                	jmp    rcx

0000000000003e61 <say178>:
    3e61:	48 83 c4 08          	add    rsp,0x8
    3e65:	48 83 c4 08          	add    rsp,0x8
    3e69:	55                   	push   rbp
    3e6a:	48 83 c4 08          	add    rsp,0x8
    3e6e:	48 89 e5             	mov    rbp,rsp
    3e71:	8b 0d 89 41 00 00    	mov    ecx,DWORD PTR [rip+0x4189]        # 8000 <heard>
    3e77:	48 8d 05 86 41 00 00 	lea    rax,[rip+0x4186]        # 8004 <__bss_start>
    3e7e:	c6 04 08 b2          	mov    BYTE PTR [rax+rcx*1],0xb2
    3e82:	ff 05 78 41 00 00    	inc    DWORD PTR [rip+0x4178]        # 8000 <heard>
    3e88:	48 89 ec             	mov    rsp,rbp
    3e8b:	48 83 ec 08          	sub    rsp,0x8
    3e8f:	5d                   	pop    rbp
    3e90:	48 83 ec 08          	sub    rsp,0x8
    3e94:	48 83 ec 08          	sub    rsp,0x8
    3e98:	59                   	pop    rcx
    3e99:	48 83 ec 08          	sub    rsp,0x8
    3e9d:	ff e1                	jmp    rcx

0000000000003e9f <say179>:
    3e9f:	48 83 c4 08          	add    rsp,0x8
    3ea3:	48 83 c4 08          	add    rsp,0x8
    3ea7:	55                   	push   rbp
    3ea8:	48 83 c4 08          	add    rsp,0x8
    3eac:	48 89 e5             	mov    rbp,rsp
    3eaf:	8b 0d 4b 41 00 00    	mov    ecx,DWORD PTR [rip+0x414b]        # 8000 <heard>
    3eb5:	48 8d 05 48 41 00 00 	lea    rax,[rip+0x4148]        # 8004 <__bss_start>
    3ebc:	c6 04 08 b3          	mov    BYTE PTR [rax+rcx*1],0xb3
    3ec0:	ff 05 3a 41 00 00    	inc    DWORD PTR [rip+0x413a]        # 8000 <heard>
    3ec6:	48 89 ec             	mov    rsp,rbp
    3ec9:	48 83 ec 08          	sub    rsp,0x8
    3ecd:	5d                   	pop    rbp
    3ece:	48 83 ec 08          	sub    rsp,0x8
    3ed2:	48 83 ec 08          	sub    rsp,0x8
    3ed6:	59                   	pop    rcx
    3ed7:	48 83 ec 08          	sub    rsp,0x8
    3edb:	ff e1                	jmp    rcx

0000000000003edd <say180>:
    3edd:	48 83 c4 08          	add    rsp,0x8
    3ee1:	48 83 c4 08          	add    rsp,0x8
    3ee5:	55                   	push   rbp
    3ee6:	48 83 c4 08          	add    rsp,0x8
    3eea:	48 89 e5             	mov    rbp,rsp
    3eed:	8b 0d 0d 41 00 00    	mov    ecx,DWORD PTR [rip+0x410d]        # 8000 <heard>
    3ef3:	48 8d 05 0a 41 00 00 	lea    rax,[rip+0x410a]        # 8004 <__bss_start>
    3efa:	c6 04 08 b4          	mov    BYTE PTR [rax+rcx*1],0xb4
    3efe:	ff 05 fc 40 00 00    	inc    DWORD PTR [rip+0x40fc]        # 8000 <heard>
    3f04:	48 89 ec             	mov    rsp,rbp
    3f07:	48 83 ec 08          	sub    rsp,0x8
    3f0b:	5d                   	pop    rbp
    3f0c:	48 83 ec 08          	sub    rsp,0x8
    3f10:	48 83 ec 08          	sub    rsp,0x8
    3f14:	59                   	pop    rcx
    3f15:	48 83 ec 08          	sub    rsp,0x8
    3f19:	ff e1                	jmp    rcx

0000000000003f1b <say181>:
    3f1b:	48 83 c4 08          	add    rsp,0x8
    3f1f:	48 83 c4 08          	add    rsp,0x8
    3f23:	55                   	push   rbp
    3f24:	48 83 c4 08          	add    rsp,0x8
    3f28:	48 89 e5             	mov    rbp,rsp
    3f2b:	8b 0d cf 40 00 00    	mov    ecx,DWORD PTR [rip+0x40cf]        # 8000 <heard>
    3f31:	48 8d 05 cc 40 00 00 	lea    rax,[rip+0x40cc]        # 8004 <__bss_start>
    3f38:	c6 04 08 b5          	mov    BYTE PTR [rax+rcx*1],0xb5
    3f3c:	ff 05 be 40 00 00    	inc    DWORD PTR [rip+0x40be]        # 8000 <heard>
    3f42:	48 89 ec             	mov    rsp,rbp
    3f45:	48 83 ec 08          	sub    rsp,0x8
    3f49:	5d                   	pop    rbp
    3f4a:	48 83 ec 08          	sub    rsp,0x8
    3f4e:	48 83 ec 08          	sub    rsp,0x8
    3f52:	59                   	pop    rcx
    3f53:	48 83 ec 08          	sub    rsp,0x8
    3f57:	ff e1                	jmp    rcx

0000000000003f59 <say182>:
    3f59:	48 83 c4 08          	add    rsp,0x8
    3f5d:	48 83 c4 08          	add    rsp,0x8
    3f61:	55                   	push   rbp
    3f62:	48 83 c4 08          	add    rsp,0x8
    3f66:	48 89 e5             	mov    rbp,rsp
    3f69:	8b 0d 91 40 00 00    	mov    ecx,DWORD PTR [rip+0x4091]        # 8000 <heard>
    3f6f:	48 8d 05 8e 40 00 00 	lea    rax,[rip+0x408e]        # 8004 <__bss_start>
    3f76:	c6 04 08 b6          	mov    BYTE PTR [rax+rcx*1],0xb6
    3f7a:	ff 05 80 40 00 00    	inc    DWORD PTR [rip+0x4080]        # 8000 <heard>
    3f80:	48 89 ec             	mov    rsp,rbp
    3f83:	48 83 ec 08          	sub    rsp,0x8
    3f87:	5d                   	pop    rbp
    3f88:	48 83 ec 08          	sub    rsp,0x8
    3f8c:	48 83 ec 08          	sub    rsp,0x8
    3f90:	59                   	pop    rcx
    3f91:	48 83 ec 08          	sub    rsp,0x8
    3f95:	ff e1                	jmp    rcx

0000000000003f97 <say183>:
    3f97:	48 83 c4 08          	add    rsp,0x8
    3f9b:	48 83 c4 08          	add    rsp,0x8
    3f9f:	55                   	push   rbp
    3fa0:	48 83 c4 08          	add    rsp,0x8
    3fa4:	48 89 e5             	mov    rbp,rsp
    3fa7:	8b 0d 53 40 00 00    	mov    ecx,DWORD PTR [rip+0x4053]        # 8000 <heard>
    3fad:	48 8d 05 50 40 00 00 	lea    rax,[rip+0x4050]        # 8004 <__bss_start>
    3fb4:	c6 04 08 b7          	mov    BYTE PTR [rax+rcx*1],0xb7
    3fb8:	ff 05 42 40 00 00    	inc    DWORD PTR [rip+0x4042]        # 8000 <heard>
    3fbe:	48 89 ec             	mov    rsp,rbp
    3fc1:	48 83 ec 08          	sub    rsp,0x8
    3fc5:	5d                   	pop    rbp
    3fc6:	48 83 ec 08          	sub    rsp,0x8
    3fca:	48 83 ec 08          	sub    rsp,0x8
    3fce:	59                   	pop    rcx
    3fcf:	48 83 ec 08          	sub    rsp,0x8
    3fd3:	ff e1                	jmp    rcx

0000000000003fd5 <say184>:
    3fd5:	48 83 c4 08          	add    rsp,0x8
    3fd9:	48 83 c4 08          	add    rsp,0x8
    3fdd:	55                   	push   rbp
    3fde:	48 83 c4 08          	add    rsp,0x8
    3fe2:	48 89 e5             	mov    rbp,rsp
    3fe5:	8b 0d 15 40 00 00    	mov    ecx,DWORD PTR [rip+0x4015]        # 8000 <heard>
    3feb:	48 8d 05 12 40 00 00 	lea    rax,[rip+0x4012]        # 8004 <__bss_start>
    3ff2:	c6 04 08 b8          	mov    BYTE PTR [rax+rcx*1],0xb8
    3ff6:	ff 05 04 40 00 00    	inc    DWORD PTR [rip+0x4004]        # 8000 <heard>
    3ffc:	48 89 ec             	mov    rsp,rbp
    3fff:	48 83 ec 08          	sub    rsp,0x8
    4003:	5d                   	pop    rbp
    4004:	48 83 ec 08          	sub    rsp,0x8
    4008:	48 83 ec 08          	sub    rsp,0x8
    400c:	59                   	pop    rcx
    400d:	48 83 ec 08          	sub    rsp,0x8
    4011:	ff e1                	jmp    rcx

0000000000004013 <say185>:
    4013:	48 83 c4 08          	add    rsp,0x8
    4017:	48 83 c4 08          	add    rsp,0x8
    401b:	55                   	push   rbp
    401c:	48 83 c4 08          	add    rsp,0x8
    4020:	48 89 e5             	mov    rbp,rsp
    4023:	8b 0d d7 3f 00 00    	mov    ecx,DWORD PTR [rip+0x3fd7]        # 8000 <heard>
    4029:	48 8d 05 d4 3f 00 00 	lea    rax,[rip+0x3fd4]        # 8004 <__bss_start>
    4030:	c6 04 08 b9          	mov    BYTE PTR [rax+rcx*1],0xb9
    4034:	ff 05 c6 3f 00 00    	inc    DWORD PTR [rip+0x3fc6]        # 8000 <heard>
    403a:	48 89 ec             	mov    rsp,rbp
    403d:	48 83 ec 08          	sub    rsp,0x8
    4041:	5d                   	pop    rbp
    4042:	48 83 ec 08          	sub    rsp,0x8
    4046:	48 83 ec 08          	sub    rsp,0x8
    404a:	59                   	pop    rcx
    404b:	48 83 ec 08          	sub    rsp,0x8
    404f:	ff e1                	jmp    rcx

0000000000004051 <say186>:
    4051:	48 83 c4 08          	add    rsp,0x8
    4055:	48 83 c4 08          	add    rsp,0x8
    4059:	55                   	push   rbp
    405a:	48 83 c4 08          	add    rsp,0x8
    405e:	48 89 e5             	mov    rbp,rsp
    4061:	8b 0d 99 3f 00 00    	mov    ecx,DWORD PTR [rip+0x3f99]        # 8000 <heard>
    4067:	48 8d 05 96 3f 00 00 	lea    rax,[rip+0x3f96]        # 8004 <__bss_start>
    406e:	c6 04 08 ba          	mov    BYTE PTR [rax+rcx*1],0xba
    4072:	ff 05 88 3f 00 00    	inc    DWORD PTR [rip+0x3f88]        # 8000 <heard>
    4078:	48 89 ec             	mov    rsp,rbp
    407b:	48 83 ec 08          	sub    rsp,0x8
    407f:	5d                   	pop    rbp
    4080:	48 83 ec 08          	sub    rsp,0x8
    4084:	48 83 ec 08          	sub    rsp,0x8
    4088:	59                   	pop    rcx
    4089:	48 83 ec 08          	sub    rsp,0x8
    408d:	ff e1                	jmp    rcx

000000000000408f <say187>:
    408f:	48 83 c4 08          	add    rsp,0x8
    4093:	48 83 c4 08          	add    rsp,0x8
    4097:	55                   	push   rbp
    4098:	48 83 c4 08          	add    rsp,0x8
    409c:	48 89 e5             	mov    rbp,rsp
    409f:	8b 0d 5b 3f 00 00    	mov    ecx,DWORD PTR [rip+0x3f5b]        # 8000 <heard>
    40a5:	48 8d 05 58 3f 00 00 	lea    rax,[rip+0x3f58]        # 8004 <__bss_start>
    40ac:	c6 04 08 bb          	mov    BYTE PTR [rax+rcx*1],0xbb
    40b0:	ff 05 4a 3f 00 00    	inc    DWORD PTR [rip+0x3f4a]        # 8000 <heard>
    40b6:	48 89 ec             	mov    rsp,rbp
    40b9:	48 83 ec 08          	sub    rsp,0x8
    40bd:	5d                   	pop    rbp
    40be:	48 83 ec 08          	sub    rsp,0x8
    40c2:	48 83 ec 08          	sub    rsp,0x8
    40c6:	59                   	pop    rcx
    40c7:	48 83 ec 08          	sub    rsp,0x8
    40cb:	ff e1                	jmp    rcx

00000000000040cd <say188>:
    40cd:	48 83 c4 08          	add    rsp,0x8
    40d1:	48 83 c4 08          	add    rsp,0x8
    40d5:	55                   	push   rbp
    40d6:	48 83 c4 08          	add    rsp,0x8
    40da:	48 89 e5             	mov    rbp,rsp
    40dd:	8b 0d 1d 3f 00 00    	mov    ecx,DWORD PTR [rip+0x3f1d]        # 8000 <heard>
    40e3:	48 8d 05 1a 3f 00 00 	lea    rax,[rip+0x3f1a]        # 8004 <__bss_start>
    40ea:	c6 04 08 bc          	mov    BYTE PTR [rax+rcx*1],0xbc
    40ee:	ff 05 0c 3f 00 00    	inc    DWORD PTR [rip+0x3f0c]        # 8000 <heard>
    40f4:	48 89 ec             	mov    rsp,rbp
    40f7:	48 83 ec 08          	sub    rsp,0x8
    40fb:	5d                   	pop    rbp
    40fc:	48 83 ec 08          	sub    rsp,0x8
    4100:	48 83 ec 08          	sub    rsp,0x8
    4104:	59                   	pop    rcx
    4105:	48 83 ec 08          	sub    rsp,0x8
    4109:	ff e1                	jmp    rcx

000000000000410b <say189>:
    410b:	48 83 c4 08          	add    rsp,0x8
    410f:	48 83 c4 08          	add    rsp,0x8
    4113:	55                   	push   rbp
    4114:	48 83 c4 08          	add    rsp,0x8
    4118:	48 89 e5             	mov    rbp,rsp
    411b:	8b 0d df 3e 00 00    	mov    ecx,DWORD PTR [rip+0x3edf]        # 8000 <heard>
    4121:	48 8d 05 dc 3e 00 00 	lea    rax,[rip+0x3edc]        # 8004 <__bss_start>
    4128:	c6 04 08 bd          	mov    BYTE PTR [rax+rcx*1],0xbd
    412c:	ff 05 ce 3e 00 00    	inc    DWORD PTR [rip+0x3ece]        # 8000 <heard>
    4132:	48 89 ec             	mov    rsp,rbp
    4135:	48 83 ec 08          	sub    rsp,0x8
    4139:	5d                   	pop    rbp
    413a:	48 83 ec 08          	sub    rsp,0x8
    413e:	48 83 ec 08          	sub    rsp,0x8
    4142:	59                   	pop    rcx
    4143:	48 83 ec 08          	sub    rsp,0x8
    4147:	ff e1                	jmp    rcx

0000000000004149 <say190>:
    4149:	48 83 c4 08          	add    rsp,0x8
    414d:	48 83 c4 08          	add    rsp,0x8
    4151:	55                   	push   rbp
    4152:	48 83 c4 08          	add    rsp,0x8
    4156:	48 89 e5             	mov    rbp,rsp
    4159:	8b 0d a1 3e 00 00    	mov    ecx,DWORD PTR [rip+0x3ea1]        # 8000 <heard>
    415f:	48 8d 05 9e 3e 00 00 	lea    rax,[rip+0x3e9e]        # 8004 <__bss_start>
    4166:	c6 04 08 be          	mov    BYTE PTR [rax+rcx*1],0xbe
    416a:	ff 05 90 3e 00 00    	inc    DWORD PTR [rip+0x3e90]        # 8000 <heard>
    4170:	48 89 ec             	mov    rsp,rbp
    4173:	48 83 ec 08          	sub    rsp,0x8
    4177:	5d                   	pop    rbp
    4178:	48 83 ec 08          	sub    rsp,0x8
    417c:	48 83 ec 08          	sub    rsp,0x8
    4180:	59                   	pop    rcx
    4181:	48 83 ec 08          	sub    rsp,0x8
    4185:	ff e1                	jmp    rcx

0000000000004187 <say191>:
    4187:	48 83 c4 08          	add    rsp,0x8
    418b:	48 83 c4 08          	add    rsp,0x8
    418f:	55                   	push   rbp
    4190:	48 83 c4 08          	add    rsp,0x8
    4194:	48 89 e5             	mov    rbp,rsp
    4197:	8b 0d 63 3e 00 00    	mov    ecx,DWORD PTR [rip+0x3e63]        # 8000 <heard>
    419d:	48 8d 05 60 3e 00 00 	lea    rax,[rip+0x3e60]        # 8004 <__bss_start>
    41a4:	c6 04 08 bf          	mov    BYTE PTR [rax+rcx*1],0xbf
    41a8:	ff 05 52 3e 00 00    	inc    DWORD PTR [rip+0x3e52]        # 8000 <heard>
    41ae:	48 89 ec             	mov    rsp,rbp
    41b1:	48 83 ec 08          	sub    rsp,0x8
    41b5:	5d                   	pop    rbp
    41b6:	48 83 ec 08          	sub    rsp,0x8
    41ba:	48 83 ec 08          	sub    rsp,0x8
    41be:	59                   	pop    rcx
    41bf:	48 83 ec 08          	sub    rsp,0x8
    41c3:	ff e1                	jmp    rcx

00000000000041c5 <say192>:
    41c5:	48 83 c4 08          	add    rsp,0x8
    41c9:	48 83 c4 08          	add    rsp,0x8
    41cd:	55                   	push   rbp
    41ce:	48 83 c4 08          	add    rsp,0x8
    41d2:	48 89 e5             	mov    rbp,rsp
    41d5:	8b 0d 25 3e 00 00    	mov    ecx,DWORD PTR [rip+0x3e25]        # 8000 <heard>
    41db:	48 8d 05 22 3e 00 00 	lea    rax,[rip+0x3e22]        # 8004 <__bss_start>
    41e2:	c6 04 08 c0          	mov    BYTE PTR [rax+rcx*1],0xc0
    41e6:	ff 05 14 3e 00 00    	inc    DWORD PTR [rip+0x3e14]        # 8000 <heard>
    41ec:	48 89 ec             	mov    rsp,rbp
    41ef:	48 83 ec 08          	sub    rsp,0x8
    41f3:	5d                   	pop    rbp
    41f4:	48 83 ec 08          	sub    rsp,0x8
    41f8:	48 83 ec 08          	sub    rsp,0x8
    41fc:	59                   	pop    rcx
    41fd:	48 83 ec 08          	sub    rsp,0x8
    4201:	ff e1                	jmp    rcx

0000000000004203 <say193>:
    4203:	48 83 c4 08          	add    rsp,0x8
    4207:	48 83 c4 08          	add    rsp,0x8
    420b:	55                   	push   rbp
    420c:	48 83 c4 08          	add    rsp,0x8
    4210:	48 89 e5             	mov    rbp,rsp
    4213:	8b 0d e7 3d 00 00    	mov    ecx,DWORD PTR [rip+0x3de7]        # 8000 <heard>
    4219:	48 8d 05 e4 3d 00 00 	lea    rax,[rip+0x3de4]        # 8004 <__bss_start>
    4220:	c6 04 08 c1          	mov    BYTE PTR [rax+rcx*1],0xc1
    4224:	ff 05 d6 3d 00 00    	inc    DWORD PTR [rip+0x3dd6]        # 8000 <heard>
    422a:	48 89 ec             	mov    rsp,rbp
    422d:	48 83 ec 08          	sub    rsp,0x8
    4231:	5d                   	pop    rbp
    4232:	48 83 ec 08          	sub    rsp,0x8
    4236:	48 83 ec 08          	sub    rsp,0x8
    423a:	59                   	pop    rcx
    423b:	48 83 ec 08          	sub    rsp,0x8
    423f:	ff e1                	jmp    rcx

0000000000004241 <say194>:
    4241:	48 83 c4 08          	add    rsp,0x8
    4245:	48 83 c4 08          	add    rsp,0x8
    4249:	55                   	push   rbp
    424a:	48 83 c4 08          	add    rsp,0x8
    424e:	48 89 e5             	mov    rbp,rsp
    4251:	8b 0d a9 3d 00 00    	mov    ecx,DWORD PTR [rip+0x3da9]        # 8000 <heard>
    4257:	48 8d 05 a6 3d 00 00 	lea    rax,[rip+0x3da6]        # 8004 <__bss_start>
    425e:	c6 04 08 c2          	mov    BYTE PTR [rax+rcx*1],0xc2
    4262:	ff 05 98 3d 00 00    	inc    DWORD PTR [rip+0x3d98]        # 8000 <heard>
    4268:	48 89 ec             	mov    rsp,rbp
    426b:	48 83 ec 08          	sub    rsp,0x8
    426f:	5d                   	pop    rbp
    4270:	48 83 ec 08          	sub    rsp,0x8
    4274:	48 83 ec 08          	sub    rsp,0x8
    4278:	59                   	pop    rcx
    4279:	48 83 ec 08          	sub    rsp,0x8
    427d:	ff e1                	jmp    rcx

000000000000427f <say195>:
    427f:	48 83 c4 08          	add    rsp,0x8
    4283:	48 83 c4 08          	add    rsp,0x8
    4287:	55                   	push   rbp
    4288:	48 83 c4 08          	add    rsp,0x8
    428c:	48 89 e5             	mov    rbp,rsp
    428f:	8b 0d 6b 3d 00 00    	mov    ecx,DWORD PTR [rip+0x3d6b]        # 8000 <heard>
    4295:	48 8d 05 68 3d 00 00 	lea    rax,[rip+0x3d68]        # 8004 <__bss_start>
    429c:	c6 04 08 c3          	mov    BYTE PTR [rax+rcx*1],0xc3
    42a0:	ff 05 5a 3d 00 00    	inc    DWORD PTR [rip+0x3d5a]        # 8000 <heard>
    42a6:	48 89 ec             	mov    rsp,rbp
    42a9:	48 83 ec 08          	sub    rsp,0x8
    42ad:	5d                   	pop    rbp
    42ae:	48 83 ec 08          	sub    rsp,0x8
    42b2:	48 83 ec 08          	sub    rsp,0x8
    42b6:	59                   	pop    rcx
    42b7:	48 83 ec 08          	sub    rsp,0x8
    42bb:	ff e1                	jmp    rcx

00000000000042bd <say196>:
    42bd:	48 83 c4 08          	add    rsp,0x8
    42c1:	48 83 c4 08          	add    rsp,0x8
    42c5:	55                   	push   rbp
    42c6:	48 83 c4 08          	add    rsp,0x8
    42ca:	48 89 e5             	mov    rbp,rsp
    42cd:	8b 0d 2d 3d 00 00    	mov    ecx,DWORD PTR [rip+0x3d2d]        # 8000 <heard>
    42d3:	48 8d 05 2a 3d 00 00 	lea    rax,[rip+0x3d2a]        # 8004 <__bss_start>
    42da:	c6 04 08 c4          	mov    BYTE PTR [rax+rcx*1],0xc4
    42de:	ff 05 1c 3d 00 00    	inc    DWORD PTR [rip+0x3d1c]        # 8000 <heard>
    42e4:	48 89 ec             	mov    rsp,rbp
    42e7:	48 83 ec 08          	sub    rsp,0x8
    42eb:	5d                   	pop    rbp
    42ec:	48 83 ec 08          	sub    rsp,0x8
    42f0:	48 83 ec 08          	sub    rsp,0x8
    42f4:	59                   	pop    rcx
    42f5:	48 83 ec 08          	sub    rsp,0x8
    42f9:	ff e1                	jmp    rcx

00000000000042fb <say197>:
    42fb:	48 83 c4 08          	add    rsp,0x8
    42ff:	48 83 c4 08          	add    rsp,0x8
    4303:	55                   	push   rbp
    4304:	48 83 c4 08          	add    rsp,0x8
    4308:	48 89 e5             	mov    rbp,rsp
    430b:	8b 0d ef 3c 00 00    	mov    ecx,DWORD PTR [rip+0x3cef]        # 8000 <heard>
    4311:	48 8d 05 ec 3c 00 00 	lea    rax,[rip+0x3cec]        # 8004 <__bss_start>
    4318:	c6 04 08 c5          	mov    BYTE PTR [rax+rcx*1],0xc5
    431c:	ff 05 de 3c 00 00    	inc    DWORD PTR [rip+0x3cde]        # 8000 <heard>
    4322:	48 89 ec             	mov    rsp,rbp
    4325:	48 83 ec 08          	sub    rsp,0x8
    4329:	5d                   	pop    rbp
    432a:	48 83 ec 08          	sub    rsp,0x8
    432e:	48 83 ec 08          	sub    rsp,0x8
    4332:	59                   	pop    rcx
    4333:	48 83 ec 08          	sub    rsp,0x8
    4337:	ff e1                	jmp    rcx

0000000000004339 <say198>:
    4339:	48 83 c4 08          	add    rsp,0x8
    433d:	48 83 c4 08          	add    rsp,0x8
    4341:	55                   	push   rbp
    4342:	48 83 c4 08          	add    rsp,0x8
    4346:	48 89 e5             	mov    rbp,rsp
    4349:	8b 0d b1 3c 00 00    	mov    ecx,DWORD PTR [rip+0x3cb1]        # 8000 <heard>
    434f:	48 8d 05 ae 3c 00 00 	lea    rax,[rip+0x3cae]        # 8004 <__bss_start>
    4356:	c6 04 08 c6          	mov    BYTE PTR [rax+rcx*1],0xc6
    435a:	ff 05 a0 3c 00 00    	inc    DWORD PTR [rip+0x3ca0]        # 8000 <heard>
    4360:	48 89 ec             	mov    rsp,rbp
    4363:	48 83 ec 08          	sub    rsp,0x8
    4367:	5d                   	pop    rbp
    4368:	48 83 ec 08          	sub    rsp,0x8
    436c:	48 83 ec 08          	sub    rsp,0x8
    4370:	59                   	pop    rcx
    4371:	48 83 ec 08          	sub    rsp,0x8
    4375:	ff e1                	jmp    rcx

0000000000004377 <say199>:
    4377:	48 83 c4 08          	add    rsp,0x8
    437b:	48 83 c4 08          	add    rsp,0x8
    437f:	55                   	push   rbp
    4380:	48 83 c4 08          	add    rsp,0x8
    4384:	48 89 e5             	mov    rbp,rsp
    4387:	8b 0d 73 3c 00 00    	mov    ecx,DWORD PTR [rip+0x3c73]        # 8000 <heard>
    438d:	48 8d 05 70 3c 00 00 	lea    rax,[rip+0x3c70]        # 8004 <__bss_start>
    4394:	c6 04 08 c7          	mov    BYTE PTR [rax+rcx*1],0xc7
    4398:	ff 05 62 3c 00 00    	inc    DWORD PTR [rip+0x3c62]        # 8000 <heard>
    439e:	48 89 ec             	mov    rsp,rbp
    43a1:	48 83 ec 08          	sub    rsp,0x8
    43a5:	5d                   	pop    rbp
    43a6:	48 83 ec 08          	sub    rsp,0x8
    43aa:	48 83 ec 08          	sub    rsp,0x8
    43ae:	59                   	pop    rcx
    43af:	48 83 ec 08          	sub    rsp,0x8
    43b3:	ff e1                	jmp    rcx

00000000000043b5 <say200>:
    43b5:	48 83 c4 08          	add    rsp,0x8
    43b9:	48 83 c4 08          	add    rsp,0x8
    43bd:	55                   	push   rbp
    43be:	48 83 c4 08          	add    rsp,0x8
    43c2:	48 89 e5             	mov    rbp,rsp
    43c5:	8b 0d 35 3c 00 00    	mov    ecx,DWORD PTR [rip+0x3c35]        # 8000 <heard>
    43cb:	48 8d 05 32 3c 00 00 	lea    rax,[rip+0x3c32]        # 8004 <__bss_start>
    43d2:	c6 04 08 c8          	mov    BYTE PTR [rax+rcx*1],0xc8
    43d6:	ff 05 24 3c 00 00    	inc    DWORD PTR [rip+0x3c24]        # 8000 <heard>
    43dc:	48 89 ec             	mov    rsp,rbp
    43df:	48 83 ec 08          	sub    rsp,0x8
    43e3:	5d                   	pop    rbp
    43e4:	48 83 ec 08          	sub    rsp,0x8
    43e8:	48 83 ec 08          	sub    rsp,0x8
    43ec:	59                   	pop    rcx
    43ed:	48 83 ec 08          	sub    rsp,0x8
    43f1:	ff e1                	jmp    rcx

00000000000043f3 <say201>:
    43f3:	48 83 c4 08          	add    rsp,0x8
    43f7:	48 83 c4 08          	add    rsp,0x8
    43fb:	55                   	push   rbp
    43fc:	48 83 c4 08          	add    rsp,0x8
    4400:	48 89 e5             	mov    rbp,rsp
    4403:	8b 0d f7 3b 00 00    	mov    ecx,DWORD PTR [rip+0x3bf7]        # 8000 <heard>
    4409:	48 8d 05 f4 3b 00 00 	lea    rax,[rip+0x3bf4]        # 8004 <__bss_start>
    4410:	c6 04 08 c9          	mov    BYTE PTR [rax+rcx*1],0xc9
    4414:	ff 05 e6 3b 00 00    	inc    DWORD PTR [rip+0x3be6]        # 8000 <heard>
    441a:	48 89 ec             	mov    rsp,rbp
    441d:	48 83 ec 08          	sub    rsp,0x8
    4421:	5d                   	pop    rbp
    4422:	48 83 ec 08          	sub    rsp,0x8
    4426:	48 83 ec 08          	sub    rsp,0x8
    442a:	59                   	pop    rcx
    442b:	48 83 ec 08          	sub    rsp,0x8
    442f:	ff e1                	jmp    rcx

0000000000004431 <say202>:
    4431:	48 83 c4 08          	add    rsp,0x8
    4435:	48 83 c4 08          	add    rsp,0x8
    4439:	55                   	push   rbp
    443a:	48 83 c4 08          	add    rsp,0x8
    443e:	48 89 e5             	mov    rbp,rsp
    4441:	8b 0d b9 3b 00 00    	mov    ecx,DWORD PTR [rip+0x3bb9]        # 8000 <heard>
    4447:	48 8d 05 b6 3b 00 00 	lea    rax,[rip+0x3bb6]        # 8004 <__bss_start>
    444e:	c6 04 08 ca          	mov    BYTE PTR [rax+rcx*1],0xca
    4452:	ff 05 a8 3b 00 00    	inc    DWORD PTR [rip+0x3ba8]        # 8000 <heard>
    4458:	48 89 ec             	mov    rsp,rbp
    445b:	48 83 ec 08          	sub    rsp,0x8
    445f:	5d                   	pop    rbp
    4460:	48 83 ec 08          	sub    rsp,0x8
    4464:	48 83 ec 08          	sub    rsp,0x8
    4468:	59                   	pop    rcx
    4469:	48 83 ec 08          	sub    rsp,0x8
    446d:	ff e1                	jmp    rcx

000000000000446f <say203>:
    446f:	48 83 c4 08          	add    rsp,0x8
    4473:	48 83 c4 08          	add    rsp,0x8
    4477:	55                   	push   rbp
    4478:	48 83 c4 08          	add    rsp,0x8
    447c:	48 89 e5             	mov    rbp,rsp
    447f:	8b 0d 7b 3b 00 00    	mov    ecx,DWORD PTR [rip+0x3b7b]        # 8000 <heard>
    4485:	48 8d 05 78 3b 00 00 	lea    rax,[rip+0x3b78]        # 8004 <__bss_start>
    448c:	c6 04 08 cb          	mov    BYTE PTR [rax+rcx*1],0xcb
    4490:	ff 05 6a 3b 00 00    	inc    DWORD PTR [rip+0x3b6a]        # 8000 <heard>
    4496:	48 89 ec             	mov    rsp,rbp
    4499:	48 83 ec 08          	sub    rsp,0x8
    449d:	5d                   	pop    rbp
    449e:	48 83 ec 08          	sub    rsp,0x8
    44a2:	48 83 ec 08          	sub    rsp,0x8
    44a6:	59                   	pop    rcx
    44a7:	48 83 ec 08          	sub    rsp,0x8
    44ab:	ff e1                	jmp    rcx

00000000000044ad <say204>:
    44ad:	48 83 c4 08          	add    rsp,0x8
    44b1:	48 83 c4 08          	add    rsp,0x8
    44b5:	55                   	push   rbp
    44b6:	48 83 c4 08          	add    rsp,0x8
    44ba:	48 89 e5             	mov    rbp,rsp
    44bd:	8b 0d 3d 3b 00 00    	mov    ecx,DWORD PTR [rip+0x3b3d]        # 8000 <heard>
    44c3:	48 8d 05 3a 3b 00 00 	lea    rax,[rip+0x3b3a]        # 8004 <__bss_start>
    44ca:	c6 04 08 cc          	mov    BYTE PTR [rax+rcx*1],0xcc
    44ce:	ff 05 2c 3b 00 00    	inc    DWORD PTR [rip+0x3b2c]        # 8000 <heard>
    44d4:	48 89 ec             	mov    rsp,rbp
    44d7:	48 83 ec 08          	sub    rsp,0x8
    44db:	5d                   	pop    rbp
    44dc:	48 83 ec 08          	sub    rsp,0x8
    44e0:	48 83 ec 08          	sub    rsp,0x8
    44e4:	59                   	pop    rcx
    44e5:	48 83 ec 08          	sub    rsp,0x8
    44e9:	ff e1                	jmp    rcx

00000000000044eb <say205>:
    44eb:	48 83 c4 08          	add    rsp,0x8
    44ef:	48 83 c4 08          	add    rsp,0x8
    44f3:	55                   	push   rbp
    44f4:	48 83 c4 08          	add    rsp,0x8
    44f8:	48 89 e5             	mov    rbp,rsp
    44fb:	8b 0d ff 3a 00 00    	mov    ecx,DWORD PTR [rip+0x3aff]        # 8000 <heard>
    4501:	48 8d 05 fc 3a 00 00 	lea    rax,[rip+0x3afc]        # 8004 <__bss_start>
    4508:	c6 04 08 cd          	mov    BYTE PTR [rax+rcx*1],0xcd
    450c:	ff 05 ee 3a 00 00    	inc    DWORD PTR [rip+0x3aee]        # 8000 <heard>
    4512:	48 89 ec             	mov    rsp,rbp
    4515:	48 83 ec 08          	sub    rsp,0x8
    4519:	5d                   	pop    rbp
    451a:	48 83 ec 08          	sub    rsp,0x8
    451e:	48 83 ec 08          	sub    rsp,0x8
    4522:	59                   	pop    rcx
    4523:	48 83 ec 08          	sub    rsp,0x8
    4527:	ff e1                	jmp    rcx

0000000000004529 <say206>:
    4529:	48 83 c4 08          	add    rsp,0x8
    452d:	48 83 c4 08          	add    rsp,0x8
    4531:	55                   	push   rbp
    4532:	48 83 c4 08          	add    rsp,0x8
    4536:	48 89 e5             	mov    rbp,rsp
    4539:	8b 0d c1 3a 00 00    	mov    ecx,DWORD PTR [rip+0x3ac1]        # 8000 <heard>
    453f:	48 8d 05 be 3a 00 00 	lea    rax,[rip+0x3abe]        # 8004 <__bss_start>
    4546:	c6 04 08 ce          	mov    BYTE PTR [rax+rcx*1],0xce
    454a:	ff 05 b0 3a 00 00    	inc    DWORD PTR [rip+0x3ab0]        # 8000 <heard>
    4550:	48 89 ec             	mov    rsp,rbp
    4553:	48 83 ec 08          	sub    rsp,0x8
    4557:	5d                   	pop    rbp
    4558:	48 83 ec 08          	sub    rsp,0x8
    455c:	48 83 ec 08          	sub    rsp,0x8
    4560:	59                   	pop    rcx
    4561:	48 83 ec 08          	sub    rsp,0x8
    4565:	ff e1                	jmp    rcx

0000000000004567 <say207>:
    4567:	48 83 c4 08          	add    rsp,0x8
    456b:	48 83 c4 08          	add    rsp,0x8
    456f:	55                   	push   rbp
    4570:	48 83 c4 08          	add    rsp,0x8
    4574:	48 89 e5             	mov    rbp,rsp
    4577:	8b 0d 83 3a 00 00    	mov    ecx,DWORD PTR [rip+0x3a83]        # 8000 <heard>
    457d:	48 8d 05 80 3a 00 00 	lea    rax,[rip+0x3a80]        # 8004 <__bss_start>
    4584:	c6 04 08 cf          	mov    BYTE PTR [rax+rcx*1],0xcf
    4588:	ff 05 72 3a 00 00    	inc    DWORD PTR [rip+0x3a72]        # 8000 <heard>
    458e:	48 89 ec             	mov    rsp,rbp
    4591:	48 83 ec 08          	sub    rsp,0x8
    4595:	5d                   	pop    rbp
    4596:	48 83 ec 08          	sub    rsp,0x8
    459a:	48 83 ec 08          	sub    rsp,0x8
    459e:	59                   	pop    rcx
    459f:	48 83 ec 08          	sub    rsp,0x8
    45a3:	ff e1                	jmp    rcx

00000000000045a5 <say208>:
    45a5:	48 83 c4 08          	add    rsp,0x8
    45a9:	48 83 c4 08          	add    rsp,0x8
    45ad:	55                   	push   rbp
    45ae:	48 83 c4 08          	add    rsp,0x8
    45b2:	48 89 e5             	mov    rbp,rsp
    45b5:	8b 0d 45 3a 00 00    	mov    ecx,DWORD PTR [rip+0x3a45]        # 8000 <heard>
    45bb:	48 8d 05 42 3a 00 00 	lea    rax,[rip+0x3a42]        # 8004 <__bss_start>
    45c2:	c6 04 08 d0          	mov    BYTE PTR [rax+rcx*1],0xd0
    45c6:	ff 05 34 3a 00 00    	inc    DWORD PTR [rip+0x3a34]        # 8000 <heard>
    45cc:	48 89 ec             	mov    rsp,rbp
    45cf:	48 83 ec 08          	sub    rsp,0x8
    45d3:	5d                   	pop    rbp
    45d4:	48 83 ec 08          	sub    rsp,0x8
    45d8:	48 83 ec 08          	sub    rsp,0x8
    45dc:	59                   	pop    rcx
    45dd:	48 83 ec 08          	sub    rsp,0x8
    45e1:	ff e1                	jmp    rcx

00000000000045e3 <say209>:
    45e3:	48 83 c4 08          	add    rsp,0x8
    45e7:	48 83 c4 08          	add    rsp,0x8
    45eb:	55                   	push   rbp
    45ec:	48 83 c4 08          	add    rsp,0x8
    45f0:	48 89 e5             	mov    rbp,rsp
    45f3:	8b 0d 07 3a 00 00    	mov    ecx,DWORD PTR [rip+0x3a07]        # 8000 <heard>
    45f9:	48 8d 05 04 3a 00 00 	lea    rax,[rip+0x3a04]        # 8004 <__bss_start>
    4600:	c6 04 08 d1          	mov    BYTE PTR [rax+rcx*1],0xd1
    4604:	ff 05 f6 39 00 00    	inc    DWORD PTR [rip+0x39f6]        # 8000 <heard>
    460a:	48 89 ec             	mov    rsp,rbp
    460d:	48 83 ec 08          	sub    rsp,0x8
    4611:	5d                   	pop    rbp
    4612:	48 83 ec 08          	sub    rsp,0x8
    4616:	48 83 ec 08          	sub    rsp,0x8
    461a:	59                   	pop    rcx
    461b:	48 83 ec 08          	sub    rsp,0x8
    461f:	ff e1                	jmp    rcx

0000000000004621 <say210>:
    4621:	48 83 c4 08          	add    rsp,0x8
    4625:	48 83 c4 08          	add    rsp,0x8
    4629:	55                   	push   rbp
    462a:	48 83 c4 08          	add    rsp,0x8
    462e:	48 89 e5             	mov    rbp,rsp
    4631:	8b 0d c9 39 00 00    	mov    ecx,DWORD PTR [rip+0x39c9]        # 8000 <heard>
    4637:	48 8d 05 c6 39 00 00 	lea    rax,[rip+0x39c6]        # 8004 <__bss_start>
    463e:	c6 04 08 d2          	mov    BYTE PTR [rax+rcx*1],0xd2
    4642:	ff 05 b8 39 00 00    	inc    DWORD PTR [rip+0x39b8]        # 8000 <heard>
    4648:	48 89 ec             	mov    rsp,rbp
    464b:	48 83 ec 08          	sub    rsp,0x8
    464f:	5d                   	pop    rbp
    4650:	48 83 ec 08          	sub    rsp,0x8
    4654:	48 83 ec 08          	sub    rsp,0x8
    4658:	59                   	pop    rcx
    4659:	48 83 ec 08          	sub    rsp,0x8
    465d:	ff e1                	jmp    rcx

000000000000465f <say211>:
    465f:	48 83 c4 08          	add    rsp,0x8
    4663:	48 83 c4 08          	add    rsp,0x8
    4667:	55                   	push   rbp
    4668:	48 83 c4 08          	add    rsp,0x8
    466c:	48 89 e5             	mov    rbp,rsp
    466f:	8b 0d 8b 39 00 00    	mov    ecx,DWORD PTR [rip+0x398b]        # 8000 <heard>
    4675:	48 8d 05 88 39 00 00 	lea    rax,[rip+0x3988]        # 8004 <__bss_start>
    467c:	c6 04 08 d3          	mov    BYTE PTR [rax+rcx*1],0xd3
    4680:	ff 05 7a 39 00 00    	inc    DWORD PTR [rip+0x397a]        # 8000 <heard>
    4686:	48 89 ec             	mov    rsp,rbp
    4689:	48 83 ec 08          	sub    rsp,0x8
    468d:	5d                   	pop    rbp
    468e:	48 83 ec 08          	sub    rsp,0x8
    4692:	48 83 ec 08          	sub    rsp,0x8
    4696:	59                   	pop    rcx
    4697:	48 83 ec 08          	sub    rsp,0x8
    469b:	ff e1                	jmp    rcx

000000000000469d <say212>:
    469d:	48 83 c4 08          	add    rsp,0x8
    46a1:	48 83 c4 08          	add    rsp,0x8
    46a5:	55                   	push   rbp
    46a6:	48 83 c4 08          	add    rsp,0x8
    46aa:	48 89 e5             	mov    rbp,rsp
    46ad:	8b 0d 4d 39 00 00    	mov    ecx,DWORD PTR [rip+0x394d]        # 8000 <heard>
    46b3:	48 8d 05 4a 39 00 00 	lea    rax,[rip+0x394a]        # 8004 <__bss_start>
    46ba:	c6 04 08 d4          	mov    BYTE PTR [rax+rcx*1],0xd4
    46be:	ff 05 3c 39 00 00    	inc    DWORD PTR [rip+0x393c]        # 8000 <heard>
    46c4:	48 89 ec             	mov    rsp,rbp
    46c7:	48 83 ec 08          	sub    rsp,0x8
    46cb:	5d                   	pop    rbp
    46cc:	48 83 ec 08          	sub    rsp,0x8
    46d0:	48 83 ec 08          	sub    rsp,0x8
    46d4:	59                   	pop    rcx
    46d5:	48 83 ec 08          	sub    rsp,0x8
    46d9:	ff e1                	jmp    rcx

00000000000046db <say213>:
    46db:	48 83 c4 08          	add    rsp,0x8
    46df:	48 83 c4 08          	add    rsp,0x8
    46e3:	55                   	push   rbp
    46e4:	48 83 c4 08          	add    rsp,0x8
    46e8:	48 89 e5             	mov    rbp,rsp
    46eb:	8b 0d 0f 39 00 00    	mov    ecx,DWORD PTR [rip+0x390f]        # 8000 <heard>
    46f1:	48 8d 05 0c 39 00 00 	lea    rax,[rip+0x390c]        # 8004 <__bss_start>
    46f8:	c6 04 08 d5          	mov    BYTE PTR [rax+rcx*1],0xd5
    46fc:	ff 05 fe 38 00 00    	inc    DWORD PTR [rip+0x38fe]        # 8000 <heard>
    4702:	48 89 ec             	mov    rsp,rbp
    4705:	48 83 ec 08          	sub    rsp,0x8
    4709:	5d                   	pop    rbp
    470a:	48 83 ec 08          	sub    rsp,0x8
    470e:	48 83 ec 08          	sub    rsp,0x8
    4712:	59                   	pop    rcx
    4713:	48 83 ec 08          	sub    rsp,0x8
    4717:	ff e1                	jmp    rcx

0000000000004719 <say214>:
    4719:	48 83 c4 08          	add    rsp,0x8
    471d:	48 83 c4 08          	add    rsp,0x8
    4721:	55                   	push   rbp
    4722:	48 83 c4 08          	add    rsp,0x8
    4726:	48 89 e5             	mov    rbp,rsp
    4729:	8b 0d d1 38 00 00    	mov    ecx,DWORD PTR [rip+0x38d1]        # 8000 <heard>
    472f:	48 8d 05 ce 38 00 00 	lea    rax,[rip+0x38ce]        # 8004 <__bss_start>
    4736:	c6 04 08 d6          	mov    BYTE PTR [rax+rcx*1],0xd6
    473a:	ff 05 c0 38 00 00    	inc    DWORD PTR [rip+0x38c0]        # 8000 <heard>
    4740:	48 89 ec             	mov    rsp,rbp
    4743:	48 83 ec 08          	sub    rsp,0x8
    4747:	5d                   	pop    rbp
    4748:	48 83 ec 08          	sub    rsp,0x8
    474c:	48 83 ec 08          	sub    rsp,0x8
    4750:	59                   	pop    rcx
    4751:	48 83 ec 08          	sub    rsp,0x8
    4755:	ff e1                	jmp    rcx

0000000000004757 <say215>:
    4757:	48 83 c4 08          	add    rsp,0x8
    475b:	48 83 c4 08          	add    rsp,0x8
    475f:	55                   	push   rbp
    4760:	48 83 c4 08          	add    rsp,0x8
    4764:	48 89 e5             	mov    rbp,rsp
    4767:	8b 0d 93 38 00 00    	mov    ecx,DWORD PTR [rip+0x3893]        # 8000 <heard>
    476d:	48 8d 05 90 38 00 00 	lea    rax,[rip+0x3890]        # 8004 <__bss_start>
    4774:	c6 04 08 d7          	mov    BYTE PTR [rax+rcx*1],0xd7
    4778:	ff 05 82 38 00 00    	inc    DWORD PTR [rip+0x3882]        # 8000 <heard>
    477e:	48 89 ec             	mov    rsp,rbp
    4781:	48 83 ec 08          	sub    rsp,0x8
    4785:	5d                   	pop    rbp
    4786:	48 83 ec 08          	sub    rsp,0x8
    478a:	48 83 ec 08          	sub    rsp,0x8
    478e:	59                   	pop    rcx
    478f:	48 83 ec 08          	sub    rsp,0x8
    4793:	ff e1                	jmp    rcx

0000000000004795 <say216>:
    4795:	48 83 c4 08          	add    rsp,0x8
    4799:	48 83 c4 08          	add    rsp,0x8
    479d:	55                   	push   rbp
    479e:	48 83 c4 08          	add    rsp,0x8
    47a2:	48 89 e5             	mov    rbp,rsp
    47a5:	8b 0d 55 38 00 00    	mov    ecx,DWORD PTR [rip+0x3855]        # 8000 <heard>
    47ab:	48 8d 05 52 38 00 00 	lea    rax,[rip+0x3852]        # 8004 <__bss_start>
    47b2:	c6 04 08 d8          	mov    BYTE PTR [rax+rcx*1],0xd8
    47b6:	ff 05 44 38 00 00    	inc    DWORD PTR [rip+0x3844]        # 8000 <heard>
    47bc:	48 89 ec             	mov    rsp,rbp
    47bf:	48 83 ec 08          	sub    rsp,0x8
    47c3:	5d                   	pop    rbp
    47c4:	48 83 ec 08          	sub    rsp,0x8
    47c8:	48 83 ec 08          	sub    rsp,0x8
    47cc:	59                   	pop    rcx
    47cd:	48 83 ec 08          	sub    rsp,0x8
    47d1:	ff e1                	jmp    rcx

00000000000047d3 <say217>:
    47d3:	48 83 c4 08          	add    rsp,0x8
    47d7:	48 83 c4 08          	add    rsp,0x8
    47db:	55                   	push   rbp
    47dc:	48 83 c4 08          	add    rsp,0x8
    47e0:	48 89 e5             	mov    rbp,rsp
    47e3:	8b 0d 17 38 00 00    	mov    ecx,DWORD PTR [rip+0x3817]        # 8000 <heard>
    47e9:	48 8d 05 14 38 00 00 	lea    rax,[rip+0x3814]        # 8004 <__bss_start>
    47f0:	c6 04 08 d9          	mov    BYTE PTR [rax+rcx*1],0xd9
    47f4:	ff 05 06 38 00 00    	inc    DWORD PTR [rip+0x3806]        # 8000 <heard>
    47fa:	48 89 ec             	mov    rsp,rbp
    47fd:	48 83 ec 08          	sub    rsp,0x8
    4801:	5d                   	pop    rbp
    4802:	48 83 ec 08          	sub    rsp,0x8
    4806:	48 83 ec 08          	sub    rsp,0x8
    480a:	59                   	pop    rcx
    480b:	48 83 ec 08          	sub    rsp,0x8
    480f:	ff e1                	jmp    rcx

0000000000004811 <say218>:
    4811:	48 83 c4 08          	add    rsp,0x8
    4815:	48 83 c4 08          	add    rsp,0x8
    4819:	55                   	push   rbp
    481a:	48 83 c4 08          	add    rsp,0x8
    481e:	48 89 e5             	mov    rbp,rsp
    4821:	8b 0d d9 37 00 00    	mov    ecx,DWORD PTR [rip+0x37d9]        # 8000 <heard>
    4827:	48 8d 05 d6 37 00 00 	lea    rax,[rip+0x37d6]        # 8004 <__bss_start>
    482e:	c6 04 08 da          	mov    BYTE PTR [rax+rcx*1],0xda
    4832:	ff 05 c8 37 00 00    	inc    DWORD PTR [rip+0x37c8]        # 8000 <heard>
    4838:	48 89 ec             	mov    rsp,rbp
    483b:	48 83 ec 08          	sub    rsp,0x8
    483f:	5d                   	pop    rbp
    4840:	48 83 ec 08          	sub    rsp,0x8
    4844:	48 83 ec 08          	sub    rsp,0x8
    4848:	59                   	pop    rcx
    4849:	48 83 ec 08          	sub    rsp,0x8
    484d:	ff e1                	jmp    rcx

000000000000484f <say219>:
    484f:	48 83 c4 08          	add    rsp,0x8
    4853:	48 83 c4 08          	add    rsp,0x8
    4857:	55                   	push   rbp
    4858:	48 83 c4 08          	add    rsp,0x8
    485c:	48 89 e5             	mov    rbp,rsp
    485f:	8b 0d 9b 37 00 00    	mov    ecx,DWORD PTR [rip+0x379b]        # 8000 <heard>
    4865:	48 8d 05 98 37 00 00 	lea    rax,[rip+0x3798]        # 8004 <__bss_start>
    486c:	c6 04 08 db          	mov    BYTE PTR [rax+rcx*1],0xdb
    4870:	ff 05 8a 37 00 00    	inc    DWORD PTR [rip+0x378a]        # 8000 <heard>
    4876:	48 89 ec             	mov    rsp,rbp
    4879:	48 83 ec 08          	sub    rsp,0x8
    487d:	5d                   	pop    rbp
    487e:	48 83 ec 08          	sub    rsp,0x8
    4882:	48 83 ec 08          	sub    rsp,0x8
    4886:	59                   	pop    rcx
    4887:	48 83 ec 08          	sub    rsp,0x8
    488b:	ff e1                	jmp    rcx

000000000000488d <say220>:
    488d:	48 83 c4 08          	add    rsp,0x8
    4891:	48 83 c4 08          	add    rsp,0x8
    4895:	55                   	push   rbp
    4896:	48 83 c4 08          	add    rsp,0x8
    489a:	48 89 e5             	mov    rbp,rsp
    489d:	8b 0d 5d 37 00 00    	mov    ecx,DWORD PTR [rip+0x375d]        # 8000 <heard>
    48a3:	48 8d 05 5a 37 00 00 	lea    rax,[rip+0x375a]        # 8004 <__bss_start>
    48aa:	c6 04 08 dc          	mov    BYTE PTR [rax+rcx*1],0xdc
    48ae:	ff 05 4c 37 00 00    	inc    DWORD PTR [rip+0x374c]        # 8000 <heard>
    48b4:	48 89 ec             	mov    rsp,rbp
    48b7:	48 83 ec 08          	sub    rsp,0x8
    48bb:	5d                   	pop    rbp
    48bc:	48 83 ec 08          	sub    rsp,0x8
    48c0:	48 83 ec 08          	sub    rsp,0x8
    48c4:	59                   	pop    rcx
    48c5:	48 83 ec 08          	sub    rsp,0x8
    48c9:	ff e1                	jmp    rcx

00000000000048cb <say221>:
    48cb:	48 83 c4 08          	add    rsp,0x8
    48cf:	48 83 c4 08          	add    rsp,0x8
    48d3:	55                   	push   rbp
    48d4:	48 83 c4 08          	add    rsp,0x8
    48d8:	48 89 e5             	mov    rbp,rsp
    48db:	8b 0d 1f 37 00 00    	mov    ecx,DWORD PTR [rip+0x371f]        # 8000 <heard>
    48e1:	48 8d 05 1c 37 00 00 	lea    rax,[rip+0x371c]        # 8004 <__bss_start>
    48e8:	c6 04 08 dd          	mov    BYTE PTR [rax+rcx*1],0xdd
    48ec:	ff 05 0e 37 00 00    	inc    DWORD PTR [rip+0x370e]        # 8000 <heard>
    48f2:	48 89 ec             	mov    rsp,rbp
    48f5:	48 83 ec 08          	sub    rsp,0x8
    48f9:	5d                   	pop    rbp
    48fa:	48 83 ec 08          	sub    rsp,0x8
    48fe:	48 83 ec 08          	sub    rsp,0x8
    4902:	59                   	pop    rcx
    4903:	48 83 ec 08          	sub    rsp,0x8
    4907:	ff e1                	jmp    rcx

0000000000004909 <say222>:
    4909:	48 83 c4 08          	add    rsp,0x8
    490d:	48 83 c4 08          	add    rsp,0x8
    4911:	55                   	push   rbp
    4912:	48 83 c4 08          	add    rsp,0x8
    4916:	48 89 e5             	mov    rbp,rsp
    4919:	8b 0d e1 36 00 00    	mov    ecx,DWORD PTR [rip+0x36e1]        # 8000 <heard>
    491f:	48 8d 05 de 36 00 00 	lea    rax,[rip+0x36de]        # 8004 <__bss_start>
    4926:	c6 04 08 de          	mov    BYTE PTR [rax+rcx*1],0xde
    492a:	ff 05 d0 36 00 00    	inc    DWORD PTR [rip+0x36d0]        # 8000 <heard>
    4930:	48 89 ec             	mov    rsp,rbp
    4933:	48 83 ec 08          	sub    rsp,0x8
    4937:	5d                   	pop    rbp
    4938:	48 83 ec 08          	sub    rsp,0x8
    493c:	48 83 ec 08          	sub    rsp,0x8
    4940:	59                   	pop    rcx
    4941:	48 83 ec 08          	sub    rsp,0x8
    4945:	ff e1                	jmp    rcx

0000000000004947 <say223>:
    4947:	48 83 c4 08          	add    rsp,0x8
    494b:	48 83 c4 08          	add    rsp,0x8
    494f:	55                   	push   rbp
    4950:	48 83 c4 08          	add    rsp,0x8
    4954:	48 89 e5             	mov    rbp,rsp
    4957:	8b 0d a3 36 00 00    	mov    ecx,DWORD PTR [rip+0x36a3]        # 8000 <heard>
    495d:	48 8d 05 a0 36 00 00 	lea    rax,[rip+0x36a0]        # 8004 <__bss_start>
    4964:	c6 04 08 df          	mov    BYTE PTR [rax+rcx*1],0xdf
    4968:	ff 05 92 36 00 00    	inc    DWORD PTR [rip+0x3692]        # 8000 <heard>
    496e:	48 89 ec             	mov    rsp,rbp
    4971:	48 83 ec 08          	sub    rsp,0x8
    4975:	5d                   	pop    rbp
    4976:	48 83 ec 08          	sub    rsp,0x8
    497a:	48 83 ec 08          	sub    rsp,0x8
    497e:	59                   	pop    rcx
    497f:	48 83 ec 08          	sub    rsp,0x8
    4983:	ff e1                	jmp    rcx

0000000000004985 <say224>:
    4985:	48 83 c4 08          	add    rsp,0x8
    4989:	48 83 c4 08          	add    rsp,0x8
    498d:	55                   	push   rbp
    498e:	48 83 c4 08          	add    rsp,0x8
    4992:	48 89 e5             	mov    rbp,rsp
    4995:	8b 0d 65 36 00 00    	mov    ecx,DWORD PTR [rip+0x3665]        # 8000 <heard>
    499b:	48 8d 05 62 36 00 00 	lea    rax,[rip+0x3662]        # 8004 <__bss_start>
    49a2:	c6 04 08 e0          	mov    BYTE PTR [rax+rcx*1],0xe0
    49a6:	ff 05 54 36 00 00    	inc    DWORD PTR [rip+0x3654]        # 8000 <heard>
    49ac:	48 89 ec             	mov    rsp,rbp
    49af:	48 83 ec 08          	sub    rsp,0x8
    49b3:	5d                   	pop    rbp
    49b4:	48 83 ec 08          	sub    rsp,0x8
    49b8:	48 83 ec 08          	sub    rsp,0x8
    49bc:	59                   	pop    rcx
    49bd:	48 83 ec 08          	sub    rsp,0x8
    49c1:	ff e1                	jmp    rcx

00000000000049c3 <say225>:
    49c3:	48 83 c4 08          	add    rsp,0x8
    49c7:	48 83 c4 08          	add    rsp,0x8
    49cb:	55                   	push   rbp
    49cc:	48 83 c4 08          	add    rsp,0x8
    49d0:	48 89 e5             	mov    rbp,rsp
    49d3:	8b 0d 27 36 00 00    	mov    ecx,DWORD PTR [rip+0x3627]        # 8000 <heard>
    49d9:	48 8d 05 24 36 00 00 	lea    rax,[rip+0x3624]        # 8004 <__bss_start>
    49e0:	c6 04 08 e1          	mov    BYTE PTR [rax+rcx*1],0xe1
    49e4:	ff 05 16 36 00 00    	inc    DWORD PTR [rip+0x3616]        # 8000 <heard>
    49ea:	48 89 ec             	mov    rsp,rbp
    49ed:	48 83 ec 08          	sub    rsp,0x8
    49f1:	5d                   	pop    rbp
    49f2:	48 83 ec 08          	sub    rsp,0x8
    49f6:	48 83 ec 08          	sub    rsp,0x8
    49fa:	59                   	pop    rcx
    49fb:	48 83 ec 08          	sub    rsp,0x8
    49ff:	ff e1                	jmp    rcx

0000000000004a01 <say226>:
    4a01:	48 83 c4 08          	add    rsp,0x8
    4a05:	48 83 c4 08          	add    rsp,0x8
    4a09:	55                   	push   rbp
    4a0a:	48 83 c4 08          	add    rsp,0x8
    4a0e:	48 89 e5             	mov    rbp,rsp
    4a11:	8b 0d e9 35 00 00    	mov    ecx,DWORD PTR [rip+0x35e9]        # 8000 <heard>
    4a17:	48 8d 05 e6 35 00 00 	lea    rax,[rip+0x35e6]        # 8004 <__bss_start>
    4a1e:	c6 04 08 e2          	mov    BYTE PTR [rax+rcx*1],0xe2
    4a22:	ff 05 d8 35 00 00    	inc    DWORD PTR [rip+0x35d8]        # 8000 <heard>
    4a28:	48 89 ec             	mov    rsp,rbp
    4a2b:	48 83 ec 08          	sub    rsp,0x8
    4a2f:	5d                   	pop    rbp
    4a30:	48 83 ec 08          	sub    rsp,0x8
    4a34:	48 83 ec 08          	sub    rsp,0x8
    4a38:	59                   	pop    rcx
    4a39:	48 83 ec 08          	sub    rsp,0x8
    4a3d:	ff e1                	jmp    rcx

0000000000004a3f <say227>:
    4a3f:	48 83 c4 08          	add    rsp,0x8
    4a43:	48 83 c4 08          	add    rsp,0x8
    4a47:	55                   	push   rbp
    4a48:	48 83 c4 08          	add    rsp,0x8
    4a4c:	48 89 e5             	mov    rbp,rsp
    4a4f:	8b 0d ab 35 00 00    	mov    ecx,DWORD PTR [rip+0x35ab]        # 8000 <heard>
    4a55:	48 8d 05 a8 35 00 00 	lea    rax,[rip+0x35a8]        # 8004 <__bss_start>
    4a5c:	c6 04 08 e3          	mov    BYTE PTR [rax+rcx*1],0xe3
    4a60:	ff 05 9a 35 00 00    	inc    DWORD PTR [rip+0x359a]        # 8000 <heard>
    4a66:	48 89 ec             	mov    rsp,rbp
    4a69:	48 83 ec 08          	sub    rsp,0x8
    4a6d:	5d                   	pop    rbp
    4a6e:	48 83 ec 08          	sub    rsp,0x8
    4a72:	48 83 ec 08          	sub    rsp,0x8
    4a76:	59                   	pop    rcx
    4a77:	48 83 ec 08          	sub    rsp,0x8
    4a7b:	ff e1                	jmp    rcx

0000000000004a7d <say228>:
    4a7d:	48 83 c4 08          	add    rsp,0x8
    4a81:	48 83 c4 08          	add    rsp,0x8
    4a85:	55                   	push   rbp
    4a86:	48 83 c4 08          	add    rsp,0x8
    4a8a:	48 89 e5             	mov    rbp,rsp
    4a8d:	8b 0d 6d 35 00 00    	mov    ecx,DWORD PTR [rip+0x356d]        # 8000 <heard>
    4a93:	48 8d 05 6a 35 00 00 	lea    rax,[rip+0x356a]        # 8004 <__bss_start>
    4a9a:	c6 04 08 e4          	mov    BYTE PTR [rax+rcx*1],0xe4
    4a9e:	ff 05 5c 35 00 00    	inc    DWORD PTR [rip+0x355c]        # 8000 <heard>
    4aa4:	48 89 ec             	mov    rsp,rbp
    4aa7:	48 83 ec 08          	sub    rsp,0x8
    4aab:	5d                   	pop    rbp
    4aac:	48 83 ec 08          	sub    rsp,0x8
    4ab0:	48 83 ec 08          	sub    rsp,0x8
    4ab4:	59                   	pop    rcx
    4ab5:	48 83 ec 08          	sub    rsp,0x8
    4ab9:	ff e1                	jmp    rcx

0000000000004abb <say229>:
    4abb:	48 83 c4 08          	add    rsp,0x8
    4abf:	48 83 c4 08          	add    rsp,0x8
    4ac3:	55                   	push   rbp
    4ac4:	48 83 c4 08          	add    rsp,0x8
    4ac8:	48 89 e5             	mov    rbp,rsp
    4acb:	8b 0d 2f 35 00 00    	mov    ecx,DWORD PTR [rip+0x352f]        # 8000 <heard>
    4ad1:	48 8d 05 2c 35 00 00 	lea    rax,[rip+0x352c]        # 8004 <__bss_start>
    4ad8:	c6 04 08 e5          	mov    BYTE PTR [rax+rcx*1],0xe5
    4adc:	ff 05 1e 35 00 00    	inc    DWORD PTR [rip+0x351e]        # 8000 <heard>
    4ae2:	48 89 ec             	mov    rsp,rbp
    4ae5:	48 83 ec 08          	sub    rsp,0x8
    4ae9:	5d                   	pop    rbp
    4aea:	48 83 ec 08          	sub    rsp,0x8
    4aee:	48 83 ec 08          	sub    rsp,0x8
    4af2:	59                   	pop    rcx
    4af3:	48 83 ec 08          	sub    rsp,0x8
    4af7:	ff e1                	jmp    rcx

0000000000004af9 <say230>:
    4af9:	48 83 c4 08          	add    rsp,0x8
    4afd:	48 83 c4 08          	add    rsp,0x8
    4b01:	55                   	push   rbp
    4b02:	48 83 c4 08          	add    rsp,0x8
    4b06:	48 89 e5             	mov    rbp,rsp
    4b09:	8b 0d f1 34 00 00    	mov    ecx,DWORD PTR [rip+0x34f1]        # 8000 <heard>
    4b0f:	48 8d 05 ee 34 00 00 	lea    rax,[rip+0x34ee]        # 8004 <__bss_start>
    4b16:	c6 04 08 e6          	mov    BYTE PTR [rax+rcx*1],0xe6
    4b1a:	ff 05 e0 34 00 00    	inc    DWORD PTR [rip+0x34e0]        # 8000 <heard>
    4b20:	48 89 ec             	mov    rsp,rbp
    4b23:	48 83 ec 08          	sub    rsp,0x8
    4b27:	5d                   	pop    rbp
    4b28:	48 83 ec 08          	sub    rsp,0x8
    4b2c:	48 83 ec 08          	sub    rsp,0x8
    4b30:	59                   	pop    rcx
    4b31:	48 83 ec 08          	sub    rsp,0x8
    4b35:	ff e1                	jmp    rcx

0000000000004b37 <say231>:
    4b37:	48 83 c4 08          	add    rsp,0x8
    4b3b:	48 83 c4 08          	add    rsp,0x8
    4b3f:	55                   	push   rbp
    4b40:	48 83 c4 08          	add    rsp,0x8
    4b44:	48 89 e5             	mov    rbp,rsp
    4b47:	8b 0d b3 34 00 00    	mov    ecx,DWORD PTR [rip+0x34b3]        # 8000 <heard>
    4b4d:	48 8d 05 b0 34 00 00 	lea    rax,[rip+0x34b0]        # 8004 <__bss_start>
    4b54:	c6 04 08 e7          	mov    BYTE PTR [rax+rcx*1],0xe7
    4b58:	ff 05 a2 34 00 00    	inc    DWORD PTR [rip+0x34a2]        # 8000 <heard>
    4b5e:	48 89 ec             	mov    rsp,rbp
    4b61:	48 83 ec 08          	sub    rsp,0x8
    4b65:	5d                   	pop    rbp
    4b66:	48 83 ec 08          	sub    rsp,0x8
    4b6a:	48 83 ec 08          	sub    rsp,0x8
    4b6e:	59                   	pop    rcx
    4b6f:	48 83 ec 08          	sub    rsp,0x8
    4b73:	ff e1                	jmp    rcx

0000000000004b75 <say232>:
    4b75:	48 83 c4 08          	add    rsp,0x8
    4b79:	48 83 c4 08          	add    rsp,0x8
    4b7d:	55                   	push   rbp
    4b7e:	48 83 c4 08          	add    rsp,0x8
    4b82:	48 89 e5             	mov    rbp,rsp
    4b85:	8b 0d 75 34 00 00    	mov    ecx,DWORD PTR [rip+0x3475]        # 8000 <heard>
    4b8b:	48 8d 05 72 34 00 00 	lea    rax,[rip+0x3472]        # 8004 <__bss_start>
    4b92:	c6 04 08 e8          	mov    BYTE PTR [rax+rcx*1],0xe8
    4b96:	ff 05 64 34 00 00    	inc    DWORD PTR [rip+0x3464]        # 8000 <heard>
    4b9c:	48 89 ec             	mov    rsp,rbp
    4b9f:	48 83 ec 08          	sub    rsp,0x8
    4ba3:	5d                   	pop    rbp
    4ba4:	48 83 ec 08          	sub    rsp,0x8
    4ba8:	48 83 ec 08          	sub    rsp,0x8
    4bac:	59                   	pop    rcx
    4bad:	48 83 ec 08          	sub    rsp,0x8
    4bb1:	ff e1                	jmp    rcx

0000000000004bb3 <say233>:
    4bb3:	48 83 c4 08          	add    rsp,0x8
    4bb7:	48 83 c4 08          	add    rsp,0x8
    4bbb:	55                   	push   rbp
    4bbc:	48 83 c4 08          	add    rsp,0x8
    4bc0:	48 89 e5             	mov    rbp,rsp
    4bc3:	8b 0d 37 34 00 00    	mov    ecx,DWORD PTR [rip+0x3437]        # 8000 <heard>
    4bc9:	48 8d 05 34 34 00 00 	lea    rax,[rip+0x3434]        # 8004 <__bss_start>
    4bd0:	c6 04 08 e9          	mov    BYTE PTR [rax+rcx*1],0xe9
    4bd4:	ff 05 26 34 00 00    	inc    DWORD PTR [rip+0x3426]        # 8000 <heard>
    4bda:	48 89 ec             	mov    rsp,rbp
    4bdd:	48 83 ec 08          	sub    rsp,0x8
    4be1:	5d                   	pop    rbp
    4be2:	48 83 ec 08          	sub    rsp,0x8
    4be6:	48 83 ec 08          	sub    rsp,0x8
    4bea:	59                   	pop    rcx
    4beb:	48 83 ec 08          	sub    rsp,0x8
    4bef:	ff e1                	jmp    rcx

0000000000004bf1 <say234>:
    4bf1:	48 83 c4 08          	add    rsp,0x8
    4bf5:	48 83 c4 08          	add    rsp,0x8
    4bf9:	55                   	push   rbp
    4bfa:	48 83 c4 08          	add    rsp,0x8
    4bfe:	48 89 e5             	mov    rbp,rsp
    4c01:	8b 0d f9 33 00 00    	mov    ecx,DWORD PTR [rip+0x33f9]        # 8000 <heard>
    4c07:	48 8d 05 f6 33 00 00 	lea    rax,[rip+0x33f6]        # 8004 <__bss_start>
    4c0e:	c6 04 08 ea          	mov    BYTE PTR [rax+rcx*1],0xea
    4c12:	ff 05 e8 33 00 00    	inc    DWORD PTR [rip+0x33e8]        # 8000 <heard>
    4c18:	48 89 ec             	mov    rsp,rbp
    4c1b:	48 83 ec 08          	sub    rsp,0x8
    4c1f:	5d                   	pop    rbp
    4c20:	48 83 ec 08          	sub    rsp,0x8
    4c24:	48 83 ec 08          	sub    rsp,0x8
    4c28:	59                   	pop    rcx
    4c29:	48 83 ec 08          	sub    rsp,0x8
    4c2d:	ff e1                	jmp    rcx

0000000000004c2f <say235>:
    4c2f:	48 83 c4 08          	add    rsp,0x8
    4c33:	48 83 c4 08          	add    rsp,0x8
    4c37:	55                   	push   rbp
    4c38:	48 83 c4 08          	add    rsp,0x8
    4c3c:	48 89 e5             	mov    rbp,rsp
    4c3f:	8b 0d bb 33 00 00    	mov    ecx,DWORD PTR [rip+0x33bb]        # 8000 <heard>
    4c45:	48 8d 05 b8 33 00 00 	lea    rax,[rip+0x33b8]        # 8004 <__bss_start>
    4c4c:	c6 04 08 eb          	mov    BYTE PTR [rax+rcx*1],0xeb
    4c50:	ff 05 aa 33 00 00    	inc    DWORD PTR [rip+0x33aa]        # 8000 <heard>
    4c56:	48 89 ec             	mov    rsp,rbp
    4c59:	48 83 ec 08          	sub    rsp,0x8
    4c5d:	5d                   	pop    rbp
    4c5e:	48 83 ec 08          	sub    rsp,0x8
    4c62:	48 83 ec 08          	sub    rsp,0x8
    4c66:	59                   	pop    rcx
    4c67:	48 83 ec 08          	sub    rsp,0x8
    4c6b:	ff e1                	jmp    rcx

0000000000004c6d <say236>:
    4c6d:	48 83 c4 08          	add    rsp,0x8
    4c71:	48 83 c4 08          	add    rsp,0x8
    4c75:	55                   	push   rbp
    4c76:	48 83 c4 08          	add    rsp,0x8
    4c7a:	48 89 e5             	mov    rbp,rsp
    4c7d:	8b 0d 7d 33 00 00    	mov    ecx,DWORD PTR [rip+0x337d]        # 8000 <heard>
    4c83:	48 8d 05 7a 33 00 00 	lea    rax,[rip+0x337a]        # 8004 <__bss_start>
    4c8a:	c6 04 08 ec          	mov    BYTE PTR [rax+rcx*1],0xec
    4c8e:	ff 05 6c 33 00 00    	inc    DWORD PTR [rip+0x336c]        # 8000 <heard>
    4c94:	48 89 ec             	mov    rsp,rbp
    4c97:	48 83 ec 08          	sub    rsp,0x8
    4c9b:	5d                   	pop    rbp
    4c9c:	48 83 ec 08          	sub    rsp,0x8
    4ca0:	48 83 ec 08          	sub    rsp,0x8
    4ca4:	59                   	pop    rcx
    4ca5:	48 83 ec 08          	sub    rsp,0x8
    4ca9:	ff e1                	jmp    rcx

0000000000004cab <say237>:
    4cab:	48 83 c4 08          	add    rsp,0x8
    4caf:	48 83 c4 08          	add    rsp,0x8
    4cb3:	55                   	push   rbp
    4cb4:	48 83 c4 08          	add    rsp,0x8
    4cb8:	48 89 e5             	mov    rbp,rsp
    4cbb:	8b 0d 3f 33 00 00    	mov    ecx,DWORD PTR [rip+0x333f]        # 8000 <heard>
    4cc1:	48 8d 05 3c 33 00 00 	lea    rax,[rip+0x333c]        # 8004 <__bss_start>
    4cc8:	c6 04 08 ed          	mov    BYTE PTR [rax+rcx*1],0xed
    4ccc:	ff 05 2e 33 00 00    	inc    DWORD PTR [rip+0x332e]        # 8000 <heard>
    4cd2:	48 89 ec             	mov    rsp,rbp
    4cd5:	48 83 ec 08          	sub    rsp,0x8
    4cd9:	5d                   	pop    rbp
    4cda:	48 83 ec 08          	sub    rsp,0x8
    4cde:	48 83 ec 08          	sub    rsp,0x8
    4ce2:	59                   	pop    rcx
    4ce3:	48 83 ec 08          	sub    rsp,0x8
    4ce7:	ff e1                	jmp    rcx

0000000000004ce9 <say238>:
    4ce9:	48 83 c4 08          	add    rsp,0x8
    4ced:	48 83 c4 08          	add    rsp,0x8
    4cf1:	55                   	push   rbp
    4cf2:	48 83 c4 08          	add    rsp,0x8
    4cf6:	48 89 e5             	mov    rbp,rsp
    4cf9:	8b 0d 01 33 00 00    	mov    ecx,DWORD PTR [rip+0x3301]        # 8000 <heard>
    4cff:	48 8d 05 fe 32 00 00 	lea    rax,[rip+0x32fe]        # 8004 <__bss_start>
    4d06:	c6 04 08 ee          	mov    BYTE PTR [rax+rcx*1],0xee
    4d0a:	ff 05 f0 32 00 00    	inc    DWORD PTR [rip+0x32f0]        # 8000 <heard>
    4d10:	48 89 ec             	mov    rsp,rbp
    4d13:	48 83 ec 08          	sub    rsp,0x8
    4d17:	5d                   	pop    rbp
    4d18:	48 83 ec 08          	sub    rsp,0x8
    4d1c:	48 83 ec 08          	sub    rsp,0x8
    4d20:	59                   	pop    rcx
    4d21:	48 83 ec 08          	sub    rsp,0x8
    4d25:	ff e1                	jmp    rcx

0000000000004d27 <say239>:
    4d27:	48 83 c4 08          	add    rsp,0x8
    4d2b:	48 83 c4 08          	add    rsp,0x8
    4d2f:	55                   	push   rbp
    4d30:	48 83 c4 08          	add    rsp,0x8
    4d34:	48 89 e5             	mov    rbp,rsp
    4d37:	8b 0d c3 32 00 00    	mov    ecx,DWORD PTR [rip+0x32c3]        # 8000 <heard>
    4d3d:	48 8d 05 c0 32 00 00 	lea    rax,[rip+0x32c0]        # 8004 <__bss_start>
    4d44:	c6 04 08 ef          	mov    BYTE PTR [rax+rcx*1],0xef
    4d48:	ff 05 b2 32 00 00    	inc    DWORD PTR [rip+0x32b2]        # 8000 <heard>
    4d4e:	48 89 ec             	mov    rsp,rbp
    4d51:	48 83 ec 08          	sub    rsp,0x8
    4d55:	5d                   	pop    rbp
    4d56:	48 83 ec 08          	sub    rsp,0x8
    4d5a:	48 83 ec 08          	sub    rsp,0x8
    4d5e:	59                   	pop    rcx
    4d5f:	48 83 ec 08          	sub    rsp,0x8
    4d63:	ff e1                	jmp    rcx

0000000000004d65 <say240>:
    4d65:	48 83 c4 08          	add    rsp,0x8
    4d69:	48 83 c4 08          	add    rsp,0x8
    4d6d:	55                   	push   rbp
    4d6e:	48 83 c4 08          	add    rsp,0x8
    4d72:	48 89 e5             	mov    rbp,rsp
    4d75:	8b 0d 85 32 00 00    	mov    ecx,DWORD PTR [rip+0x3285]        # 8000 <heard>
    4d7b:	48 8d 05 82 32 00 00 	lea    rax,[rip+0x3282]        # 8004 <__bss_start>
    4d82:	c6 04 08 f0          	mov    BYTE PTR [rax+rcx*1],0xf0
    4d86:	ff 05 74 32 00 00    	inc    DWORD PTR [rip+0x3274]        # 8000 <heard>
    4d8c:	48 89 ec             	mov    rsp,rbp
    4d8f:	48 83 ec 08          	sub    rsp,0x8
    4d93:	5d                   	pop    rbp
    4d94:	48 83 ec 08          	sub    rsp,0x8
    4d98:	48 83 ec 08          	sub    rsp,0x8
    4d9c:	59                   	pop    rcx
    4d9d:	48 83 ec 08          	sub    rsp,0x8
    4da1:	ff e1                	jmp    rcx

0000000000004da3 <say241>:
    4da3:	48 83 c4 08          	add    rsp,0x8
    4da7:	48 83 c4 08          	add    rsp,0x8
    4dab:	55                   	push   rbp
    4dac:	48 83 c4 08          	add    rsp,0x8
    4db0:	48 89 e5             	mov    rbp,rsp
    4db3:	8b 0d 47 32 00 00    	mov    ecx,DWORD PTR [rip+0x3247]        # 8000 <heard>
    4db9:	48 8d 05 44 32 00 00 	lea    rax,[rip+0x3244]        # 8004 <__bss_start>
    4dc0:	c6 04 08 f1          	mov    BYTE PTR [rax+rcx*1],0xf1
    4dc4:	ff 05 36 32 00 00    	inc    DWORD PTR [rip+0x3236]        # 8000 <heard>
    4dca:	48 89 ec             	mov    rsp,rbp
    4dcd:	48 83 ec 08          	sub    rsp,0x8
    4dd1:	5d                   	pop    rbp
    4dd2:	48 83 ec 08          	sub    rsp,0x8
    4dd6:	48 83 ec 08          	sub    rsp,0x8
    4dda:	59                   	pop    rcx
    4ddb:	48 83 ec 08          	sub    rsp,0x8
    4ddf:	ff e1                	jmp    rcx

0000000000004de1 <say242>:
    4de1:	48 83 c4 08          	add    rsp,0x8
    4de5:	48 83 c4 08          	add    rsp,0x8
    4de9:	55                   	push   rbp
    4dea:	48 83 c4 08          	add    rsp,0x8
    4dee:	48 89 e5             	mov    rbp,rsp
    4df1:	8b 0d 09 32 00 00    	mov    ecx,DWORD PTR [rip+0x3209]        # 8000 <heard>
    4df7:	48 8d 05 06 32 00 00 	lea    rax,[rip+0x3206]        # 8004 <__bss_start>
    4dfe:	c6 04 08 f2          	mov    BYTE PTR [rax+rcx*1],0xf2
    4e02:	ff 05 f8 31 00 00    	inc    DWORD PTR [rip+0x31f8]        # 8000 <heard>
    4e08:	48 89 ec             	mov    rsp,rbp
    4e0b:	48 83 ec 08          	sub    rsp,0x8
    4e0f:	5d                   	pop    rbp
    4e10:	48 83 ec 08          	sub    rsp,0x8
    4e14:	48 83 ec 08          	sub    rsp,0x8
    4e18:	59                   	pop    rcx
    4e19:	48 83 ec 08          	sub    rsp,0x8
    4e1d:	ff e1                	jmp    rcx

0000000000004e1f <say243>:
    4e1f:	48 83 c4 08          	add    rsp,0x8
    4e23:	48 83 c4 08          	add    rsp,0x8
    4e27:	55                   	push   rbp
    4e28:	48 83 c4 08          	add    rsp,0x8
    4e2c:	48 89 e5             	mov    rbp,rsp
    4e2f:	8b 0d cb 31 00 00    	mov    ecx,DWORD PTR [rip+0x31cb]        # 8000 <heard>
    4e35:	48 8d 05 c8 31 00 00 	lea    rax,[rip+0x31c8]        # 8004 <__bss_start>
    4e3c:	c6 04 08 f3          	mov    BYTE PTR [rax+rcx*1],0xf3
    4e40:	ff 05 ba 31 00 00    	inc    DWORD PTR [rip+0x31ba]        # 8000 <heard>
    4e46:	48 89 ec             	mov    rsp,rbp
    4e49:	48 83 ec 08          	sub    rsp,0x8
    4e4d:	5d                   	pop    rbp
    4e4e:	48 83 ec 08          	sub    rsp,0x8
    4e52:	48 83 ec 08          	sub    rsp,0x8
    4e56:	59                   	pop    rcx
    4e57:	48 83 ec 08          	sub    rsp,0x8
    4e5b:	ff e1                	jmp    rcx

0000000000004e5d <say244>:
    4e5d:	48 83 c4 08          	add    rsp,0x8
    4e61:	48 83 c4 08          	add    rsp,0x8
    4e65:	55                   	push   rbp
    4e66:	48 83 c4 08          	add    rsp,0x8
    4e6a:	48 89 e5             	mov    rbp,rsp
    4e6d:	8b 0d 8d 31 00 00    	mov    ecx,DWORD PTR [rip+0x318d]        # 8000 <heard>
    4e73:	48 8d 05 8a 31 00 00 	lea    rax,[rip+0x318a]        # 8004 <__bss_start>
    4e7a:	c6 04 08 f4          	mov    BYTE PTR [rax+rcx*1],0xf4
    4e7e:	ff 05 7c 31 00 00    	inc    DWORD PTR [rip+0x317c]        # 8000 <heard>
    4e84:	48 89 ec             	mov    rsp,rbp
    4e87:	48 83 ec 08          	sub    rsp,0x8
    4e8b:	5d                   	pop    rbp
    4e8c:	48 83 ec 08          	sub    rsp,0x8
    4e90:	48 83 ec 08          	sub    rsp,0x8
    4e94:	59                   	pop    rcx
    4e95:	48 83 ec 08          	sub    rsp,0x8
    4e99:	ff e1                	jmp    rcx

0000000000004e9b <say245>:
    4e9b:	48 83 c4 08          	add    rsp,0x8
    4e9f:	48 83 c4 08          	add    rsp,0x8
    4ea3:	55                   	push   rbp
    4ea4:	48 83 c4 08          	add    rsp,0x8
    4ea8:	48 89 e5             	mov    rbp,rsp
    4eab:	8b 0d 4f 31 00 00    	mov    ecx,DWORD PTR [rip+0x314f]        # 8000 <heard>
    4eb1:	48 8d 05 4c 31 00 00 	lea    rax,[rip+0x314c]        # 8004 <__bss_start>
    4eb8:	c6 04 08 f5          	mov    BYTE PTR [rax+rcx*1],0xf5
    4ebc:	ff 05 3e 31 00 00    	inc    DWORD PTR [rip+0x313e]        # 8000 <heard>
    4ec2:	48 89 ec             	mov    rsp,rbp
    4ec5:	48 83 ec 08          	sub    rsp,0x8
    4ec9:	5d                   	pop    rbp
    4eca:	48 83 ec 08          	sub    rsp,0x8
    4ece:	48 83 ec 08          	sub    rsp,0x8
    4ed2:	59                   	pop    rcx
    4ed3:	48 83 ec 08          	sub    rsp,0x8
    4ed7:	ff e1                	jmp    rcx

0000000000004ed9 <say246>:
    4ed9:	48 83 c4 08          	add    rsp,0x8
    4edd:	48 83 c4 08          	add    rsp,0x8
    4ee1:	55                   	push   rbp
    4ee2:	48 83 c4 08          	add    rsp,0x8
    4ee6:	48 89 e5             	mov    rbp,rsp
    4ee9:	8b 0d 11 31 00 00    	mov    ecx,DWORD PTR [rip+0x3111]        # 8000 <heard>
    4eef:	48 8d 05 0e 31 00 00 	lea    rax,[rip+0x310e]        # 8004 <__bss_start>
    4ef6:	c6 04 08 f6          	mov    BYTE PTR [rax+rcx*1],0xf6
    4efa:	ff 05 00 31 00 00    	inc    DWORD PTR [rip+0x3100]        # 8000 <heard>
    4f00:	48 89 ec             	mov    rsp,rbp
    4f03:	48 83 ec 08          	sub    rsp,0x8
    4f07:	5d                   	pop    rbp
    4f08:	48 83 ec 08          	sub    rsp,0x8
    4f0c:	48 83 ec 08          	sub    rsp,0x8
    4f10:	59                   	pop    rcx
    4f11:	48 83 ec 08          	sub    rsp,0x8
    4f15:	ff e1                	jmp    rcx

0000000000004f17 <say247>:
    4f17:	48 83 c4 08          	add    rsp,0x8
    4f1b:	48 83 c4 08          	add    rsp,0x8
    4f1f:	55                   	push   rbp
    4f20:	48 83 c4 08          	add    rsp,0x8
    4f24:	48 89 e5             	mov    rbp,rsp
    4f27:	8b 0d d3 30 00 00    	mov    ecx,DWORD PTR [rip+0x30d3]        # 8000 <heard>
    4f2d:	48 8d 05 d0 30 00 00 	lea    rax,[rip+0x30d0]        # 8004 <__bss_start>
    4f34:	c6 04 08 f7          	mov    BYTE PTR [rax+rcx*1],0xf7
    4f38:	ff 05 c2 30 00 00    	inc    DWORD PTR [rip+0x30c2]        # 8000 <heard>
    4f3e:	48 89 ec             	mov    rsp,rbp
    4f41:	48 83 ec 08          	sub    rsp,0x8
    4f45:	5d                   	pop    rbp
    4f46:	48 83 ec 08          	sub    rsp,0x8
    4f4a:	48 83 ec 08          	sub    rsp,0x8
    4f4e:	59                   	pop    rcx
    4f4f:	48 83 ec 08          	sub    rsp,0x8
    4f53:	ff e1                	jmp    rcx

0000000000004f55 <say248>:
    4f55:	48 83 c4 08          	add    rsp,0x8
    4f59:	48 83 c4 08          	add    rsp,0x8
    4f5d:	55                   	push   rbp
    4f5e:	48 83 c4 08          	add    rsp,0x8
    4f62:	48 89 e5             	mov    rbp,rsp
    4f65:	8b 0d 95 30 00 00    	mov    ecx,DWORD PTR [rip+0x3095]        # 8000 <heard>
    4f6b:	48 8d 05 92 30 00 00 	lea    rax,[rip+0x3092]        # 8004 <__bss_start>
    4f72:	c6 04 08 f8          	mov    BYTE PTR [rax+rcx*1],0xf8
    4f76:	ff 05 84 30 00 00    	inc    DWORD PTR [rip+0x3084]        # 8000 <heard>
    4f7c:	48 89 ec             	mov    rsp,rbp
    4f7f:	48 83 ec 08          	sub    rsp,0x8
    4f83:	5d                   	pop    rbp
    4f84:	48 83 ec 08          	sub    rsp,0x8
    4f88:	48 83 ec 08          	sub    rsp,0x8
    4f8c:	59                   	pop    rcx
    4f8d:	48 83 ec 08          	sub    rsp,0x8
    4f91:	ff e1                	jmp    rcx

0000000000004f93 <say249>:
    4f93:	48 83 c4 08          	add    rsp,0x8
    4f97:	48 83 c4 08          	add    rsp,0x8
    4f9b:	55                   	push   rbp
    4f9c:	48 83 c4 08          	add    rsp,0x8
    4fa0:	48 89 e5             	mov    rbp,rsp
    4fa3:	8b 0d 57 30 00 00    	mov    ecx,DWORD PTR [rip+0x3057]        # 8000 <heard>
    4fa9:	48 8d 05 54 30 00 00 	lea    rax,[rip+0x3054]        # 8004 <__bss_start>
    4fb0:	c6 04 08 f9          	mov    BYTE PTR [rax+rcx*1],0xf9
    4fb4:	ff 05 46 30 00 00    	inc    DWORD PTR [rip+0x3046]        # 8000 <heard>
    4fba:	48 89 ec             	mov    rsp,rbp
    4fbd:	48 83 ec 08          	sub    rsp,0x8
    4fc1:	5d                   	pop    rbp
    4fc2:	48 83 ec 08          	sub    rsp,0x8
    4fc6:	48 83 ec 08          	sub    rsp,0x8
    4fca:	59                   	pop    rcx
    4fcb:	48 83 ec 08          	sub    rsp,0x8
    4fcf:	ff e1                	jmp    rcx

0000000000004fd1 <say250>:
    4fd1:	48 83 c4 08          	add    rsp,0x8
    4fd5:	48 83 c4 08          	add    rsp,0x8
    4fd9:	55                   	push   rbp
    4fda:	48 83 c4 08          	add    rsp,0x8
    4fde:	48 89 e5             	mov    rbp,rsp
    4fe1:	8b 0d 19 30 00 00    	mov    ecx,DWORD PTR [rip+0x3019]        # 8000 <heard>
    4fe7:	48 8d 05 16 30 00 00 	lea    rax,[rip+0x3016]        # 8004 <__bss_start>
    4fee:	c6 04 08 fa          	mov    BYTE PTR [rax+rcx*1],0xfa
    4ff2:	ff 05 08 30 00 00    	inc    DWORD PTR [rip+0x3008]        # 8000 <heard>
    4ff8:	48 89 ec             	mov    rsp,rbp
    4ffb:	48 83 ec 08          	sub    rsp,0x8
    4fff:	5d                   	pop    rbp
    5000:	48 83 ec 08          	sub    rsp,0x8
    5004:	48 83 ec 08          	sub    rsp,0x8
    5008:	59                   	pop    rcx
    5009:	48 83 ec 08          	sub    rsp,0x8
    500d:	ff e1                	jmp    rcx

000000000000500f <say251>:
    500f:	48 83 c4 08          	add    rsp,0x8
    5013:	48 83 c4 08          	add    rsp,0x8
    5017:	55                   	push   rbp
    5018:	48 83 c4 08          	add    rsp,0x8
    501c:	48 89 e5             	mov    rbp,rsp
    501f:	8b 0d db 2f 00 00    	mov    ecx,DWORD PTR [rip+0x2fdb]        # 8000 <heard>
    5025:	48 8d 05 d8 2f 00 00 	lea    rax,[rip+0x2fd8]        # 8004 <__bss_start>
    502c:	c6 04 08 fb          	mov    BYTE PTR [rax+rcx*1],0xfb
    5030:	ff 05 ca 2f 00 00    	inc    DWORD PTR [rip+0x2fca]        # 8000 <heard>
    5036:	48 89 ec             	mov    rsp,rbp
    5039:	48 83 ec 08          	sub    rsp,0x8
    503d:	5d                   	pop    rbp
    503e:	48 83 ec 08          	sub    rsp,0x8
    5042:	48 83 ec 08          	sub    rsp,0x8
    5046:	59                   	pop    rcx
    5047:	48 83 ec 08          	sub    rsp,0x8
    504b:	ff e1                	jmp    rcx

000000000000504d <say252>:
    504d:	48 83 c4 08          	add    rsp,0x8
    5051:	48 83 c4 08          	add    rsp,0x8
    5055:	55                   	push   rbp
    5056:	48 83 c4 08          	add    rsp,0x8
    505a:	48 89 e5             	mov    rbp,rsp
    505d:	8b 0d 9d 2f 00 00    	mov    ecx,DWORD PTR [rip+0x2f9d]        # 8000 <heard>
    5063:	48 8d 05 9a 2f 00 00 	lea    rax,[rip+0x2f9a]        # 8004 <__bss_start>
